EXPORTS
??0?$QList@VQItemSelectionRange@@@@QAE@$$QAV0@@Z @1
??0?$QList@VQItemSelectionRange@@@@QAE@ABV0@@Z @2
??0?$QList@VQItemSelectionRange@@@@QAE@V?$initializer_list@VQItemSelectionRange@@@std@@@Z @3
??0?$QList@VQItemSelectionRange@@@@QAE@XZ @4
??0?$QVector@VQPoint@@@@QAE@$$QAV0@@Z @5
??0?$QVector@VQPoint@@@@QAE@ABV0@@Z @6
??0?$QVector@VQPoint@@@@QAE@H@Z @7
??0?$QVector@VQPoint@@@@QAE@HABVQPoint@@@Z @8
??0?$QVector@VQPoint@@@@QAE@V?$initializer_list@VQPoint@@@std@@@Z @9
??0?$QVector@VQPoint@@@@QAE@XZ @10
??0?$QVector@VQPointF@@@@QAE@$$QAV0@@Z @11
??0?$QVector@VQPointF@@@@QAE@ABV0@@Z @12
??0?$QVector@VQPointF@@@@QAE@H@Z @13
??0?$QVector@VQPointF@@@@QAE@HABVQPointF@@@Z @14
??0?$QVector@VQPointF@@@@QAE@V?$initializer_list@VQPointF@@@std@@@Z @15
??0?$QVector@VQPointF@@@@QAE@XZ @16
??0?$QVector@VQXmlStreamAttribute@@@@QAE@$$QAV0@@Z @17
??0?$QVector@VQXmlStreamAttribute@@@@QAE@ABV0@@Z @18
??0?$QVector@VQXmlStreamAttribute@@@@QAE@H@Z @19
??0?$QVector@VQXmlStreamAttribute@@@@QAE@HABVQXmlStreamAttribute@@@Z @20
??0?$QVector@VQXmlStreamAttribute@@@@QAE@V?$initializer_list@VQXmlStreamAttribute@@@std@@@Z @21
??0?$QVector@VQXmlStreamAttribute@@@@QAE@XZ @22
??0Connection@QMetaObject@@AAE@PAX@Z @23
??0Connection@QMetaObject@@QAE@$$QAV01@@Z @24
??0Connection@QMetaObject@@QAE@ABV01@@Z @25
??0Connection@QMetaObject@@QAE@XZ @26
??0ConverterState@QTextCodec@@QAE@V?$QFlags@W4ConversionFlag@QTextCodec@@@@@Z @27
??0ExceptionHolder@QtPrivate@@QAE@ABV01@@Z @28
??0ExceptionHolder@QtPrivate@@QAE@PAVQException@@@Z @29
??0ExceptionStore@QtPrivate@@QAE@ABV01@@Z @30
??0ExceptionStore@QtPrivate@@QAE@XZ @31
??0QAbstractAnimation@@IAE@AAVQAbstractAnimationPrivate@@PAVQObject@@@Z @32
??0QAbstractAnimation@@QAE@PAVQObject@@@Z @33
??0QAbstractAnimationTimer@@QAE@XZ @34
??0QAbstractDynamicMetaObject@@QAE@ABU0@@Z @35
??0QAbstractDynamicMetaObject@@QAE@XZ @36
??0QAbstractEventDispatcher@@IAE@AAVQAbstractEventDispatcherPrivate@@PAVQObject@@@Z @37
??0QAbstractEventDispatcher@@QAE@PAVQObject@@@Z @38
??0QAbstractEventDispatcherPrivate@@QAE@ABV0@@Z @39
??0QAbstractEventDispatcherPrivate@@QAE@XZ @40
??0QAbstractFileEngine@@IAE@AAVQAbstractFileEnginePrivate@@@Z @41
??0QAbstractFileEngine@@IAE@XZ @42
??0QAbstractFileEngineHandler@@QAE@ABV0@@Z @43
??0QAbstractFileEngineHandler@@QAE@XZ @44
??0QAbstractFileEngineIterator@@QAE@V?$QFlags@W4Filter@QDir@@@@ABVQStringList@@@Z @45
??0QAbstractItemModel@@IAE@AAVQAbstractItemModelPrivate@@PAVQObject@@@Z @46
??0QAbstractItemModel@@QAE@PAVQObject@@@Z @47
??0QAbstractItemModelPrivate@@QAE@ABV0@@Z @48
??0QAbstractItemModelPrivate@@QAE@XZ @49
??0QAbstractListModel@@IAE@AAVQAbstractItemModelPrivate@@PAVQObject@@@Z @50
??0QAbstractListModel@@QAE@PAVQObject@@@Z @51
??0QAbstractNativeEventFilter@@QAE@XZ @52
??0QAbstractProxyModel@@IAE@AAVQAbstractProxyModelPrivate@@PAVQObject@@@Z @53
??0QAbstractProxyModel@@QAE@PAVQObject@@@Z @54
??0QAbstractProxyModelPrivate@@QAE@ABV0@@Z @55
??0QAbstractProxyModelPrivate@@QAE@XZ @56
??0QAbstractState@@IAE@AAVQAbstractStatePrivate@@PAVQState@@@Z @57
??0QAbstractState@@IAE@PAVQState@@@Z @58
??0QAbstractTableModel@@IAE@AAVQAbstractItemModelPrivate@@PAVQObject@@@Z @59
??0QAbstractTableModel@@QAE@PAVQObject@@@Z @60
??0QAbstractTransition@@IAE@AAVQAbstractTransitionPrivate@@PAVQState@@@Z @61
??0QAbstractTransition@@QAE@PAVQState@@@Z @62
??0QAbstractTransitionPrivate@@QAE@ABV0@@Z @63
??0QAbstractTransitionPrivate@@QAE@XZ @64
??0QAnimationDriver@@IAE@AAVQAnimationDriverPrivate@@PAVQObject@@@Z @65
??0QAnimationDriver@@QAE@PAVQObject@@@Z @66
??0QAnimationDriverPrivate@@QAE@ABV0@@Z @67
??0QAnimationDriverPrivate@@QAE@XZ @68
??0QAnimationGroup@@IAE@AAVQAnimationGroupPrivate@@PAVQObject@@@Z @69
??0QAnimationGroup@@QAE@PAVQObject@@@Z @70
??0QAssociativeIterable@@QAE@VQAssociativeIterableImpl@QtMetaTypePrivate@@@Z @71
??0QBasicTimer@@QAE@XZ @72
??0QBitArray@@QAE@$$QAV0@@Z @73
??0QBitArray@@QAE@ABV0@@Z @74
??0QBitArray@@QAE@H_N@Z @75
??0QBitArray@@QAE@XZ @76
??0QBitRef@@AAE@AAVQBitArray@@H@Z @77
??0QBuffer@@QAE@PAVQByteArray@@PAVQObject@@@Z @78
??0QBuffer@@QAE@PAVQObject@@@Z @79
??0QByteArray@@QAE@$$QAV0@@Z @80
??0QByteArray@@QAE@ABV0@@Z @81
??0QByteArray@@QAE@HD@Z @82
??0QByteArray@@QAE@HW4Initialization@Qt@@@Z @83
??0QByteArray@@QAE@PBDH@Z @84
??0QByteArray@@QAE@UQByteArrayDataPtr@@@Z @85
??0QByteArray@@QAE@XZ @86
??0QByteArrayMatcher@@QAE@ABV0@@Z @87
??0QByteArrayMatcher@@QAE@ABVQByteArray@@@Z @88
??0QByteArrayMatcher@@QAE@PBDH@Z @89
??0QByteArrayMatcher@@QAE@XZ @90
??0QByteRef@@AAE@AAVQByteArray@@H@Z @91
??0QChar@@QAE@D@Z @92
??0QChar@@QAE@E@Z @93
??0QChar@@QAE@EE@Z @94
??0QChar@@QAE@F@Z @95
??0QChar@@QAE@G@Z @96
??0QChar@@QAE@H@Z @97
??0QChar@@QAE@I@Z @98
??0QChar@@QAE@UQLatin1Char@@@Z @99
??0QChar@@QAE@W4SpecialCharacter@0@@Z @100
??0QChar@@QAE@XZ @101
??0QCharRef@@AAE@AAVQString@@H@Z @102
??0QChildEvent@@QAE@ABV0@@Z @103
??0QChildEvent@@QAE@W4Type@QEvent@@PAVQObject@@@Z @104
??0QCollator@@QAE@$$QAV0@@Z @105
??0QCollator@@QAE@ABV0@@Z @106
??0QCollator@@QAE@ABVQLocale@@@Z @107
??0QCollatorPrivate@@QAE@XZ @108
??0QCollatorSortKey@@IAE@PAVQCollatorSortKeyPrivate@@@Z @109
??0QCollatorSortKey@@QAE@ABV0@@Z @110
??0QCollatorSortKeyPrivate@@QAE@ABVQByteArray@@@Z @111
??0QCommandLineOption@@QAE@ABV0@@Z @112
??0QCommandLineOption@@QAE@ABVQString@@000@Z @113
??0QCommandLineOption@@QAE@ABVQString@@@Z @114
??0QCommandLineOption@@QAE@ABVQStringList@@@Z @115
??0QCommandLineOption@@QAE@ABVQStringList@@ABVQString@@11@Z @116
??0QCommandLineParser@@QAE@XZ @117
??0QCoreApplication@@IAE@AAVQCoreApplicationPrivate@@@Z @118
??0QCoreApplication@@QAE@AAHPAPADH@Z @119
??0QCoreApplicationPrivate@@QAE@AAHPAPADI@Z @120
??0QCoreApplicationPrivate@@QAE@ABV0@@Z @121
??0QCryptographicHash@@QAE@W4Algorithm@0@@Z @122
??0QDataStream@@QAE@ABVQByteArray@@@Z @123
??0QDataStream@@QAE@PAVQByteArray@@V?$QFlags@W4OpenModeFlag@QIODevice@@@@@Z @124
??0QDataStream@@QAE@PAVQIODevice@@@Z @125
??0QDataStream@@QAE@XZ @126
??0QDate@@QAE@HHH@Z @127
??0QDate@@QAE@XZ @128
??0QDateTime@@QAE@ABV0@@Z @129
??0QDateTime@@QAE@ABVQDate@@@Z @130
??0QDateTime@@QAE@ABVQDate@@ABVQTime@@ABVQTimeZone@@@Z @131
??0QDateTime@@QAE@ABVQDate@@ABVQTime@@W4TimeSpec@Qt@@@Z @132
??0QDateTime@@QAE@ABVQDate@@ABVQTime@@W4TimeSpec@Qt@@H@Z @133
??0QDateTime@@QAE@XZ @134
??0QDateTimeParser@@QAE@ABV0@@Z @135
??0QDateTimeParser@@QAE@W4Type@QVariant@@W4Context@0@@Z @136
??0QDebug@@QAE@ABV0@@Z @137
??0QDebug@@QAE@PAVQIODevice@@@Z @138
??0QDebug@@QAE@PAVQString@@@Z @139
??0QDebug@@QAE@W4QtMsgType@@@Z @140
??0QDebugStateSaver@@QAE@AAVQDebug@@@Z @141
??0QDeferredDeleteEvent@@QAE@ABV0@@Z @142
??0QDeferredDeleteEvent@@QAE@XZ @143
??0QDir@@IAE@AAVQDirPrivate@@@Z @144
??0QDir@@QAE@ABV0@@Z @145
??0QDir@@QAE@ABVQString@@0V?$QFlags@W4SortFlag@QDir@@@@V?$QFlags@W4Filter@QDir@@@@@Z @146
??0QDir@@QAE@ABVQString@@@Z @147
??0QDirIterator@@QAE@ABVQDir@@V?$QFlags@W4IteratorFlag@QDirIterator@@@@@Z @148
??0QDirIterator@@QAE@ABVQString@@ABVQStringList@@V?$QFlags@W4Filter@QDir@@@@V?$QFlags@W4IteratorFlag@QDirIterator@@@@@Z @149
??0QDirIterator@@QAE@ABVQString@@V?$QFlags@W4Filter@QDir@@@@V?$QFlags@W4IteratorFlag@QDirIterator@@@@@Z @150
??0QDirIterator@@QAE@ABVQString@@V?$QFlags@W4IteratorFlag@QDirIterator@@@@@Z @151
??0QDynamicMetaObjectData@@QAE@ABU0@@Z @152
??0QDynamicMetaObjectData@@QAE@XZ @153
??0QDynamicPropertyChangeEvent@@QAE@ABV0@@Z @154
??0QDynamicPropertyChangeEvent@@QAE@ABVQByteArray@@@Z @155
??0QEasingCurve@@QAE@$$QAV0@@Z @156
??0QEasingCurve@@QAE@ABV0@@Z @157
??0QEasingCurve@@QAE@W4Type@0@@Z @158
??0QElapsedTimer@@QAE@XZ @159
??0QEvent@@QAE@ABV0@@Z @160
??0QEvent@@QAE@W4Type@0@@Z @161
??0QEventDispatcherWin32@@IAE@AAVQEventDispatcherWin32Private@@PAVQObject@@@Z @162
??0QEventDispatcherWin32@@QAE@PAVQObject@@@Z @163
??0QEventDispatcherWin32Private@@QAE@ABV0@@Z @164
??0QEventDispatcherWin32Private@@QAE@XZ @165
??0QEventLoop@@QAE@PAVQObject@@@Z @166
??0QEventLoopLocker@@QAE@PAVQEventLoop@@@Z @167
??0QEventLoopLocker@@QAE@PAVQThread@@@Z @168
??0QEventLoopLocker@@QAE@XZ @169
??0QEventTransition@@IAE@AAVQEventTransitionPrivate@@PAVQObject@@W4Type@QEvent@@PAVQState@@@Z @170
??0QEventTransition@@IAE@AAVQEventTransitionPrivate@@PAVQState@@@Z @171
??0QEventTransition@@QAE@PAVQObject@@W4Type@QEvent@@PAVQState@@@Z @172
??0QEventTransition@@QAE@PAVQState@@@Z @173
??0QEventTransitionPrivate@@QAE@ABV0@@Z @174
??0QEventTransitionPrivate@@QAE@XZ @175
??0QException@@QAE@ABV0@@Z @176
??0QException@@QAE@XZ @177
??0QFSFileEngine@@IAE@AAVQFSFileEnginePrivate@@@Z @178
??0QFSFileEngine@@QAE@ABVQString@@@Z @179
??0QFSFileEngine@@QAE@XZ @180
??0QFactoryInterface@@QAE@ABU0@@Z @181
??0QFactoryInterface@@QAE@XZ @182
??0QFactoryLoader@@QAE@PBDABVQString@@W4CaseSensitivity@Qt@@@Z @183
??0QFile@@IAE@AAVQFilePrivate@@PAVQObject@@@Z @184
??0QFile@@QAE@ABVQString@@@Z @185
??0QFile@@QAE@ABVQString@@PAVQObject@@@Z @186
??0QFile@@QAE@PAVQObject@@@Z @187
??0QFile@@QAE@XZ @188
??0QFileDevice@@IAE@AAVQFileDevicePrivate@@PAVQObject@@@Z @189
??0QFileDevice@@IAE@PAVQObject@@@Z @190
??0QFileDevice@@IAE@XZ @191
??0QFileInfo@@QAE@ABV0@@Z @192
??0QFileInfo@@QAE@ABVQDir@@ABVQString@@@Z @193
??0QFileInfo@@QAE@ABVQFile@@@Z @194
??0QFileInfo@@QAE@ABVQString@@@Z @195
??0QFileInfo@@QAE@PAVQFileInfoPrivate@@@Z @196
??0QFileInfo@@QAE@XZ @197
??0QFileSelector@@QAE@PAVQObject@@@Z @198
??0QFileSelectorPrivate@@QAE@ABV0@@Z @199
??0QFileSelectorPrivate@@QAE@XZ @200
??0QFileSystemWatcher@@QAE@ABVQStringList@@PAVQObject@@@Z @201
??0QFileSystemWatcher@@QAE@PAVQObject@@@Z @202
??0QFinalState@@QAE@PAVQState@@@Z @203
??0QFutureInterfaceBase@@QAE@ABV0@@Z @204
??0QFutureInterfaceBase@@QAE@W4State@0@@Z @205
??0QFutureWatcherBase@@QAE@PAVQObject@@@Z @206
??0QGenericArgument@@QAE@PBDPBX@Z @207
??0QGenericReturnArgument@@QAE@PBDPAX@Z @208
??0QHistoryState@@QAE@PAVQState@@@Z @209
??0QHistoryState@@QAE@W4HistoryType@0@PAVQState@@@Z @210
??0QIODevice@@IAE@AAVQIODevicePrivate@@PAVQObject@@@Z @211
??0QIODevice@@QAE@PAVQObject@@@Z @212
??0QIODevice@@QAE@XZ @213
??0QIODevicePrivate@@QAE@ABV0@@Z @214
??0QIODevicePrivate@@QAE@XZ @215
??0QIdentityProxyModel@@IAE@AAVQIdentityProxyModelPrivate@@PAVQObject@@@Z @216
??0QIdentityProxyModel@@QAE@PAVQObject@@@Z @217
??0QItemSelection@@QAE@ABV0@@Z @218
??0QItemSelection@@QAE@ABVQModelIndex@@0@Z @219
??0QItemSelection@@QAE@XZ @220
??0QItemSelectionModel@@IAE@AAVQItemSelectionModelPrivate@@PAVQAbstractItemModel@@@Z @221
??0QItemSelectionModel@@QAE@PAVQAbstractItemModel@@@Z @222
??0QItemSelectionModel@@QAE@PAVQAbstractItemModel@@PAVQObject@@@Z @223
??0QItemSelectionRange@@QAE@ABV0@@Z @224
??0QItemSelectionRange@@QAE@ABVQModelIndex@@0@Z @225
??0QItemSelectionRange@@QAE@ABVQModelIndex@@@Z @226
??0QItemSelectionRange@@QAE@XZ @227
??0QJsonArray@@AAE@PAVData@QJsonPrivate@@PAVArray@2@@Z @228
??0QJsonArray@@QAE@ABV0@@Z @229
??0QJsonArray@@QAE@V?$initializer_list@VQJsonValue@@@std@@@Z @230
??0QJsonArray@@QAE@XZ @231
??0QJsonDocument@@AAE@PAVData@QJsonPrivate@@@Z @232
??0QJsonDocument@@QAE@ABV0@@Z @233
??0QJsonDocument@@QAE@ABVQJsonArray@@@Z @234
??0QJsonDocument@@QAE@ABVQJsonObject@@@Z @235
??0QJsonDocument@@QAE@XZ @236
??0QJsonObject@@AAE@PAVData@QJsonPrivate@@PAVObject@2@@Z @237
??0QJsonObject@@QAE@ABV0@@Z @238
??0QJsonObject@@QAE@V?$initializer_list@U?$QPair@VQString@@VQJsonValue@@@@@std@@@Z @239
??0QJsonObject@@QAE@XZ @240
??0QJsonValue@@AAE@PAVData@QJsonPrivate@@PAVBase@2@ABVValue@2@@Z @241
??0QJsonValue@@AAE@PBX@Z @242
??0QJsonValue@@QAE@ABV0@@Z @243
??0QJsonValue@@QAE@ABVQJsonArray@@@Z @244
??0QJsonValue@@QAE@ABVQJsonObject@@@Z @245
??0QJsonValue@@QAE@ABVQString@@@Z @246
??0QJsonValue@@QAE@H@Z @247
??0QJsonValue@@QAE@N@Z @248
??0QJsonValue@@QAE@PBD@Z @249
??0QJsonValue@@QAE@VQLatin1String@@@Z @250
??0QJsonValue@@QAE@W4Type@0@@Z @251
??0QJsonValue@@QAE@_J@Z @252
??0QJsonValue@@QAE@_N@Z @253
??0QJsonValueRef@@QAE@PAVQJsonArray@@H@Z @254
??0QJsonValueRef@@QAE@PAVQJsonObject@@H@Z @255
??0QLibrary@@QAE@ABVQString@@0PAVQObject@@@Z @256
??0QLibrary@@QAE@ABVQString@@HPAVQObject@@@Z @257
??0QLibrary@@QAE@ABVQString@@PAVQObject@@@Z @258
??0QLibrary@@QAE@PAVQObject@@@Z @259
??0QLibraryInfo@@AAE@XZ @260
??0QLine@@QAE@ABVQPoint@@0@Z @261
??0QLine@@QAE@HHHH@Z @262
??0QLine@@QAE@XZ @263
??0QLineF@@QAE@ABVQLine@@@Z @264
??0QLineF@@QAE@ABVQPointF@@0@Z @265
??0QLineF@@QAE@NNNN@Z @266
??0QLineF@@QAE@XZ @267
??0QLocale@@AAE@AAVQLocalePrivate@@@Z @268
??0QLocale@@QAE@ABV0@@Z @269
??0QLocale@@QAE@ABVQString@@@Z @270
??0QLocale@@QAE@W4Language@0@W4Country@0@@Z @271
??0QLocale@@QAE@W4Language@0@W4Script@0@W4Country@0@@Z @272
??0QLocale@@QAE@XZ @273
??0QLockFile@@QAE@ABVQString@@@Z @274
??0QLoggingCategory@@QAE@PBD@Z @275
??0QLoggingCategory@@QAE@PBDW4QtMsgType@@@Z @276
??0QMessageAuthenticationCode@@QAE@W4Algorithm@QCryptographicHash@@ABVQByteArray@@@Z @277
??0QMessageLogger@@QAE@PBDH00@Z @278
??0QMessageLogger@@QAE@PBDH0@Z @279
??0QMessageLogger@@QAE@XZ @280
??0QMetaCallEvent@@QAE@ABV0@@Z @281
??0QMetaCallEvent@@QAE@GGP6AXPAVQObject@@W4Call@QMetaObject@@HPAPAX@ZPBV1@HHPAH2PAVQSemaphore@@@Z @282
??0QMetaCallEvent@@QAE@PAVQSlotObjectBase@QtPrivate@@PBVQObject@@HHPAHPAPAXPAVQSemaphore@@@Z @283
??0QMetaClassInfo@@QAE@XZ @284
??0QMetaEnum@@QAE@XZ @285
??0QMetaEnumBuilder@@AAE@PBVQMetaObjectBuilder@@H@Z @286
??0QMetaEnumBuilder@@QAE@XZ @287
??0QMetaMethod@@QAE@XZ @288
??0QMetaMethodBuilder@@AAE@PBVQMetaObjectBuilder@@H@Z @289
??0QMetaMethodBuilder@@QAE@XZ @290
??0QMetaObjectBuilder@@QAE@PBUQMetaObject@@V?$QFlags@W4AddMember@QMetaObjectBuilder@@@@@Z @291
??0QMetaObjectBuilder@@QAE@XZ @292
??0QMetaProperty@@QAE@XZ @293
??0QMetaPropertyBuilder@@AAE@PBVQMetaObjectBuilder@@H@Z @294
??0QMetaPropertyBuilder@@QAE@XZ @295
??0QMetaStringTable@@QAE@ABV0@@Z @296
??0QMetaStringTable@@QAE@ABVQByteArray@@@Z @297
??0QMetaType@@AAE@ABV0@@Z @298
??0QMetaType@@AAE@W4ExtensionFlag@0@PBVQMetaTypeInterface@@P6APAXPBX@ZP6AXPAX@ZP6AXAAVQDataStream@@2@ZP6AX64@ZP6APAX42@Z5IIHPBUQMetaObject@@@Z @299
??0QMetaType@@QAE@H@Z @300
??0QMimeData@@QAE@XZ @301
??0QMimeDatabase@@QAE@XZ @302
??0QMimeType@@QAE@ABV0@@Z @303
??0QMimeType@@QAE@ABVQMimeTypePrivate@@@Z @304
??0QMimeType@@QAE@XZ @305
??0QModelIndex@@AAE@HHIPBVQAbstractItemModel@@@Z @306
??0QModelIndex@@AAE@HHPAXPBVQAbstractItemModel@@@Z @307
??0QModelIndex@@QAE@XZ @308
??0QMutex@@QAE@W4RecursionMode@0@@Z @309
??0QMutexLocker@@QAE@PAVQBasicMutex@@@Z @310
??0QMutexPool@@QAE@ABV0@@Z @311
??0QMutexPool@@QAE@W4RecursionMode@QMutex@@H@Z @312
??0QNonContiguousByteDevice@@IAE@XZ @313
??0QObject@@IAE@AAVQObjectPrivate@@PAV0@@Z @314
??0QObject@@QAE@PAV0@@Z @315
??0QObjectCleanupHandler@@QAE@XZ @316
??0QObjectData@@QAE@ABV0@@Z @317
??0QObjectData@@QAE@XZ @318
??0QObjectPrivate@@QAE@ABV0@@Z @319
??0QObjectPrivate@@QAE@H@Z @320
??0QObjectUserData@@QAE@ABV0@@Z @321
??0QObjectUserData@@QAE@XZ @322
??0QParallelAnimationGroup@@IAE@AAVQParallelAnimationGroupPrivate@@PAVQObject@@@Z @323
??0QParallelAnimationGroup@@QAE@PAVQObject@@@Z @324
??0QPauseAnimation@@QAE@HPAVQObject@@@Z @325
??0QPauseAnimation@@QAE@PAVQObject@@@Z @326
??0QPersistentModelIndex@@QAE@$$QAV0@@Z @327
??0QPersistentModelIndex@@QAE@ABV0@@Z @328
??0QPersistentModelIndex@@QAE@ABVQModelIndex@@@Z @329
??0QPersistentModelIndex@@QAE@XZ @330
??0QPluginLoader@@QAE@ABVQString@@PAVQObject@@@Z @331
??0QPluginLoader@@QAE@PAVQObject@@@Z @332
??0QPoint@@QAE@HH@Z @333
??0QPoint@@QAE@XZ @334
??0QPointF@@QAE@ABVQPoint@@@Z @335
??0QPointF@@QAE@NN@Z @336
??0QPointF@@QAE@XZ @337
??0QProcess@@QAE@PAVQObject@@@Z @338
??0QProcessEnvironment@@QAE@ABV0@@Z @339
??0QProcessEnvironment@@QAE@XZ @340
??0QPropertyAnimation@@QAE@PAVQObject@@@Z @341
??0QPropertyAnimation@@QAE@PAVQObject@@ABVQByteArray@@0@Z @342
??0QReadLocker@@QAE@PAVQReadWriteLock@@@Z @343
??0QReadWriteLock@@QAE@W4RecursionMode@0@@Z @344
??0QRect@@QAE@ABVQPoint@@0@Z @345
??0QRect@@QAE@ABVQPoint@@ABVQSize@@@Z @346
??0QRect@@QAE@HHHH@Z @347
??0QRect@@QAE@XZ @348
??0QRectF@@QAE@ABVQPointF@@0@Z @349
??0QRectF@@QAE@ABVQPointF@@ABVQSizeF@@@Z @350
??0QRectF@@QAE@ABVQRect@@@Z @351
??0QRectF@@QAE@NNNN@Z @352
??0QRectF@@QAE@XZ @353
??0QRegExp@@QAE@ABV0@@Z @354
??0QRegExp@@QAE@ABVQString@@W4CaseSensitivity@Qt@@W4PatternSyntax@0@@Z @355
??0QRegExp@@QAE@XZ @356
??0QRegularExpression@@AAE@AAUQRegularExpressionPrivate@@@Z @357
??0QRegularExpression@@QAE@ABV0@@Z @358
??0QRegularExpression@@QAE@ABVQString@@V?$QFlags@W4PatternOption@QRegularExpression@@@@@Z @359
??0QRegularExpression@@QAE@XZ @360
??0QRegularExpressionMatch@@AAE@AAUQRegularExpressionMatchPrivate@@@Z @361
??0QRegularExpressionMatch@@QAE@ABV0@@Z @362
??0QRegularExpressionMatch@@QAE@XZ @363
??0QRegularExpressionMatchIterator@@AAE@AAUQRegularExpressionMatchIteratorPrivate@@@Z @364
??0QRegularExpressionMatchIterator@@QAE@ABV0@@Z @365
??0QRegularExpressionMatchIterator@@QAE@XZ @366
??0QResource@@QAE@ABVQString@@ABVQLocale@@@Z @367
??0QSaveFile@@QAE@ABVQString@@@Z @368
??0QSaveFile@@QAE@ABVQString@@PAVQObject@@@Z @369
??0QSaveFile@@QAE@PAVQObject@@@Z @370
??0QSemaphore@@QAE@H@Z @371
??0QSequentialAnimationGroup@@IAE@AAVQSequentialAnimationGroupPrivate@@PAVQObject@@@Z @372
??0QSequentialAnimationGroup@@QAE@PAVQObject@@@Z @373
??0QSequentialIterable@@QAE@VQSequentialIterableImpl@QtMetaTypePrivate@@@Z @374
??0QSettings@@QAE@ABVQString@@0PAVQObject@@@Z @375
??0QSettings@@QAE@ABVQString@@W4Format@0@PAVQObject@@@Z @376
??0QSettings@@QAE@PAVQObject@@@Z @377
??0QSettings@@QAE@W4Format@0@W4Scope@0@ABVQString@@2PAVQObject@@@Z @378
??0QSettings@@QAE@W4Scope@0@ABVQString@@1PAVQObject@@@Z @379
??0QSharedData@@QAE@ABV0@@Z @380
??0QSharedData@@QAE@XZ @381
??0QSharedMemory@@QAE@ABVQString@@PAVQObject@@@Z @382
??0QSharedMemory@@QAE@PAVQObject@@@Z @383
??0QSignalMapper@@QAE@PAVQObject@@@Z @384
??0QSignalTransition@@QAE@PAVQState@@@Z @385
??0QSignalTransition@@QAE@PBVQObject@@PBDPAVQState@@@Z @386
??0QSize@@QAE@HH@Z @387
??0QSize@@QAE@XZ @388
??0QSizeF@@QAE@ABVQSize@@@Z @389
??0QSizeF@@QAE@NN@Z @390
??0QSizeF@@QAE@XZ @391
??0QSocketNotifier@@QAE@HW4Type@0@PAVQObject@@@Z @392
??0QSortFilterProxyModel@@QAE@PAVQObject@@@Z @393
??0QState@@IAE@AAVQStatePrivate@@PAV0@@Z @394
??0QState@@QAE@PAV0@@Z @395
??0QState@@QAE@W4ChildMode@0@PAV0@@Z @396
??0QStateMachine@@IAE@AAVQStateMachinePrivate@@PAVQObject@@@Z @397
??0QStateMachine@@QAE@PAVQObject@@@Z @398
??0QStateMachine@@QAE@W4ChildMode@QState@@PAVQObject@@@Z @399
??0QStateMachinePrivate@@QAE@XZ @400
??0QStorageInfo@@QAE@ABV0@@Z @401
??0QStorageInfo@@QAE@ABVQDir@@@Z @402
??0QStorageInfo@@QAE@ABVQString@@@Z @403
??0QStorageInfo@@QAE@XZ @404
??0QString@@QAE@$$QAV0@@Z @405
??0QString@@QAE@ABUNull@0@@Z @406
??0QString@@QAE@ABV0@@Z @407
??0QString@@QAE@ABVQByteArray@@@Z @408
??0QString@@QAE@HVQChar@@@Z @409
??0QString@@QAE@HW4Initialization@Qt@@@Z @410
??0QString@@QAE@PBD@Z @411
??0QString@@QAE@PBVQChar@@H@Z @412
??0QString@@QAE@UQStringDataPtr@@@Z @413
??0QString@@QAE@VQChar@@@Z @414
??0QString@@QAE@VQLatin1String@@@Z @415
??0QString@@QAE@XZ @416
??0QStringListModel@@QAE@ABVQStringList@@PAVQObject@@@Z @417
??0QStringListModel@@QAE@PAVQObject@@@Z @418
??0QStringMatcher@@QAE@ABV0@@Z @419
??0QStringMatcher@@QAE@ABVQString@@W4CaseSensitivity@Qt@@@Z @420
??0QStringMatcher@@QAE@PBVQChar@@HW4CaseSensitivity@Qt@@@Z @421
??0QStringMatcher@@QAE@XZ @422
??0QStringRef@@QAE@ABV0@@Z @423
??0QStringRef@@QAE@PBVQString@@@Z @424
??0QStringRef@@QAE@PBVQString@@HH@Z @425
??0QStringRef@@QAE@XZ @426
??0QSystemError@@QAE@HW4ErrorScope@0@@Z @427
??0QSystemError@@QAE@XZ @428
??0QSystemLocale@@AAE@_N@Z @429
??0QSystemLocale@@QAE@ABV0@@Z @430
??0QSystemLocale@@QAE@XZ @431
??0QSystemSemaphore@@QAE@ABVQString@@HW4AccessMode@0@@Z @432
??0QTemporaryDir@@QAE@ABVQString@@@Z @433
??0QTemporaryDir@@QAE@XZ @434
??0QTemporaryFile@@QAE@ABVQString@@@Z @435
??0QTemporaryFile@@QAE@ABVQString@@PAVQObject@@@Z @436
??0QTemporaryFile@@QAE@PAVQObject@@@Z @437
??0QTemporaryFile@@QAE@XZ @438
??0QTextBoundaryFinder@@QAE@ABV0@@Z @439
??0QTextBoundaryFinder@@QAE@W4BoundaryType@0@ABVQString@@@Z @440
??0QTextBoundaryFinder@@QAE@W4BoundaryType@0@PBVQChar@@HPAEH@Z @441
??0QTextBoundaryFinder@@QAE@XZ @442
??0QTextCodec@@IAE@XZ @443
??0QTextDecoder@@QAE@PBVQTextCodec@@@Z @444
??0QTextDecoder@@QAE@PBVQTextCodec@@V?$QFlags@W4ConversionFlag@QTextCodec@@@@@Z @445
??0QTextEncoder@@QAE@PBVQTextCodec@@@Z @446
??0QTextEncoder@@QAE@PBVQTextCodec@@V?$QFlags@W4ConversionFlag@QTextCodec@@@@@Z @447
??0QTextStream@@QAE@ABVQByteArray@@V?$QFlags@W4OpenModeFlag@QIODevice@@@@@Z @448
??0QTextStream@@QAE@PAU_iobuf@@V?$QFlags@W4OpenModeFlag@QIODevice@@@@@Z @449
??0QTextStream@@QAE@PAVQByteArray@@V?$QFlags@W4OpenModeFlag@QIODevice@@@@@Z @450
??0QTextStream@@QAE@PAVQIODevice@@@Z @451
??0QTextStream@@QAE@PAVQString@@V?$QFlags@W4OpenModeFlag@QIODevice@@@@@Z @452
??0QTextStream@@QAE@XZ @453
??0QTextStreamManipulator@@QAE@P8QTextStream@@AEXH@ZH@Z @454
??0QTextStreamManipulator@@QAE@P8QTextStream@@AEXVQChar@@@Z0@Z @455
??0QThread@@IAE@AAVQThreadPrivate@@PAVQObject@@@Z @456
??0QThread@@QAE@PAVQObject@@@Z @457
??0QThreadPool@@QAE@PAVQObject@@@Z @458
??0QThreadPoolPrivate@@QAE@XZ @459
??0QThreadStorageData@@QAE@P6AXPAX@Z@Z @460
??0QTime@@QAE@HHHH@Z @461
??0QTime@@QAE@XZ @462
??0QTimeLine@@QAE@HPAVQObject@@@Z @463
??0QTimeZone@@AAE@AAVQTimeZonePrivate@@@Z @464
??0QTimeZone@@QAE@ABV0@@Z @465
??0QTimeZone@@QAE@ABVQByteArray@@@Z @466
??0QTimeZone@@QAE@ABVQByteArray@@HABVQString@@1W4Country@QLocale@@1@Z @467
??0QTimeZone@@QAE@H@Z @468
??0QTimeZone@@QAE@XZ @469
??0QTimeZonePrivate@@QAE@ABV0@@Z @470
??0QTimeZonePrivate@@QAE@XZ @471
??0QTimer@@QAE@PAVQObject@@@Z @472
??0QTimerEvent@@QAE@ABV0@@Z @473
??0QTimerEvent@@QAE@H@Z @474
??0QTranslator@@QAE@PAVQObject@@@Z @475
??0QUnhandledException@@QAE@ABV0@@Z @476
??0QUnhandledException@@QAE@XZ @477
??0QUnifiedTimer@@AAE@XZ @478
??0QUrl@@QAE@$$QAV0@@Z @479
??0QUrl@@QAE@ABV0@@Z @480
??0QUrl@@QAE@ABVQString@@W4ParsingMode@0@@Z @481
??0QUrl@@QAE@XZ @482
??0QUrlQuery@@QAE@ABV0@@Z @483
??0QUrlQuery@@QAE@ABVQString@@@Z @484
??0QUrlQuery@@QAE@ABVQUrl@@@Z @485
??0QUrlQuery@@QAE@XZ @486
??0QUuid@@QAE@ABU_GUID@@@Z @487
??0QUuid@@QAE@ABVQByteArray@@@Z @488
??0QUuid@@QAE@ABVQString@@@Z @489
??0QUuid@@QAE@IGGEEEEEEEE@Z @490
??0QUuid@@QAE@PBD@Z @491
??0QUuid@@QAE@XZ @492
??0QVariant@@QAE@$$QAV0@@Z @493
??0QVariant@@QAE@AAVQDataStream@@@Z @494
??0QVariant@@QAE@ABV0@@Z @495
??0QVariant@@QAE@ABV?$QHash@VQString@@VQVariant@@@@@Z @496
??0QVariant@@QAE@ABV?$QList@VQVariant@@@@@Z @497
??0QVariant@@QAE@ABV?$QMap@VQString@@VQVariant@@@@@Z @498
??0QVariant@@QAE@ABVQBitArray@@@Z @499
??0QVariant@@QAE@ABVQByteArray@@@Z @500
??0QVariant@@QAE@ABVQDate@@@Z @501
??0QVariant@@QAE@ABVQDateTime@@@Z @502
??0QVariant@@QAE@ABVQEasingCurve@@@Z @503
??0QVariant@@QAE@ABVQJsonArray@@@Z @504
??0QVariant@@QAE@ABVQJsonDocument@@@Z @505
??0QVariant@@QAE@ABVQJsonObject@@@Z @506
??0QVariant@@QAE@ABVQJsonValue@@@Z @507
??0QVariant@@QAE@ABVQLine@@@Z @508
??0QVariant@@QAE@ABVQLineF@@@Z @509
??0QVariant@@QAE@ABVQLocale@@@Z @510
??0QVariant@@QAE@ABVQModelIndex@@@Z @511
??0QVariant@@QAE@ABVQPoint@@@Z @512
??0QVariant@@QAE@ABVQPointF@@@Z @513
??0QVariant@@QAE@ABVQRect@@@Z @514
??0QVariant@@QAE@ABVQRectF@@@Z @515
??0QVariant@@QAE@ABVQRegExp@@@Z @516
??0QVariant@@QAE@ABVQRegularExpression@@@Z @517
??0QVariant@@QAE@ABVQSize@@@Z @518
??0QVariant@@QAE@ABVQSizeF@@@Z @519
??0QVariant@@QAE@ABVQString@@@Z @520
??0QVariant@@QAE@ABVQStringList@@@Z @521
??0QVariant@@QAE@ABVQTime@@@Z @522
??0QVariant@@QAE@ABVQUrl@@@Z @523
??0QVariant@@QAE@ABVQUuid@@@Z @524
??0QVariant@@QAE@H@Z @525
??0QVariant@@QAE@HPBX@Z @526
??0QVariant@@QAE@HPBXI@Z @527
??0QVariant@@QAE@I@Z @528
??0QVariant@@QAE@M@Z @529
??0QVariant@@QAE@N@Z @530
??0QVariant@@QAE@PBD@Z @531
??0QVariant@@QAE@VQChar@@@Z @532
??0QVariant@@QAE@VQLatin1String@@@Z @533
??0QVariant@@QAE@W4Type@0@@Z @534
??0QVariant@@QAE@XZ @535
??0QVariant@@QAE@_J@Z @536
??0QVariant@@QAE@_K@Z @537
??0QVariant@@QAE@_N@Z @538
??0QVariantAnimation@@IAE@AAVQVariantAnimationPrivate@@PAVQObject@@@Z @539
??0QVariantAnimation@@QAE@PAVQObject@@@Z @540
??0QVersionNumber@@QAE@$$QAV?$QVector@H@@@Z @541
??0QVersionNumber@@QAE@ABV0@@Z @542
??0QVersionNumber@@QAE@ABV?$QVector@H@@@Z @543
??0QVersionNumber@@QAE@H@Z @544
??0QVersionNumber@@QAE@HH@Z @545
??0QVersionNumber@@QAE@HHH@Z @546
??0QVersionNumber@@QAE@V?$initializer_list@H@std@@@Z @547
??0QVersionNumber@@QAE@XZ @548
??0QWaitCondition@@QAE@XZ @549
??0QWinEventNotifier@@QAE@PAVQObject@@@Z @550
??0QWinEventNotifier@@QAE@PAXPAVQObject@@@Z @551
??0QWinOverlappedIoNotifier@@QAE@PAVQObject@@@Z @552
??0QWindowsPipeReader@@QAE@PAVQObject@@@Z @553
??0QWindowsPipeWriter@@QAE@PAXPAVQObject@@@Z @554
??0QWriteLocker@@QAE@PAVQReadWriteLock@@@Z @555
??0QXmlStreamAttribute@@QAE@ABV0@@Z @556
??0QXmlStreamAttribute@@QAE@ABVQString@@00@Z @557
??0QXmlStreamAttribute@@QAE@ABVQString@@0@Z @558
??0QXmlStreamAttribute@@QAE@XZ @559
??0QXmlStreamAttributes@@QAE@ABV0@@Z @560
??0QXmlStreamAttributes@@QAE@XZ @561
??0QXmlStreamEntityDeclaration@@QAE@ABV0@@Z @562
??0QXmlStreamEntityDeclaration@@QAE@XZ @563
??0QXmlStreamEntityResolver@@QAE@ABV0@@Z @564
??0QXmlStreamEntityResolver@@QAE@XZ @565
??0QXmlStreamNamespaceDeclaration@@QAE@ABV0@@Z @566
??0QXmlStreamNamespaceDeclaration@@QAE@ABVQString@@0@Z @567
??0QXmlStreamNamespaceDeclaration@@QAE@XZ @568
??0QXmlStreamNotationDeclaration@@QAE@ABV0@@Z @569
??0QXmlStreamNotationDeclaration@@QAE@XZ @570
??0QXmlStreamReader@@QAE@ABVQByteArray@@@Z @571
??0QXmlStreamReader@@QAE@ABVQString@@@Z @572
??0QXmlStreamReader@@QAE@PAVQIODevice@@@Z @573
??0QXmlStreamReader@@QAE@PBD@Z @574
??0QXmlStreamReader@@QAE@XZ @575
??0QXmlStreamStringRef@@QAE@ABV0@@Z @576
??0QXmlStreamStringRef@@QAE@ABVQString@@@Z @577
??0QXmlStreamStringRef@@QAE@ABVQStringRef@@@Z @578
??0QXmlStreamStringRef@@QAE@XZ @579
??0QXmlStreamWriter@@QAE@PAVQByteArray@@@Z @580
??0QXmlStreamWriter@@QAE@PAVQIODevice@@@Z @581
??0QXmlStreamWriter@@QAE@PAVQString@@@Z @582
??0QXmlStreamWriter@@QAE@XZ @583
??0ResultIteratorBase@QtPrivate@@QAE@Vconst_iterator@?$QMap@HVResultItem@QtPrivate@@@@H@Z @584
??0ResultIteratorBase@QtPrivate@@QAE@XZ @585
??0ResultStoreBase@QtPrivate@@QAE@ABV01@@Z @586
??0ResultStoreBase@QtPrivate@@QAE@XZ @587
??0SignalEvent@QStateMachine@@QAE@ABV01@@Z @588
??0SignalEvent@QStateMachine@@QAE@PAVQObject@@HABV?$QList@VQVariant@@@@@Z @589
??0WrappedEvent@QStateMachine@@QAE@ABV01@@Z @590
??0WrappedEvent@QStateMachine@@QAE@PAVQObject@@PAVQEvent@@@Z @591
??0const_iterator@QAssociativeIterable@@AAE@ABV1@PAVQAtomicInt@@@Z @592
??0const_iterator@QAssociativeIterable@@AAE@ABVQAssociativeIterableImpl@QtMetaTypePrivate@@PAVQAtomicInt@@@Z @593
??0const_iterator@QAssociativeIterable@@QAE@ABU01@@Z @594
??0const_iterator@QSequentialIterable@@AAE@ABV1@PAVQAtomicInt@@@Z @595
??0const_iterator@QSequentialIterable@@AAE@ABVQSequentialIterableImpl@QtMetaTypePrivate@@PAVQAtomicInt@@@Z @596
??0const_iterator@QSequentialIterable@@QAE@ABU01@@Z @597
??1?$QList@VQItemSelectionRange@@@@QAE@XZ @598
??1?$QVector@VQPoint@@@@QAE@XZ @599
??1?$QVector@VQPointF@@@@QAE@XZ @600
??1?$QVector@VQXmlStreamAttribute@@@@QAE@XZ @601
??1Connection@QMetaObject@@QAE@XZ @602
??1ConverterState@QTextCodec@@QAE@XZ @603
??1ExceptionHolder@QtPrivate@@QAE@XZ @604
??1ExceptionStore@QtPrivate@@QAE@XZ @605
??1QAbstractAnimation@@UAE@XZ @606
??1QAbstractAnimationTimer@@UAE@XZ @607
??1QAbstractDynamicMetaObject@@UAE@XZ @608
??1QAbstractEventDispatcher@@UAE@XZ @609
??1QAbstractEventDispatcherPrivate@@UAE@XZ @610
??1QAbstractFileEngine@@UAE@XZ @611
??1QAbstractFileEngineHandler@@UAE@XZ @612
??1QAbstractFileEngineIterator@@UAE@XZ @613
??1QAbstractItemModel@@UAE@XZ @614
??1QAbstractItemModelPrivate@@UAE@XZ @615
??1QAbstractListModel@@UAE@XZ @616
??1QAbstractNativeEventFilter@@UAE@XZ @617
??1QAbstractProxyModel@@UAE@XZ @618
??1QAbstractProxyModelPrivate@@UAE@XZ @619
??1QAbstractState@@UAE@XZ @620
??1QAbstractTableModel@@UAE@XZ @621
??1QAbstractTransition@@UAE@XZ @622
??1QAbstractTransitionPrivate@@UAE@XZ @623
??1QAnimationDriver@@UAE@XZ @624
??1QAnimationDriverPrivate@@UAE@XZ @625
??1QAnimationGroup@@UAE@XZ @626
??1QBasicTimer@@QAE@XZ @627
??1QBitArray@@QAE@XZ @628
??1QBuffer@@UAE@XZ @629
??1QByteArray@@QAE@XZ @630
??1QByteArrayMatcher@@QAE@XZ @631
??1QChildEvent@@UAE@XZ @632
??1QCollator@@QAE@XZ @633
??1QCollatorPrivate@@QAE@XZ @634
??1QCollatorSortKey@@QAE@XZ @635
??1QCollatorSortKeyPrivate@@QAE@XZ @636
??1QCommandLineOption@@QAE@XZ @637
??1QCommandLineParser@@QAE@XZ @638
??1QCoreApplication@@UAE@XZ @639
??1QCoreApplicationPrivate@@UAE@XZ @640
??1QCryptographicHash@@QAE@XZ @641
??1QDataStream@@QAE@XZ @642
??1QDateTime@@QAE@XZ @643
??1QDateTimeParser@@UAE@XZ @644
??1QDebug@@QAE@XZ @645
??1QDebugStateSaver@@QAE@XZ @646
??1QDeferredDeleteEvent@@UAE@XZ @647
??1QDir@@QAE@XZ @648
??1QDirIterator@@QAE@XZ @649
??1QDynamicMetaObjectData@@UAE@XZ @650
??1QDynamicPropertyChangeEvent@@UAE@XZ @651
??1QEasingCurve@@QAE@XZ @652
??1QEvent@@UAE@XZ @653
??1QEventDispatcherWin32@@UAE@XZ @654
??1QEventDispatcherWin32Private@@UAE@XZ @655
??1QEventLoop@@UAE@XZ @656
??1QEventLoopLocker@@QAE@XZ @657
??1QEventTransition@@UAE@XZ @658
??1QEventTransitionPrivate@@UAE@XZ @659
??1QException@@UAE@XZ @660
??1QFSFileEngine@@UAE@XZ @661
??1QFactoryInterface@@UAE@XZ @662
??1QFactoryLoader@@UAE@XZ @663
??1QFile@@UAE@XZ @664
??1QFileDevice@@UAE@XZ @665
??1QFileInfo@@QAE@XZ @666
??1QFileSelector@@UAE@XZ @667
??1QFileSelectorPrivate@@UAE@XZ @668
??1QFileSystemWatcher@@UAE@XZ @669
??1QFinalState@@UAE@XZ @670
??1QFutureInterfaceBase@@UAE@XZ @671
??1QFutureWatcherBase@@UAE@XZ @672
??1QHistoryState@@UAE@XZ @673
??1QIODevice@@UAE@XZ @674
??1QIODevicePrivate@@UAE@XZ @675
??1QIdentityProxyModel@@UAE@XZ @676
??1QItemSelection@@QAE@XZ @677
??1QItemSelectionModel@@UAE@XZ @678
??1QItemSelectionRange@@QAE@XZ @679
??1QJsonArray@@QAE@XZ @680
??1QJsonDocument@@QAE@XZ @681
??1QJsonObject@@QAE@XZ @682
??1QJsonValue@@QAE@XZ @683
??1QLibrary@@UAE@XZ @684
??1QLocale@@QAE@XZ @685
??1QLockFile@@QAE@XZ @686
??1QLoggingCategory@@QAE@XZ @687
??1QMessageAuthenticationCode@@QAE@XZ @688
??1QMetaCallEvent@@UAE@XZ @689
??1QMetaObjectBuilder@@UAE@XZ @690
??1QMetaStringTable@@QAE@XZ @691
??1QMetaType@@QAE@XZ @692
??1QMimeData@@UAE@XZ @693
??1QMimeDatabase@@QAE@XZ @694
??1QMimeType@@QAE@XZ @695
??1QMutex@@QAE@XZ @696
??1QMutexLocker@@QAE@XZ @697
??1QMutexPool@@QAE@XZ @698
??1QNonContiguousByteDevice@@UAE@XZ @699
??1QObject@@UAE@XZ @700
??1QObjectCleanupHandler@@UAE@XZ @701
??1QObjectData@@UAE@XZ @702
??1QObjectPrivate@@UAE@XZ @703
??1QObjectUserData@@UAE@XZ @704
??1QParallelAnimationGroup@@UAE@XZ @705
??1QPauseAnimation@@UAE@XZ @706
??1QPersistentModelIndex@@QAE@XZ @707
??1QPluginLoader@@UAE@XZ @708
??1QProcess@@UAE@XZ @709
??1QProcessEnvironment@@QAE@XZ @710
??1QPropertyAnimation@@UAE@XZ @711
??1QReadLocker@@QAE@XZ @712
??1QReadWriteLock@@QAE@XZ @713
??1QRegExp@@QAE@XZ @714
??1QRegularExpression@@QAE@XZ @715
??1QRegularExpressionMatch@@QAE@XZ @716
??1QRegularExpressionMatchIterator@@QAE@XZ @717
??1QResource@@QAE@XZ @718
??1QSaveFile@@UAE@XZ @719
??1QSemaphore@@QAE@XZ @720
??1QSequentialAnimationGroup@@UAE@XZ @721
??1QSettings@@UAE@XZ @722
??1QSharedMemory@@UAE@XZ @723
??1QSignalMapper@@UAE@XZ @724
??1QSignalTransition@@UAE@XZ @725
??1QSocketNotifier@@UAE@XZ @726
??1QSortFilterProxyModel@@UAE@XZ @727
??1QState@@UAE@XZ @728
??1QStateMachine@@UAE@XZ @729
??1QStateMachinePrivate@@UAE@XZ @730
??1QStorageInfo@@QAE@XZ @731
??1QString@@QAE@XZ @732
??1QStringListModel@@UAE@XZ @733
??1QStringMatcher@@QAE@XZ @734
??1QStringRef@@QAE@XZ @735
??1QSystemLocale@@UAE@XZ @736
??1QSystemSemaphore@@QAE@XZ @737
??1QTemporaryDir@@QAE@XZ @738
??1QTemporaryFile@@UAE@XZ @739
??1QTextBoundaryFinder@@QAE@XZ @740
??1QTextCodec@@MAE@XZ @741
??1QTextDecoder@@QAE@XZ @742
??1QTextEncoder@@QAE@XZ @743
??1QTextStream@@UAE@XZ @744
??1QThread@@UAE@XZ @745
??1QThreadPool@@UAE@XZ @746
??1QThreadPoolPrivate@@UAE@XZ @747
??1QThreadStorageData@@QAE@XZ @748
??1QTimeLine@@UAE@XZ @749
??1QTimeZone@@QAE@XZ @750
??1QTimeZonePrivate@@UAE@XZ @751
??1QTimer@@UAE@XZ @752
??1QTimerEvent@@UAE@XZ @753
??1QTranslator@@UAE@XZ @754
??1QUnhandledException@@UAE@XZ @755
??1QUnifiedTimer@@UAE@XZ @756
??1QUrl@@QAE@XZ @757
??1QUrlQuery@@QAE@XZ @758
??1QVariant@@QAE@XZ @759
??1QVariantAnimation@@UAE@XZ @760
??1QVersionNumber@@QAE@XZ @761
??1QWaitCondition@@QAE@XZ @762
??1QWinEventNotifier@@UAE@XZ @763
??1QWinOverlappedIoNotifier@@UAE@XZ @764
??1QWindowsPipeReader@@UAE@XZ @765
??1QWindowsPipeWriter@@UAE@XZ @766
??1QWriteLocker@@QAE@XZ @767
??1QXmlStreamAttribute@@QAE@XZ @768
??1QXmlStreamAttributes@@QAE@XZ @769
??1QXmlStreamEntityDeclaration@@QAE@XZ @770
??1QXmlStreamEntityResolver@@UAE@XZ @771
??1QXmlStreamNamespaceDeclaration@@QAE@XZ @772
??1QXmlStreamNotationDeclaration@@QAE@XZ @773
??1QXmlStreamReader@@QAE@XZ @774
??1QXmlStreamStringRef@@QAE@XZ @775
??1QXmlStreamWriter@@QAE@XZ @776
??1ResultStoreBase@QtPrivate@@UAE@XZ @777
??1SignalEvent@QStateMachine@@UAE@XZ @778
??1WrappedEvent@QStateMachine@@UAE@XZ @779
??1const_iterator@QAssociativeIterable@@QAE@XZ @780
??1const_iterator@QSequentialIterable@@QAE@XZ @781
??4?$QList@VQItemSelectionRange@@@@QAEAAV0@$$QAV0@@Z @782
??4?$QList@VQItemSelectionRange@@@@QAEAAV0@ABV0@@Z @783
??4?$QListSpecialMethods@VQItemSelectionRange@@@@QAEAAU0@ABU0@@Z @784
??4?$QVector@VQPoint@@@@QAE?AV0@$$QAV0@@Z @785
??4?$QVector@VQPoint@@@@QAEAAV0@ABV0@@Z @786
??4?$QVector@VQPointF@@@@QAE?AV0@$$QAV0@@Z @787
??4?$QVector@VQPointF@@@@QAEAAV0@ABV0@@Z @788
??4?$QVector@VQXmlStreamAttribute@@@@QAE?AV0@$$QAV0@@Z @789
??4?$QVector@VQXmlStreamAttribute@@@@QAEAAV0@ABV0@@Z @790
??4Connection@QMetaObject@@QAEAAV01@$$QAV01@@Z @791
??4Connection@QMetaObject@@QAEAAV01@ABV01@@Z @792
??4ExceptionHolder@QtPrivate@@QAEXABV01@@Z @793
??4ExceptionStore@QtPrivate@@QAEAAV01@ABV01@@Z @794
??4QAbstractConcatenable@@QAEAAU0@ABU0@@Z @795
??4QAbstractDeclarativeData@@QAEAAV0@ABV0@@Z @796
??4QAbstractDynamicMetaObject@@QAEAAU0@ABU0@@Z @797
??4QAbstractEventDispatcherPrivate@@QAEAAV0@ABV0@@Z @798
??4QAbstractFileEngineHandler@@QAEAAV0@ABV0@@Z @799
??4QAbstractItemModelPrivate@@QAEAAV0@ABV0@@Z @800
??4QAbstractProxyModelPrivate@@QAEAAV0@ABV0@@Z @801
??4QAbstractTransitionPrivate@@QAEAAV0@ABV0@@Z @802
??4QAnimationDriverPrivate@@QAEAAV0@ABV0@@Z @803
??4QArrayData@@QAEAAU0@ABU0@@Z @804
??4QAssociativeIterable@@QAEAAV0@ABV0@@Z @805
??4QBasicMutex@@QAEAAV0@ABV0@@Z @806
??4QBasicTimer@@QAEAAV0@ABV0@@Z @807
??4QBitArray@@QAEAAV0@$$QAV0@@Z @808
??4QBitArray@@QAEAAV0@ABV0@@Z @809
??4QBitRef@@QAEAAV0@ABV0@@Z @810
??4QBitRef@@QAEAAV0@_N@Z @811
??4QByteArray@@QAEAAV0@$$QAV0@@Z @812
??4QByteArray@@QAEAAV0@ABV0@@Z @813
??4QByteArray@@QAEAAV0@PBD@Z @814
??4QByteArrayMatcher@@QAEAAV0@ABV0@@Z @815
??4QByteRef@@QAEAAV0@ABV0@@Z @816
??4QByteRef@@QAEAAV0@D@Z @817
??4QChar@@QAEAAV0@ABV0@@Z @818
??4QCharRef@@QAEAAV0@ABV0@@Z @819
??4QCharRef@@QAEAAV0@D@Z @820
??4QCharRef@@QAEAAV0@E@Z @821
??4QCharRef@@QAEAAV0@F@Z @822
??4QCharRef@@QAEAAV0@G@Z @823
??4QCharRef@@QAEAAV0@H@Z @824
??4QCharRef@@QAEAAV0@I@Z @825
??4QCharRef@@QAEAAV0@VQChar@@@Z @826
??4QChildEvent@@QAEAAV0@ABV0@@Z @827
??4QCollator@@QAEAAV0@$$QAV0@@Z @828
??4QCollator@@QAEAAV0@ABV0@@Z @829
??4QCollatorSortKey@@QAEAAV0@$$QAV0@@Z @830
??4QCollatorSortKey@@QAEAAV0@ABV0@@Z @831
??4QCommandLineOption@@QAEAAV0@$$QAV0@@Z @832
??4QCommandLineOption@@QAEAAV0@ABV0@@Z @833
??4QContainerImplHelper@QtPrivate@@QAEAAU01@ABU01@@Z @834
??4QContiguousCacheData@@QAEAAU0@ABU0@@Z @835
??4QDate@@QAEAAV0@ABV0@@Z @836
??4QDateTime@@QAEAAV0@ABV0@@Z @837
??4QDateTimeParser@@QAEAAV0@ABV0@@Z @838
??4QDebug@@QAEAAV0@ABV0@@Z @839
??4QDeferredDeleteEvent@@QAEAAV0@ABV0@@Z @840
??4QDir@@QAEAAV0@$$QAV0@@Z @841
??4QDir@@QAEAAV0@ABV0@@Z @842
??4QDir@@QAEAAV0@ABVQString@@@Z @843
??4QDynamicMetaObjectData@@QAEAAU0@ABU0@@Z @844
??4QDynamicPropertyChangeEvent@@QAEAAV0@ABV0@@Z @845
??4QEasingCurve@@QAEAAV0@$$QAV0@@Z @846
??4QEasingCurve@@QAEAAV0@ABV0@@Z @847
??4QElapsedTimer@@QAEAAV0@ABV0@@Z @848
??4QEvent@@QAEAAV0@ABV0@@Z @849
??4QEventDispatcherWin32Private@@QAEAAV0@ABV0@@Z @850
??4QEventTransitionPrivate@@QAEAAV0@ABV0@@Z @851
??4QException@@QAEAAV0@ABV0@@Z @852
??4QFactoryInterface@@QAEAAU0@ABU0@@Z @853
??4QFileInfo@@QAEAAV0@$$QAV0@@Z @854
??4QFileInfo@@QAEAAV0@ABV0@@Z @855
??4QFileSelectorPrivate@@QAEAAV0@ABV0@@Z @856
??4QFutureInterfaceBase@@QAEAAV0@ABV0@@Z @857
??4QGenericArgument@@QAEAAV0@ABV0@@Z @858
??4QGenericReturnArgument@@QAEAAV0@ABV0@@Z @859
??4QHashData@@QAEAAU0@ABU0@@Z @860
??4QIODevicePrivate@@QAEAAV0@ABV0@@Z @861
??4QInternal@@QAEAAV0@ABV0@@Z @862
??4QItemSelection@@QAEAAV0@ABV0@@Z @863
??4QItemSelectionRange@@QAEAAV0@ABV0@@Z @864
??4QJsonArray@@QAEAAV0@ABV0@@Z @865
??4QJsonDocument@@QAEAAV0@ABV0@@Z @866
??4QJsonObject@@QAEAAV0@ABV0@@Z @867
??4QJsonParseError@@QAEAAU0@ABU0@@Z @868
??4QJsonValue@@QAEAAV0@ABV0@@Z @869
??4QJsonValueRef@@QAEAAV0@ABV0@@Z @870
??4QJsonValueRef@@QAEAAV0@ABVQJsonValue@@@Z @871
??4QLibraryInfo@@QAEAAV0@ABV0@@Z @872
??4QLine@@QAEAAV0@ABV0@@Z @873
??4QLineF@@QAEAAV0@ABV0@@Z @874
??4QLinkedListData@@QAEAAU0@ABU0@@Z @875
??4QListData@@QAEAAU0@ABU0@@Z @876
??4QLocale@@QAEAAV0@ABV0@@Z @877
??4QLocalePrivate@@QAEAAV0@ABV0@@Z @878
??4QMapDataBase@@QAEAAU0@ABU0@@Z @879
??4QMapNodeBase@@QAEAAU0@ABU0@@Z @880
??4QMetaCallEvent@@QAEAAV0@ABV0@@Z @881
??4QMetaClassInfo@@QAEAAV0@ABV0@@Z @882
??4QMetaEnum@@QAEAAV0@ABV0@@Z @883
??4QMetaEnumBuilder@@QAEAAV0@ABV0@@Z @884
??4QMetaMethod@@QAEAAV0@ABV0@@Z @885
??4QMetaMethodBuilder@@QAEAAV0@ABV0@@Z @886
??4QMetaObject@@QAEAAU0@ABU0@@Z @887
??4QMetaProperty@@QAEAAV0@ABV0@@Z @888
??4QMetaPropertyBuilder@@QAEAAV0@ABV0@@Z @889
??4QMetaStringTable@@QAEAAV0@ABV0@@Z @890
??4QMetaType@@AAEAAV0@ABV0@@Z @891
??4QMimeType@@QAEAAV0@$$QAV0@@Z @892
??4QMimeType@@QAEAAV0@ABV0@@Z @893
??4QModelIndex@@QAEAAV0@ABV0@@Z @894
??4QMutexPool@@QAEAAV0@ABV0@@Z @895
??4QNonContiguousByteDeviceFactory@@QAEAAV0@ABV0@@Z @896
??4QObjectData@@QAEAAV0@ABV0@@Z @897
??4QObjectPrivate@@QAEAAV0@ABV0@@Z @898
??4QObjectUserData@@QAEAAV0@ABV0@@Z @899
??4QPersistentModelIndex@@QAEAAV0@$$QAV0@@Z @900
??4QPersistentModelIndex@@QAEAAV0@ABV0@@Z @901
??4QPersistentModelIndex@@QAEAAV0@ABVQModelIndex@@@Z @902
??4QPoint@@QAEAAV0@ABV0@@Z @903
??4QPointF@@QAEAAV0@ABV0@@Z @904
??4QProcessEnvironment@@QAEAAV0@ABV0@@Z @905
??4QRect@@QAEAAV0@ABV0@@Z @906
??4QRectF@@QAEAAV0@ABV0@@Z @907
??4QRegExp@@QAEAAV0@$$QAV0@@Z @908
??4QRegExp@@QAEAAV0@ABV0@@Z @909
??4QRegularExpression@@QAEAAV0@$$QAV0@@Z @910
??4QRegularExpression@@QAEAAV0@ABV0@@Z @911
??4QRegularExpressionMatch@@QAEAAV0@$$QAV0@@Z @912
??4QRegularExpressionMatch@@QAEAAV0@ABV0@@Z @913
??4QRegularExpressionMatchIterator@@QAEAAV0@$$QAV0@@Z @914
??4QRegularExpressionMatchIterator@@QAEAAV0@ABV0@@Z @915
??4QSequentialIterable@@QAEAAV0@ABV0@@Z @916
??4QSize@@QAEAAV0@ABV0@@Z @917
??4QSizeF@@QAEAAV0@ABV0@@Z @918
??4QStandardPaths@@QAEAAV0@ABV0@@Z @919
??4QStaticPlugin@@QAEAAU0@ABU0@@Z @920
??4QStorageInfo@@QAEAAV0@$$QAV0@@Z @921
??4QStorageInfo@@QAEAAV0@ABV0@@Z @922
??4QString@@QAEAAV0@$$QAV0@@Z @923
??4QString@@QAEAAV0@ABUNull@0@@Z @924
??4QString@@QAEAAV0@ABV0@@Z @925
??4QString@@QAEAAV0@ABVQByteArray@@@Z @926
??4QString@@QAEAAV0@D@Z @927
??4QString@@QAEAAV0@PBD@Z @928
??4QString@@QAEAAV0@VQChar@@@Z @929
??4QString@@QAEAAV0@VQLatin1String@@@Z @930
??4QStringMatcher@@QAEAAV0@ABV0@@Z @931
??4QStringRef@@QAEAAV0@ABV0@@Z @932
??4QStringRef@@QAEAAV0@PBVQString@@@Z @933
??4QSysInfo@@QAEAAV0@ABV0@@Z @934
??4QSystemError@@QAEAAV0@ABV0@@Z @935
??4QSystemLocale@@QAEAAV0@ABV0@@Z @936
??4QTextBoundaryFinder@@QAEAAV0@ABV0@@Z @937
??4QTextStreamManipulator@@QAEAAV0@ABV0@@Z @938
??4QThreadStorageData@@QAEAAV0@ABV0@@Z @939
??4QTime@@QAEAAV0@ABV0@@Z @940
??4QTimeZone@@QAEAAV0@$$QAV0@@Z @941
??4QTimeZone@@QAEAAV0@ABV0@@Z @942
??4QTimerEvent@@QAEAAV0@ABV0@@Z @943
??4QUnhandledException@@QAEAAV0@ABV0@@Z @944
??4QUrl@@QAEAAV0@$$QAV0@@Z @945
??4QUrl@@QAEAAV0@ABV0@@Z @946
??4QUrl@@QAEAAV0@ABVQString@@@Z @947
??4QUrlQuery@@QAEAAV0@$$QAV0@@Z @948
??4QUrlQuery@@QAEAAV0@ABV0@@Z @949
??4QUuid@@QAEAAV0@ABU_GUID@@@Z @950
??4QUuid@@QAEAAV0@ABV0@@Z @951
??4QVariant@@QAEAAV0@$$QAV0@@Z @952
??4QVariant@@QAEAAV0@ABV0@@Z @953
??4QVersionNumber@@QAEAAV0@ABV0@@Z @954
??4QXmlStreamAttribute@@QAEAAV0@ABV0@@Z @955
??4QXmlStreamAttributes@@QAEAAV0@ABV0@@Z @956
??4QXmlStreamEntityDeclaration@@QAEAAV0@ABV0@@Z @957
??4QXmlStreamEntityResolver@@QAEAAV0@ABV0@@Z @958
??4QXmlStreamNamespaceDeclaration@@QAEAAV0@ABV0@@Z @959
??4QXmlStreamNotationDeclaration@@QAEAAV0@ABV0@@Z @960
??4QXmlStreamStringRef@@QAEAAV0@ABV0@@Z @961
??4QXmlUtils@@QAEAAV0@ABV0@@Z @962
??4ResultIteratorBase@QtPrivate@@QAEAAV01@ABV01@@Z @963
??4ResultStoreBase@QtPrivate@@QAEAAV01@ABV01@@Z @964
??4SignalEvent@QStateMachine@@QAEAAV01@ABV01@@Z @965
??4VectorBoolElements@QtMetaTypePrivate@@QAEAAU01@ABU01@@Z @966
??4WrappedEvent@QStateMachine@@QAEAAV01@ABV01@@Z @967
??4const_iterator@QAssociativeIterable@@QAEAAU01@ABU01@@Z @968
??4const_iterator@QSequentialIterable@@QAEAAU01@ABU01@@Z @969
??5@YAAAVQDataStream@@AAV0@AAVQBitArray@@@Z @970
??5@YAAAVQDataStream@@AAV0@AAVQByteArray@@@Z @971
??5@YAAAVQDataStream@@AAV0@AAVQChar@@@Z @972
??5@YAAAVQDataStream@@AAV0@AAVQDate@@@Z @973
??5@YAAAVQDataStream@@AAV0@AAVQDateTime@@@Z @974
??5@YAAAVQDataStream@@AAV0@AAVQEasingCurve@@@Z @975
??5@YAAAVQDataStream@@AAV0@AAVQLine@@@Z @976
??5@YAAAVQDataStream@@AAV0@AAVQLineF@@@Z @977
??5@YAAAVQDataStream@@AAV0@AAVQLocale@@@Z @978
??5@YAAAVQDataStream@@AAV0@AAVQMargins@@@Z @979
??5@YAAAVQDataStream@@AAV0@AAVQMarginsF@@@Z @980
??5@YAAAVQDataStream@@AAV0@AAVQPoint@@@Z @981
??5@YAAAVQDataStream@@AAV0@AAVQPointF@@@Z @982
??5@YAAAVQDataStream@@AAV0@AAVQRect@@@Z @983
??5@YAAAVQDataStream@@AAV0@AAVQRectF@@@Z @984
??5@YAAAVQDataStream@@AAV0@AAVQRegExp@@@Z @985
??5@YAAAVQDataStream@@AAV0@AAVQRegularExpression@@@Z @986
??5@YAAAVQDataStream@@AAV0@AAVQSize@@@Z @987
??5@YAAAVQDataStream@@AAV0@AAVQSizeF@@@Z @988
??5@YAAAVQDataStream@@AAV0@AAVQString@@@Z @989
??5@YAAAVQDataStream@@AAV0@AAVQTime@@@Z @990
??5@YAAAVQDataStream@@AAV0@AAVQTimeZone@@@Z @991
??5@YAAAVQDataStream@@AAV0@AAVQUrl@@@Z @992
??5@YAAAVQDataStream@@AAV0@AAVQUuid@@@Z @993
??5@YAAAVQDataStream@@AAV0@AAVQVariant@@@Z @994
??5@YAAAVQDataStream@@AAV0@AAVQVersionNumber@@@Z @995
??5@YAAAVQDataStream@@AAV0@AAW4Type@QVariant@@@Z @996
??5QDataStream@@QAEAAV0@AAC@Z @997
??5QDataStream@@QAEAAV0@AAE@Z @998
??5QDataStream@@QAEAAV0@AAF@Z @999
??5QDataStream@@QAEAAV0@AAG@Z @1000
??5QDataStream@@QAEAAV0@AAH@Z @1001
??5QDataStream@@QAEAAV0@AAI@Z @1002
??5QDataStream@@QAEAAV0@AAM@Z @1003
??5QDataStream@@QAEAAV0@AAN@Z @1004
??5QDataStream@@QAEAAV0@AAPAD@Z @1005
??5QDataStream@@QAEAAV0@AA_J@Z @1006
??5QDataStream@@QAEAAV0@AA_K@Z @1007
??5QDataStream@@QAEAAV0@AA_N@Z @1008
??5QTextStream@@QAEAAV0@AAD@Z @1009
??5QTextStream@@QAEAAV0@AAF@Z @1010
??5QTextStream@@QAEAAV0@AAG@Z @1011
??5QTextStream@@QAEAAV0@AAH@Z @1012
??5QTextStream@@QAEAAV0@AAI@Z @1013
??5QTextStream@@QAEAAV0@AAJ@Z @1014
??5QTextStream@@QAEAAV0@AAK@Z @1015
??5QTextStream@@QAEAAV0@AAM@Z @1016
??5QTextStream@@QAEAAV0@AAN@Z @1017
??5QTextStream@@QAEAAV0@AAVQByteArray@@@Z @1018
??5QTextStream@@QAEAAV0@AAVQChar@@@Z @1019
??5QTextStream@@QAEAAV0@AAVQString@@@Z @1020
??5QTextStream@@QAEAAV0@AA_J@Z @1021
??5QTextStream@@QAEAAV0@AA_K@Z @1022
??5QTextStream@@QAEAAV0@PAD@Z @1023
??6?$QList@VQItemSelectionRange@@@@QAEAAV0@ABV0@@Z @1024
??6?$QList@VQItemSelectionRange@@@@QAEAAV0@ABVQItemSelectionRange@@@Z @1025
??6?$QVector@VQPoint@@@@QAEAAV0@ABV0@@Z @1026
??6?$QVector@VQPoint@@@@QAEAAV0@ABVQPoint@@@Z @1027
??6?$QVector@VQPointF@@@@QAEAAV0@ABV0@@Z @1028
??6?$QVector@VQPointF@@@@QAEAAV0@ABVQPointF@@@Z @1029
??6?$QVector@VQXmlStreamAttribute@@@@QAEAAV0@ABV0@@Z @1030
??6?$QVector@VQXmlStreamAttribute@@@@QAEAAV0@ABVQXmlStreamAttribute@@@Z @1031
??6@YA?AVQDebug@@V0@ABUtagMSG@@@Z @1032
??6@YA?AVQDebug@@V0@ABVQBitArray@@@Z @1033
??6@YA?AVQDebug@@V0@ABVQDate@@@Z @1034
??6@YA?AVQDebug@@V0@ABVQDateTime@@@Z @1035
??6@YA?AVQDebug@@V0@ABVQDir@@@Z @1036
??6@YA?AVQDebug@@V0@ABVQEasingCurve@@@Z @1037
??6@YA?AVQDebug@@V0@ABVQItemSelectionRange@@@Z @1038
??6@YA?AVQDebug@@V0@ABVQJsonArray@@@Z @1039
??6@YA?AVQDebug@@V0@ABVQJsonDocument@@@Z @1040
??6@YA?AVQDebug@@V0@ABVQJsonObject@@@Z @1041
??6@YA?AVQDebug@@V0@ABVQJsonValue@@@Z @1042
??6@YA?AVQDebug@@V0@ABVQLine@@@Z @1043
??6@YA?AVQDebug@@V0@ABVQLineF@@@Z @1044
??6@YA?AVQDebug@@V0@ABVQLocale@@@Z @1045
??6@YA?AVQDebug@@V0@ABVQMargins@@@Z @1046
??6@YA?AVQDebug@@V0@ABVQMarginsF@@@Z @1047
??6@YA?AVQDebug@@V0@ABVQMimeType@@@Z @1048
??6@YA?AVQDebug@@V0@ABVQModelIndex@@@Z @1049
??6@YA?AVQDebug@@V0@ABVQPersistentModelIndex@@@Z @1050
??6@YA?AVQDebug@@V0@ABVQPoint@@@Z @1051
??6@YA?AVQDebug@@V0@ABVQPointF@@@Z @1052
??6@YA?AVQDebug@@V0@ABVQRect@@@Z @1053
??6@YA?AVQDebug@@V0@ABVQRectF@@@Z @1054
??6@YA?AVQDebug@@V0@ABVQRegExp@@@Z @1055
??6@YA?AVQDebug@@V0@ABVQRegularExpression@@@Z @1056
??6@YA?AVQDebug@@V0@ABVQRegularExpressionMatch@@@Z @1057
??6@YA?AVQDebug@@V0@ABVQSize@@@Z @1058
??6@YA?AVQDebug@@V0@ABVQSizeF@@@Z @1059
??6@YA?AVQDebug@@V0@ABVQTime@@@Z @1060
??6@YA?AVQDebug@@V0@ABVQTimeZone@@@Z @1061
??6@YA?AVQDebug@@V0@ABVQUrl@@@Z @1062
??6@YA?AVQDebug@@V0@ABVQUuid@@@Z @1063
??6@YA?AVQDebug@@V0@ABVQVariant@@@Z @1064
??6@YA?AVQDebug@@V0@ABVQVersionNumber@@@Z @1065
??6@YA?AVQDebug@@V0@PBVQObject@@@Z @1066
??6@YA?AVQDebug@@V0@V?$QFlags@W4Filter@QDir@@@@@Z @1067
??6@YA?AVQDebug@@V0@V?$QFlags@W4OpenModeFlag@QIODevice@@@@@Z @1068
??6@YA?AVQDebug@@V0@V?$QFlags@W4PatternOption@QRegularExpression@@@@@Z @1069
??6@YA?AVQDebug@@V0@W4Type@QVariant@@@Z @1070
??6@YAAAVQDataStream@@AAV0@ABVQBitArray@@@Z @1071
??6@YAAAVQDataStream@@AAV0@ABVQByteArray@@@Z @1072
??6@YAAAVQDataStream@@AAV0@ABVQDate@@@Z @1073
??6@YAAAVQDataStream@@AAV0@ABVQDateTime@@@Z @1074
??6@YAAAVQDataStream@@AAV0@ABVQEasingCurve@@@Z @1075
??6@YAAAVQDataStream@@AAV0@ABVQLine@@@Z @1076
??6@YAAAVQDataStream@@AAV0@ABVQLineF@@@Z @1077
??6@YAAAVQDataStream@@AAV0@ABVQLocale@@@Z @1078
??6@YAAAVQDataStream@@AAV0@ABVQMargins@@@Z @1079
??6@YAAAVQDataStream@@AAV0@ABVQMarginsF@@@Z @1080
??6@YAAAVQDataStream@@AAV0@ABVQPoint@@@Z @1081
??6@YAAAVQDataStream@@AAV0@ABVQPointF@@@Z @1082
??6@YAAAVQDataStream@@AAV0@ABVQRect@@@Z @1083
??6@YAAAVQDataStream@@AAV0@ABVQRectF@@@Z @1084
??6@YAAAVQDataStream@@AAV0@ABVQRegExp@@@Z @1085
??6@YAAAVQDataStream@@AAV0@ABVQRegularExpression@@@Z @1086
??6@YAAAVQDataStream@@AAV0@ABVQSize@@@Z @1087
??6@YAAAVQDataStream@@AAV0@ABVQSizeF@@@Z @1088
??6@YAAAVQDataStream@@AAV0@ABVQString@@@Z @1089
??6@YAAAVQDataStream@@AAV0@ABVQTime@@@Z @1090
??6@YAAAVQDataStream@@AAV0@ABVQTimeZone@@@Z @1091
??6@YAAAVQDataStream@@AAV0@ABVQUrl@@@Z @1092
??6@YAAAVQDataStream@@AAV0@ABVQUuid@@@Z @1093
??6@YAAAVQDataStream@@AAV0@ABVQVariant@@@Z @1094
??6@YAAAVQDataStream@@AAV0@ABVQVersionNumber@@@Z @1095
??6@YAAAVQDataStream@@AAV0@VQChar@@@Z @1096
??6@YAAAVQDataStream@@AAV0@W4Type@QVariant@@@Z @1097
??6QDataStream@@QAEAAV0@C@Z @1098
??6QDataStream@@QAEAAV0@E@Z @1099
??6QDataStream@@QAEAAV0@F@Z @1100
??6QDataStream@@QAEAAV0@G@Z @1101
??6QDataStream@@QAEAAV0@H@Z @1102
??6QDataStream@@QAEAAV0@I@Z @1103
??6QDataStream@@QAEAAV0@M@Z @1104
??6QDataStream@@QAEAAV0@N@Z @1105
??6QDataStream@@QAEAAV0@PBD@Z @1106
??6QDataStream@@QAEAAV0@_J@Z @1107
??6QDataStream@@QAEAAV0@_K@Z @1108
??6QDataStream@@QAEAAV0@_N@Z @1109
??6QDebug@@QAEAAV0@ABVQByteArray@@@Z @1110
??6QDebug@@QAEAAV0@ABVQString@@@Z @1111
??6QDebug@@QAEAAV0@ABVQStringRef@@@Z @1112
??6QDebug@@QAEAAV0@D@Z @1113
??6QDebug@@QAEAAV0@F@Z @1114
??6QDebug@@QAEAAV0@G@Z @1115
??6QDebug@@QAEAAV0@H@Z @1116
??6QDebug@@QAEAAV0@I@Z @1117
??6QDebug@@QAEAAV0@J@Z @1118
??6QDebug@@QAEAAV0@K@Z @1119
??6QDebug@@QAEAAV0@M@Z @1120
??6QDebug@@QAEAAV0@N@Z @1121
??6QDebug@@QAEAAV0@P6AAAVQTextStream@@AAV1@@Z@Z @1122
??6QDebug@@QAEAAV0@PBD@Z @1123
??6QDebug@@QAEAAV0@PBX@Z @1124
??6QDebug@@QAEAAV0@VQChar@@@Z @1125
??6QDebug@@QAEAAV0@VQLatin1String@@@Z @1126
??6QDebug@@QAEAAV0@VQTextStreamManipulator@@@Z @1127
??6QDebug@@QAEAAV0@_J@Z @1128
??6QDebug@@QAEAAV0@_K@Z @1129
??6QDebug@@QAEAAV0@_N@Z @1130
??6QJsonArray@@QAEAAV0@ABVQJsonValue@@@Z @1131
??6QTextStream@@QAEAAV0@ABVQByteArray@@@Z @1132
??6QTextStream@@QAEAAV0@ABVQString@@@Z @1133
??6QTextStream@@QAEAAV0@D@Z @1134
??6QTextStream@@QAEAAV0@F@Z @1135
??6QTextStream@@QAEAAV0@G@Z @1136
??6QTextStream@@QAEAAV0@H@Z @1137
??6QTextStream@@QAEAAV0@I@Z @1138
??6QTextStream@@QAEAAV0@J@Z @1139
??6QTextStream@@QAEAAV0@K@Z @1140
??6QTextStream@@QAEAAV0@M@Z @1141
??6QTextStream@@QAEAAV0@N@Z @1142
??6QTextStream@@QAEAAV0@PBD@Z @1143
??6QTextStream@@QAEAAV0@PBX@Z @1144
??6QTextStream@@QAEAAV0@VQChar@@@Z @1145
??6QTextStream@@QAEAAV0@VQLatin1String@@@Z @1146
??6QTextStream@@QAEAAV0@_J@Z @1147
??6QTextStream@@QAEAAV0@_K@Z @1148
??7QBitRef@@QBE_NXZ @1149
??8?$QList@VQItemSelectionRange@@@@QBE_NABV0@@Z @1150
??8?$QVector@VQPoint@@@@QBE_NABV0@@Z @1151
??8?$QVector@VQPointF@@@@QBE_NABV0@@Z @1152
??8?$QVector@VQXmlStreamAttribute@@@@QBE_NABV0@@Z @1153
??8@YA_NABUSectionNode@QDateTimeParser@@0@Z @1154
??8@YA_NABVQString@@0@Z @1155
??8@YA_NABVQString@@ABVQStringRef@@@Z @1156
??8@YA_NABVQStringRef@@0@Z @1157
??8@YA_NVQLatin1String@@ABVQStringRef@@@Z @1158
??8QBitArray@@QBE_NABV0@@Z @1159
??8QByteArray@@QBE_NABVQString@@@Z @1160
??8QByteRef@@QBE_ND@Z @1161
??8QDate@@QBE_NABV0@@Z @1162
??8QDateTime@@QBE_NABV0@@Z @1163
??8QDir@@QBE_NABV0@@Z @1164
??8QEasingCurve@@QBE_NABV0@@Z @1165
??8QElapsedTimer@@QBE_NABV0@@Z @1166
??8QFileInfo@@QBE_NABV0@@Z @1167
??8QFutureInterfaceBase@@QBE_NABV0@@Z @1168
??8QItemSelectionRange@@QBE_NABV0@@Z @1169
??8QJsonArray@@QBE_NABV0@@Z @1170
??8QJsonDocument@@QBE_NABV0@@Z @1171
??8QJsonObject@@QBE_NABV0@@Z @1172
??8QJsonValue@@QBE_NABV0@@Z @1173
??8QJsonValueRef@@QBE_NABVQJsonValue@@@Z @1174
??8QLine@@QBE_NABV0@@Z @1175
??8QLineF@@QBE_NABV0@@Z @1176
??8QLocale@@QBE_NABV0@@Z @1177
??8QMimeType@@QBE_NABV0@@Z @1178
??8QModelIndex@@QBE_NABV0@@Z @1179
??8QPersistentModelIndex@@QBE_NABV0@@Z @1180
??8QPersistentModelIndex@@QBE_NABVQModelIndex@@@Z @1181
??8QProcessEnvironment@@QBE_NABV0@@Z @1182
??8QRegExp@@QBE_NABV0@@Z @1183
??8QRegularExpression@@QBE_NABV0@@Z @1184
??8QString@@QBE_NABVQByteArray@@@Z @1185
??8QString@@QBE_NPBD@Z @1186
??8QString@@QBE_NVQLatin1String@@@Z @1187
??8QStringRef@@QBE_NPBD@Z @1188
??8QTime@@QBE_NABV0@@Z @1189
??8QTimeZone@@QBE_NABV0@@Z @1190
??8QTimeZonePrivate@@QBE_NABV0@@Z @1191
??8QUrl@@QBE_NABV0@@Z @1192
??8QUrlQuery@@QBE_NABV0@@Z @1193
??8QUuid@@QBE_NABU_GUID@@@Z @1194
??8QUuid@@QBE_NABV0@@Z @1195
??8QVariant@@QBE_NABV0@@Z @1196
??8QXmlStreamAttribute@@QBE_NABV0@@Z @1197
??8QXmlStreamEntityDeclaration@@QBE_NABV0@@Z @1198
??8QXmlStreamNamespaceDeclaration@@QBE_NABV0@@Z @1199
??8QXmlStreamNotationDeclaration@@QBE_NABV0@@Z @1200
??8ResultIteratorBase@QtPrivate@@QBE_NABV01@@Z @1201
??8const_iterator@QAssociativeIterable@@QBE_NABU01@@Z @1202
??8const_iterator@QSequentialIterable@@QBE_NABU01@@Z @1203
??9?$QList@VQItemSelectionRange@@@@QBE_NABV0@@Z @1204
??9?$QVector@VQPoint@@@@QBE_NABV0@@Z @1205
??9?$QVector@VQPointF@@@@QBE_NABV0@@Z @1206
??9?$QVector@VQXmlStreamAttribute@@@@QBE_NABV0@@Z @1207
??9QBitArray@@QBE_NABV0@@Z @1208
??9QByteArray@@QBE_NABVQString@@@Z @1209
??9QByteRef@@QBE_ND@Z @1210
??9QDate@@QBE_NABV0@@Z @1211
??9QDateTime@@QBE_NABV0@@Z @1212
??9QDir@@QBE_NABV0@@Z @1213
??9QEasingCurve@@QBE_NABV0@@Z @1214
??9QElapsedTimer@@QBE_NABV0@@Z @1215
??9QFileInfo@@QBE_NABV0@@Z @1216
??9QFutureInterfaceBase@@QBE_NABV0@@Z @1217
??9QItemSelectionRange@@QBE_NABV0@@Z @1218
??9QJsonArray@@QBE_NABV0@@Z @1219
??9QJsonDocument@@QBE_NABV0@@Z @1220
??9QJsonObject@@QBE_NABV0@@Z @1221
??9QJsonValue@@QBE_NABV0@@Z @1222
??9QJsonValueRef@@QBE_NABVQJsonValue@@@Z @1223
??9QLine@@QBE_NABV0@@Z @1224
??9QLineF@@QBE_NABV0@@Z @1225
??9QLocale@@QBE_NABV0@@Z @1226
??9QMimeType@@QBE_NABV0@@Z @1227
??9QModelIndex@@QBE_NABV0@@Z @1228
??9QPersistentModelIndex@@QBE_NABV0@@Z @1229
??9QPersistentModelIndex@@QBE_NABVQModelIndex@@@Z @1230
??9QProcessEnvironment@@QBE_NABV0@@Z @1231
??9QRegExp@@QBE_NABV0@@Z @1232
??9QRegularExpression@@QBE_NABV0@@Z @1233
??9QString@@QBE_NABVQByteArray@@@Z @1234
??9QString@@QBE_NPBD@Z @1235
??9QString@@QBE_NVQLatin1String@@@Z @1236
??9QStringRef@@QBE_NPBD@Z @1237
??9QTime@@QBE_NABV0@@Z @1238
??9QTimeZone@@QBE_NABV0@@Z @1239
??9QTimeZonePrivate@@QBE_NABV0@@Z @1240
??9QUrl@@QBE_NABV0@@Z @1241
??9QUrlQuery@@QBE_NABV0@@Z @1242
??9QUuid@@QBE_NABU_GUID@@@Z @1243
??9QUuid@@QBE_NABV0@@Z @1244
??9QVariant@@QBE_NABV0@@Z @1245
??9QXmlStreamAttribute@@QBE_NABV0@@Z @1246
??9QXmlStreamEntityDeclaration@@QBE_NABV0@@Z @1247
??9QXmlStreamNamespaceDeclaration@@QBE_NABV0@@Z @1248
??9QXmlStreamNotationDeclaration@@QBE_NABV0@@Z @1249
??9ResultIteratorBase@QtPrivate@@QBE_NABV01@@Z @1250
??9const_iterator@QAssociativeIterable@@QBE_NABU01@@Z @1251
??9const_iterator@QSequentialIterable@@QBE_NABU01@@Z @1252
??A?$QList@VQItemSelectionRange@@@@QAEAAVQItemSelectionRange@@H@Z @1253
??A?$QList@VQItemSelectionRange@@@@QBEABVQItemSelectionRange@@H@Z @1254
??A?$QVector@VQPoint@@@@QAEAAVQPoint@@H@Z @1255
??A?$QVector@VQPoint@@@@QBEABVQPoint@@H@Z @1256
??A?$QVector@VQPointF@@@@QAEAAVQPointF@@H@Z @1257
??A?$QVector@VQPointF@@@@QBEABVQPointF@@H@Z @1258
??A?$QVector@VQXmlStreamAttribute@@@@QAEAAVQXmlStreamAttribute@@H@Z @1259
??A?$QVector@VQXmlStreamAttribute@@@@QBEABVQXmlStreamAttribute@@H@Z @1260
??AQBitArray@@QAE?AVQBitRef@@H@Z @1261
??AQBitArray@@QAE?AVQBitRef@@I@Z @1262
??AQBitArray@@QBE_NH@Z @1263
??AQBitArray@@QBE_NI@Z @1264
??AQByteArray@@QAE?AVQByteRef@@H@Z @1265
??AQByteArray@@QAE?AVQByteRef@@I@Z @1266
??AQByteArray@@QBEDH@Z @1267
??AQByteArray@@QBEDI@Z @1268
??AQDir@@QBE?AVQString@@H@Z @1269
??AQJsonArray@@QAE?AVQJsonValueRef@@H@Z @1270
??AQJsonArray@@QBE?AVQJsonValue@@H@Z @1271
??AQJsonObject@@QAE?AVQJsonValueRef@@ABVQString@@@Z @1272
??AQJsonObject@@QBE?AVQJsonValue@@ABVQString@@@Z @1273
??AQString@@QAE?AVQCharRef@@H@Z @1274
??AQString@@QAE?AVQCharRef@@I@Z @1275
??AQString@@QBE?BVQChar@@H@Z @1276
??AQString@@QBE?BVQChar@@I@Z @1277
??BConnection@QMetaObject@@QBEPQ01@PAXXZ @1278
??BQBitRef@@QBE_NXZ @1279
??BQByteArray@@QBEPBDXZ @1280
??BQByteArray@@QBEPBXXZ @1281
??BQByteRef@@QBEDXZ @1282
??BQCharRef@@QBE?AVQChar@@XZ @1283
??BQJsonValueRef@@QBE?AVQJsonValue@@XZ @1284
??BQPersistentModelIndex@@QBEABVQModelIndex@@XZ @1285
??BQUuid@@QBE?AU_GUID@@XZ @1286
??BQXmlStreamStringRef@@QBE?AVQStringRef@@XZ @1287
??Dconst_iterator@QAssociativeIterable@@QBE?BVQVariant@@XZ @1288
??Dconst_iterator@QSequentialIterable@@QBE?BVQVariant@@XZ @1289
??EResultIteratorBase@QtPrivate@@QAE?AV01@XZ @1290
??Econst_iterator@QAssociativeIterable@@QAE?AU01@H@Z @1291
??Econst_iterator@QAssociativeIterable@@QAEAAU01@XZ @1292
??Econst_iterator@QSequentialIterable@@QAE?AU01@H@Z @1293
??Econst_iterator@QSequentialIterable@@QAEAAU01@XZ @1294
??Fconst_iterator@QAssociativeIterable@@QAE?AU01@H@Z @1295
??Fconst_iterator@QAssociativeIterable@@QAEAAU01@XZ @1296
??Fconst_iterator@QSequentialIterable@@QAE?AU01@H@Z @1297
??Fconst_iterator@QSequentialIterable@@QAEAAU01@XZ @1298
??Gconst_iterator@QAssociativeIterable@@QBE?AU01@H@Z @1299
??Gconst_iterator@QSequentialIterable@@QBE?AU01@H@Z @1300
??H?$QList@VQItemSelectionRange@@@@QBE?AV0@ABV0@@Z @1301
??H?$QVector@VQPoint@@@@QBE?AV0@ABV0@@Z @1302
??H?$QVector@VQPointF@@@@QBE?AV0@ABV0@@Z @1303
??H?$QVector@VQXmlStreamAttribute@@@@QBE?AV0@ABV0@@Z @1304
??HQJsonArray@@QBE?AV0@ABVQJsonValue@@@Z @1305
??Hconst_iterator@QAssociativeIterable@@QBE?AU01@H@Z @1306
??Hconst_iterator@QSequentialIterable@@QBE?AU01@H@Z @1307
??I@YA?AVQBitArray@@ABV0@0@Z @1308
??IQRect@@QBE?AV0@ABV0@@Z @1309
??IQRectF@@QBE?AV0@ABV0@@Z @1310
??M@YA_NABVQElapsedTimer@@0@Z @1311
??M@YA_NABVQString@@0@Z @1312
??M@YA_NABVQStringRef@@0@Z @1313
??MQByteArray@@QBE_NABVQString@@@Z @1314
??MQByteRef@@QBE_ND@Z @1315
??MQDate@@QBE_NABV0@@Z @1316
??MQDateTime@@QBE_NABV0@@Z @1317
??MQItemSelectionRange@@QBE_NABV0@@Z @1318
??MQModelIndex@@QBE_NABV0@@Z @1319
??MQPersistentModelIndex@@QBE_NABV0@@Z @1320
??MQString@@QBE_NABVQByteArray@@@Z @1321
??MQString@@QBE_NPBD@Z @1322
??MQString@@QBE_NVQLatin1String@@@Z @1323
??MQStringRef@@QBE_NPBD@Z @1324
??MQTime@@QBE_NABV0@@Z @1325
??MQUrl@@QBE_NABV0@@Z @1326
??MQUuid@@QBE_NABV0@@Z @1327
??MQVariant@@QBE_NABV0@@Z @1328
??NQByteArray@@QBE_NABVQString@@@Z @1329
??NQByteRef@@QBE_ND@Z @1330
??NQDate@@QBE_NABV0@@Z @1331
??NQDateTime@@QBE_NABV0@@Z @1332
??NQString@@QBE_NABVQByteArray@@@Z @1333
??NQString@@QBE_NPBD@Z @1334
??NQString@@QBE_NVQLatin1String@@@Z @1335
??NQStringRef@@QBE_NPBD@Z @1336
??NQTime@@QBE_NABV0@@Z @1337
??NQVariant@@QBE_NABV0@@Z @1338
??OQByteArray@@QBE_NABVQString@@@Z @1339
??OQByteRef@@QBE_ND@Z @1340
??OQDate@@QBE_NABV0@@Z @1341
??OQDateTime@@QBE_NABV0@@Z @1342
??OQString@@QBE_NABVQByteArray@@@Z @1343
??OQString@@QBE_NPBD@Z @1344
??OQString@@QBE_NVQLatin1String@@@Z @1345
??OQStringRef@@QBE_NPBD@Z @1346
??OQTime@@QBE_NABV0@@Z @1347
??OQUuid@@QBE_NABV0@@Z @1348
??OQVariant@@QBE_NABV0@@Z @1349
??PQByteArray@@QBE_NABVQString@@@Z @1350
??PQByteRef@@QBE_ND@Z @1351
??PQDate@@QBE_NABV0@@Z @1352
??PQDateTime@@QBE_NABV0@@Z @1353
??PQString@@QBE_NABVQByteArray@@@Z @1354
??PQString@@QBE_NPBD@Z @1355
??PQString@@QBE_NVQLatin1String@@@Z @1356
??PQStringRef@@QBE_NPBD@Z @1357
??PQTime@@QBE_NABV0@@Z @1358
??PQVariant@@QBE_NABV0@@Z @1359
??RQCollator@@QBE_NABVQString@@0@Z @1360
??RQLoggingCategory@@QAEAAV0@XZ @1361
??RQLoggingCategory@@QBEABV0@XZ @1362
??SQBitArray@@QBE?AV0@XZ @1363
??T@YA?AVQBitArray@@ABV0@0@Z @1364
??U@YA?AVQBitArray@@ABV0@0@Z @1365
??UQRect@@QBE?AV0@ABV0@@Z @1366
??UQRectF@@QBE?AV0@ABV0@@Z @1367
??XQPoint@@QAEAAV0@H@Z @1368
??XQPoint@@QAEAAV0@M@Z @1369
??XQPoint@@QAEAAV0@N@Z @1370
??XQPointF@@QAEAAV0@N@Z @1371
??XQSize@@QAEAAV0@N@Z @1372
??XQSizeF@@QAEAAV0@N@Z @1373
??Y?$QList@VQItemSelectionRange@@@@QAEAAV0@ABV0@@Z @1374
??Y?$QList@VQItemSelectionRange@@@@QAEAAV0@ABVQItemSelectionRange@@@Z @1375
??Y?$QVector@VQPoint@@@@QAEAAV0@ABV0@@Z @1376
??Y?$QVector@VQPoint@@@@QAEAAV0@ABVQPoint@@@Z @1377
??Y?$QVector@VQPointF@@@@QAEAAV0@ABV0@@Z @1378
??Y?$QVector@VQPointF@@@@QAEAAV0@ABVQPointF@@@Z @1379
??Y?$QVector@VQXmlStreamAttribute@@@@QAEAAV0@ABV0@@Z @1380
??Y?$QVector@VQXmlStreamAttribute@@@@QAEAAV0@ABVQXmlStreamAttribute@@@Z @1381
??YQByteArray@@QAEAAV0@ABV0@@Z @1382
??YQByteArray@@QAEAAV0@ABVQString@@@Z @1383
??YQByteArray@@QAEAAV0@D@Z @1384
??YQByteArray@@QAEAAV0@PBD@Z @1385
??YQJsonArray@@QAEAAV0@ABVQJsonValue@@@Z @1386
??YQPoint@@QAEAAV0@ABV0@@Z @1387
??YQPointF@@QAEAAV0@ABV0@@Z @1388
??YQRect@@QAEAAV0@ABVQMargins@@@Z @1389
??YQRectF@@QAEAAV0@ABVQMarginsF@@@Z @1390
??YQSize@@QAEAAV0@ABV0@@Z @1391
??YQSizeF@@QAEAAV0@ABV0@@Z @1392
??YQString@@QAEAAV0@ABV0@@Z @1393
??YQString@@QAEAAV0@ABVQByteArray@@@Z @1394
??YQString@@QAEAAV0@ABVQStringRef@@@Z @1395
??YQString@@QAEAAV0@D@Z @1396
??YQString@@QAEAAV0@PBD@Z @1397
??YQString@@QAEAAV0@VQChar@@@Z @1398
??YQString@@QAEAAV0@VQLatin1String@@@Z @1399
??YQString@@QAEAAV0@W4SpecialCharacter@QChar@@@Z @1400
??Yconst_iterator@QAssociativeIterable@@QAEAAU01@H@Z @1401
??Yconst_iterator@QSequentialIterable@@QAEAAU01@H@Z @1402
??ZQPoint@@QAEAAV0@ABV0@@Z @1403
??ZQPointF@@QAEAAV0@ABV0@@Z @1404
??ZQRect@@QAEAAV0@ABVQMargins@@@Z @1405
??ZQRectF@@QAEAAV0@ABVQMarginsF@@@Z @1406
??ZQSize@@QAEAAV0@ABV0@@Z @1407
??ZQSizeF@@QAEAAV0@ABV0@@Z @1408
??Zconst_iterator@QAssociativeIterable@@QAEAAU01@H@Z @1409
??Zconst_iterator@QSequentialIterable@@QAEAAU01@H@Z @1410
??_0QPoint@@QAEAAV0@N@Z @1411
??_0QPointF@@QAEAAV0@N@Z @1412
??_0QSize@@QAEAAV0@N@Z @1413
??_0QSizeF@@QAEAAV0@N@Z @1414
??_4QBitArray@@QAEAAV0@ABV0@@Z @1415
??_4QRect@@QAEAAV0@ABV0@@Z @1416
??_4QRectF@@QAEAAV0@ABV0@@Z @1417
??_5QBitArray@@QAEAAV0@ABV0@@Z @1418
??_5QRect@@QAEAAV0@ABV0@@Z @1419
??_5QRectF@@QAEAAV0@ABV0@@Z @1420
??_6QBitArray@@QAEAAV0@ABV0@@Z @1421
??_7QAbstractAnimation@@6B@ @1422
??_7QAbstractAnimationTimer@@6B@ @1423
??_7QAbstractDynamicMetaObject@@6B@ @1424
??_7QAbstractEventDispatcher@@6B@ @1425
??_7QAbstractEventDispatcherPrivate@@6B@ @1426
??_7QAbstractFileEngine@@6B@ @1427
??_7QAbstractFileEngineHandler@@6B@ @1428
??_7QAbstractFileEngineIterator@@6B@ @1429
??_7QAbstractItemModel@@6B@ @1430
??_7QAbstractItemModelPrivate@@6B@ @1431
??_7QAbstractListModel@@6B@ @1432
??_7QAbstractNativeEventFilter@@6B@ @1433
??_7QAbstractProxyModel@@6B@ @1434
??_7QAbstractProxyModelPrivate@@6B@ @1435
??_7QAbstractState@@6B@ @1436
??_7QAbstractTableModel@@6B@ @1437
??_7QAbstractTransition@@6B@ @1438
??_7QAbstractTransitionPrivate@@6B@ @1439
??_7QAnimationDriver@@6B@ @1440
??_7QAnimationDriverPrivate@@6B@ @1441
??_7QAnimationGroup@@6B@ @1442
??_7QBuffer@@6B@ @1443
??_7QChildEvent@@6B@ @1444
??_7QCoreApplication@@6B@ @1445
??_7QCoreApplicationPrivate@@6B@ @1446
??_7QDateTimeParser@@6B@ @1447
??_7QDeferredDeleteEvent@@6B@ @1448
??_7QDynamicMetaObjectData@@6B@ @1449
??_7QDynamicPropertyChangeEvent@@6B@ @1450
??_7QEvent@@6B@ @1451
??_7QEventDispatcherWin32@@6B@ @1452
??_7QEventDispatcherWin32Private@@6B@ @1453
??_7QEventLoop@@6B@ @1454
??_7QEventTransition@@6B@ @1455
??_7QEventTransitionPrivate@@6B@ @1456
??_7QException@@6B@ @1457
??_7QFSFileEngine@@6B@ @1458
??_7QFactoryInterface@@6B@ @1459
??_7QFactoryLoader@@6B@ @1460
??_7QFile@@6B@ @1461
??_7QFileDevice@@6B@ @1462
??_7QFileSelector@@6B@ @1463
??_7QFileSelectorPrivate@@6B@ @1464
??_7QFileSystemWatcher@@6B@ @1465
??_7QFinalState@@6B@ @1466
??_7QFutureInterfaceBase@@6B@ @1467
??_7QFutureWatcherBase@@6B@ @1468
??_7QHistoryState@@6B@ @1469
??_7QIODevice@@6B@ @1470
??_7QIODevicePrivate@@6B@ @1471
??_7QIdentityProxyModel@@6B@ @1472
??_7QItemSelectionModel@@6B@ @1473
??_7QLibrary@@6B@ @1474
??_7QMetaCallEvent@@6B@ @1475
??_7QMetaObjectBuilder@@6B@ @1476
??_7QMimeData@@6B@ @1477
??_7QNonContiguousByteDevice@@6B@ @1478
??_7QObject@@6B@ @1479
??_7QObjectCleanupHandler@@6B@ @1480
??_7QObjectData@@6B@ @1481
??_7QObjectPrivate@@6B@ @1482
??_7QObjectUserData@@6B@ @1483
??_7QParallelAnimationGroup@@6B@ @1484
??_7QPauseAnimation@@6B@ @1485
??_7QPluginLoader@@6B@ @1486
??_7QProcess@@6B@ @1487
??_7QPropertyAnimation@@6B@ @1488
??_7QSaveFile@@6B@ @1489
??_7QSequentialAnimationGroup@@6B@ @1490
??_7QSettings@@6B@ @1491
??_7QSharedMemory@@6B@ @1492
??_7QSignalMapper@@6B@ @1493
??_7QSignalTransition@@6B@ @1494
??_7QSocketNotifier@@6B@ @1495
??_7QSortFilterProxyModel@@6B@ @1496
??_7QState@@6B@ @1497
??_7QStateMachine@@6B@ @1498
??_7QStateMachinePrivate@@6B@ @1499
??_7QStringListModel@@6B@ @1500
??_7QSystemLocale@@6B@ @1501
??_7QTemporaryFile@@6B@ @1502
??_7QTextCodec@@6B@ @1503
??_7QTextStream@@6B@ @1504
??_7QThread@@6B@ @1505
??_7QThreadPool@@6B@ @1506
??_7QThreadPoolPrivate@@6B@ @1507
??_7QTimeLine@@6B@ @1508
??_7QTimeZonePrivate@@6B@ @1509
??_7QTimer@@6B@ @1510
??_7QTimerEvent@@6B@ @1511
??_7QTranslator@@6B@ @1512
??_7QUnhandledException@@6B@ @1513
??_7QUnifiedTimer@@6B@ @1514
??_7QVariantAnimation@@6B@ @1515
??_7QWinEventNotifier@@6B@ @1516
??_7QWinOverlappedIoNotifier@@6B@ @1517
??_7QWindowsPipeReader@@6B@ @1518
??_7QWindowsPipeWriter@@6B@ @1519
??_7QXmlStreamEntityResolver@@6B@ @1520
??_7ResultStoreBase@QtPrivate@@6B@ @1521
??_7SignalEvent@QStateMachine@@6B@ @1522
??_7WrappedEvent@QStateMachine@@6B@ @1523
??_FConverterState@QTextCodec@@QAEXXZ @1524
??_FExceptionHolder@QtPrivate@@QAEXXZ @1525
??_FQAbstractAnimation@@QAEXXZ @1526
??_FQAbstractEventDispatcher@@QAEXXZ @1527
??_FQAbstractItemModel@@QAEXXZ @1528
??_FQAbstractListModel@@QAEXXZ @1529
??_FQAbstractProxyModel@@QAEXXZ @1530
??_FQAbstractState@@QAEXXZ @1531
??_FQAbstractTableModel@@QAEXXZ @1532
??_FQAbstractTransition@@QAEXXZ @1533
??_FQAnimationDriver@@QAEXXZ @1534
??_FQAnimationGroup@@QAEXXZ @1535
??_FQBuffer@@QAEXXZ @1536
??_FQCollator@@QAEXXZ @1537
??_FQDir@@QAEXXZ @1538
??_FQEasingCurve@@QAEXXZ @1539
??_FQEventDispatcherWin32@@QAEXXZ @1540
??_FQEventLoop@@QAEXXZ @1541
??_FQEventTransition@@QAEXXZ @1542
??_FQFileSelector@@QAEXXZ @1543
??_FQFileSystemWatcher@@QAEXXZ @1544
??_FQFinalState@@QAEXXZ @1545
??_FQFutureInterfaceBase@@QAEXXZ @1546
??_FQFutureWatcherBase@@QAEXXZ @1547
??_FQGenericArgument@@QAEXXZ @1548
??_FQGenericReturnArgument@@QAEXXZ @1549
??_FQHistoryState@@QAEXXZ @1550
??_FQIdentityProxyModel@@QAEXXZ @1551
??_FQJsonValue@@QAEXXZ @1552
??_FQLibrary@@QAEXXZ @1553
??_FQMutex@@QAEXXZ @1554
??_FQMutexPool@@QAEXXZ @1555
??_FQObject@@QAEXXZ @1556
??_FQObjectPrivate@@QAEXXZ @1557
??_FQParallelAnimationGroup@@QAEXXZ @1558
??_FQPauseAnimation@@QAEXXZ @1559
??_FQPluginLoader@@QAEXXZ @1560
??_FQProcess@@QAEXXZ @1561
??_FQPropertyAnimation@@QAEXXZ @1562
??_FQReadWriteLock@@QAEXXZ @1563
??_FQResource@@QAEXXZ @1564
??_FQSaveFile@@QAEXXZ @1565
??_FQSemaphore@@QAEXXZ @1566
??_FQSequentialAnimationGroup@@QAEXXZ @1567
??_FQSettings@@QAEXXZ @1568
??_FQSharedMemory@@QAEXXZ @1569
??_FQSignalMapper@@QAEXXZ @1570
??_FQSignalTransition@@QAEXXZ @1571
??_FQSortFilterProxyModel@@QAEXXZ @1572
??_FQState@@QAEXXZ @1573
??_FQStateMachine@@QAEXXZ @1574
??_FQStringListModel@@QAEXXZ @1575
??_FQThread@@QAEXXZ @1576
??_FQThreadPool@@QAEXXZ @1577
??_FQTimeLine@@QAEXXZ @1578
??_FQTimer@@QAEXXZ @1579
??_FQTranslator@@QAEXXZ @1580
??_FQVariantAnimation@@QAEXXZ @1581
??_FQWinEventNotifier@@QAEXXZ @1582
??_FQWinOverlappedIoNotifier@@QAEXXZ @1583
??_FQWindowsPipeReader@@QAEXXZ @1584
?BinaryFormatTag@QJsonDocument@@2IB @1585
?MaxSize@QByteArray@@2_KB @1586
?QByteArrayList_join@QtPrivate@@YA?AVQByteArray@@PBV?$QList@VQByteArray@@@@PBDH@Z @1587
?QStringList_contains@QtPrivate@@YA_NPBVQStringList@@ABVQString@@W4CaseSensitivity@Qt@@@Z @1588
?QStringList_filter@QtPrivate@@YA?AVQStringList@@PBV2@ABVQRegExp@@@Z @1589
?QStringList_filter@QtPrivate@@YA?AVQStringList@@PBV2@ABVQRegularExpression@@@Z @1590
?QStringList_filter@QtPrivate@@YA?AVQStringList@@PBV2@ABVQString@@W4CaseSensitivity@Qt@@@Z @1591
?QStringList_indexOf@QtPrivate@@YAHPBVQStringList@@AAVQRegExp@@H@Z @1592
?QStringList_indexOf@QtPrivate@@YAHPBVQStringList@@ABVQRegExp@@H@Z @1593
?QStringList_indexOf@QtPrivate@@YAHPBVQStringList@@ABVQRegularExpression@@H@Z @1594
?QStringList_join@QtPrivate@@YA?AVQString@@PBVQStringList@@PBVQChar@@H@Z @1595
?QStringList_lastIndexOf@QtPrivate@@YAHPBVQStringList@@AAVQRegExp@@H@Z @1596
?QStringList_lastIndexOf@QtPrivate@@YAHPBVQStringList@@ABVQRegExp@@H@Z @1597
?QStringList_lastIndexOf@QtPrivate@@YAHPBVQStringList@@ABVQRegularExpression@@H@Z @1598
?QStringList_removeDuplicates@QtPrivate@@YAHPAVQStringList@@@Z @1599
?QStringList_replaceInStrings@QtPrivate@@YAXPAVQStringList@@ABVQRegExp@@ABVQString@@@Z @1600
?QStringList_replaceInStrings@QtPrivate@@YAXPAVQStringList@@ABVQRegularExpression@@ABVQString@@@Z @1601
?QStringList_replaceInStrings@QtPrivate@@YAXPAVQStringList@@ABVQString@@1W4CaseSensitivity@Qt@@@Z @1602
?QStringList_sort@QtPrivate@@YAXPAVQStringList@@W4CaseSensitivity@Qt@@@Z @1603
?WindowsVersion@QSysInfo@@2W4WinVersion@1@B @1604
?_q_animationFinished@QStateMachinePrivate@@QAEXXZ @1605
?_q_killDelayedEventTimer@QStateMachinePrivate@@QAEXHH@Z @1606
?_q_notify@QWinOverlappedIoNotifier@@QAEXXZ @1607
?_q_process@QStateMachinePrivate@@QAEXXZ @1608
?_q_reregisterTimers@QObjectPrivate@@QAEXPAX@Z @1609
?_q_sourceModelDestroyed@QAbstractProxyModelPrivate@@UAEXXZ @1610
?_q_start@QStateMachinePrivate@@QAEXXZ @1611
?_q_startDelayedEventTimer@QStateMachinePrivate@@QAEXHH@Z @1612
?abbreviation@QTimeZone@@QBE?AVQString@@ABVQDateTime@@@Z @1613
?abbreviation@QTimeZonePrivate@@UBE?AVQString@@_J@Z @1614
?aboutToBlock@QAbstractEventDispatcher@@QAEXXZ @1615
?aboutToClose@QIODevice@@QAEXXZ @1616
?aboutToQuit@QCoreApplication@@QAEXUQPrivateSignal@1@@Z @1617
?absoluteDir@QFileInfo@@QBE?AVQDir@@XZ @1618
?absoluteFilePath@QDir@@QBE?AVQString@@ABV2@@Z @1619
?absoluteFilePath@QFileInfo@@QBE?AVQString@@XZ @1620
?absoluteFilePath@QResource@@QBE?AVQString@@XZ @1621
?absoluteMax@QDateTimeParser@@QBEHHABVQDateTime@@@Z @1622
?absoluteMin@QDateTimeParser@@QBEHH@Z @1623
?absolutePath@QDir@@QBE?AVQString@@XZ @1624
?absolutePath@QFileInfo@@QBE?AVQString@@XZ @1625
?absoluteSignalCount@QMetaObjectPrivate@@SAHPBUQMetaObject@@@Z @1626
?accept@QEvent@@QAEXXZ @1627
?access@QMetaMethod@@QBE?AW4Access@1@XZ @1628
?access@QMetaMethodBuilder@@QBE?AW4Access@QMetaMethod@@XZ @1629
?acquire@QSemaphore@@QAEXH@Z @1630
?acquire@QSystemSemaphore@@QAE_NXZ @1631
?activate@QMetaObject@@SAXPAVQObject@@HHPAPAX@Z @1632
?activate@QMetaObject@@SAXPAVQObject@@HPAPAX@Z @1633
?activate@QMetaObject@@SAXPAVQObject@@PBU1@HPAPAX@Z @1634
?activateCallbacks@QInternal@@SA_NW4Callback@1@PAPAX@Z @1635
?activateEventNotifier@QEventDispatcherWin32Private@@QAEXPAVQWinEventNotifier@@@Z @1636
?activateEventNotifiers@QEventDispatcherWin32@@QAEXXZ @1637
?activated@QSocketNotifier@@QAEXHUQPrivateSignal@1@@Z @1638
?activated@QWinEventNotifier@@QAEXPAXUQPrivateSignal@1@@Z @1639
?active@QAbstractState@@QBE_NXZ @1640
?activeChanged@QAbstractState@@QAEX_N@Z @1641
?activeThreadCount@QThreadPool@@QBEHXZ @1642
?activeThreadCount@QThreadPoolPrivate@@QBEHXZ @1643
?add@QObjectCleanupHandler@@QAEPAVQObject@@PAV2@@Z @1644
?addAncestorStatesToEnter@QStateMachinePrivate@@QAEXPAVQAbstractState@@PAVQState@@AAV?$QSet@PAVQAbstractState@@@@2@Z @1645
?addAnimation@QAbstractTransition@@QAEXPAVQAbstractAnimation@@@Z @1646
?addAnimation@QAnimationGroup@@QAEXPAVQAbstractAnimation@@@Z @1647
?addClassInfo@QMetaObjectBuilder@@QAEHABVQByteArray@@0@Z @1648
?addConnection@QObjectPrivate@@QAEXHPAUConnection@1@@Z @1649
?addConstructor@QMetaObjectBuilder@@QAE?AVQMetaMethodBuilder@@ABVQByteArray@@@Z @1650
?addConstructor@QMetaObjectBuilder@@QAE?AVQMetaMethodBuilder@@ABVQMetaMethod@@@Z @1651
?addCubicBezierSegment@QEasingCurve@@QAEXABVQPointF@@00@Z @1652
?addData@QCryptographicHash@@QAEXABVQByteArray@@@Z @1653
?addData@QCryptographicHash@@QAEXPBDH@Z @1654
?addData@QCryptographicHash@@QAE_NPAVQIODevice@@@Z @1655
?addData@QMessageAuthenticationCode@@QAEXABVQByteArray@@@Z @1656
?addData@QMessageAuthenticationCode@@QAEXPBDH@Z @1657
?addData@QMessageAuthenticationCode@@QAE_NPAVQIODevice@@@Z @1658
?addData@QXmlStreamReader@@QAEXABVQByteArray@@@Z @1659
?addData@QXmlStreamReader@@QAEXABVQString@@@Z @1660
?addData@QXmlStreamReader@@QAEXPBD@Z @1661
?addDays@QDate@@QBE?AV1@_J@Z @1662
?addDays@QDateTime@@QBE?AV1@_J@Z @1663
?addDefaultAnimation@QStateMachine@@QAEXPAVQAbstractAnimation@@@Z @1664
?addEncodedQueryItem@QUrl@@QAEXABVQByteArray@@0@Z @1665
?addEnumerator@QMetaObjectBuilder@@QAE?AVQMetaEnumBuilder@@ABVQByteArray@@@Z @1666
?addEnumerator@QMetaObjectBuilder@@QAE?AVQMetaEnumBuilder@@ABVQMetaEnum@@@Z @1667
?addExtraNamespaceDeclaration@QXmlStreamReader@@QAEXABVQXmlStreamNamespaceDeclaration@@@Z @1668
?addExtraNamespaceDeclarations@QXmlStreamReader@@QAEXABV?$QVector@VQXmlStreamNamespaceDeclaration@@@@@Z @1669
?addHelpOption@QCommandLineParser@@QAE?AVQCommandLineOption@@XZ @1670
?addKey@QMetaEnumBuilder@@QAEHABVQByteArray@@H@Z @1671
?addLibraryPath@QCoreApplication@@SAXABVQString@@@Z @1672
?addMSecs@QDateTime@@QBE?AV1@_J@Z @1673
?addMSecs@QTime@@QBE?AV1@H@Z @1674
?addMetaObject@QMetaObjectBuilder@@QAEXPBUQMetaObject@@V?$QFlags@W4AddMember@QMetaObjectBuilder@@@@@Z @1675
?addMethod@QMetaObjectBuilder@@QAE?AVQMetaMethodBuilder@@ABVQByteArray@@0@Z @1676
?addMethod@QMetaObjectBuilder@@QAE?AVQMetaMethodBuilder@@ABVQByteArray@@@Z @1677
?addMethod@QMetaObjectBuilder@@QAE?AVQMetaMethodBuilder@@ABVQMetaMethod@@@Z @1678
?addMonths@QDate@@QBE?AV1@H@Z @1679
?addMonths@QDateTime@@QBE?AV1@H@Z @1680
?addOption@QCommandLineParser@@QAE_NABVQCommandLineOption@@@Z @1681
?addOptions@QCommandLineParser@@QAE_NABV?$QList@VQCommandLineOption@@@@@Z @1682
?addPath@QFileSystemWatcher@@QAE_NABVQString@@@Z @1683
?addPaths@QFileSystemWatcher@@QAE?AVQStringList@@ABV2@@Z @1684
?addPause@QSequentialAnimationGroup@@QAEPAVQPauseAnimation@@H@Z @1685
?addPositionalArgument@QCommandLineParser@@QAEXABVQString@@00@Z @1686
?addProperty@QMetaObjectBuilder@@QAE?AVQMetaPropertyBuilder@@ABVQByteArray@@0H@Z @1687
?addProperty@QMetaObjectBuilder@@QAE?AVQMetaPropertyBuilder@@ABVQMetaProperty@@@Z @1688
?addQueryItem@QUrl@@QAEXABVQString@@0@Z @1689
?addQueryItem@QUrlQuery@@QAEXABVQString@@0@Z @1690
?addRelatedMetaObject@QMetaObjectBuilder@@QAEHPBUQMetaObject@@@Z @1691
?addResourceSearchPath@QDir@@SAXABVQString@@@Z @1692
?addResult@ResultStoreBase@QtPrivate@@QAEHHPBX@Z @1693
?addResults@ResultStoreBase@QtPrivate@@QAEHHPBXHH@Z @1694
?addSearchPath@QDir@@SAXABVQString@@0@Z @1695
?addSearchPath@QResource@@SAXABVQString@@@Z @1696
?addSecs@QDateTime@@QBE?AV1@_J@Z @1697
?addSecs@QTime@@QBE?AV1@H@Z @1698
?addSignal@QMetaObjectBuilder@@QAE?AVQMetaMethodBuilder@@ABVQByteArray@@@Z @1699
?addSlot@QMetaObjectBuilder@@QAE?AVQMetaMethodBuilder@@ABVQByteArray@@@Z @1700
?addState@QStateMachine@@QAEXPAVQAbstractState@@@Z @1701
?addStatesToEnter@QStateMachinePrivate@@QAEXPAVQAbstractState@@PAVQState@@AAV?$QSet@PAVQAbstractState@@@@2@Z @1702
?addStatics@QFileSelectorPrivate@@SAXABVQStringList@@@Z @1703
?addTCBSegment@QEasingCurve@@QAEXABVQPointF@@NNN@Z @1704
?addTransition@QState@@QAEPAVQAbstractTransition@@PAVQAbstractState@@@Z @1705
?addTransition@QState@@QAEPAVQSignalTransition@@PBVQObject@@PBDPAVQAbstractState@@@Z @1706
?addTransition@QState@@QAEXPAVQAbstractTransition@@@Z @1707
?addVersionOption@QCommandLineParser@@QAE?AVQCommandLineOption@@XZ @1708
?addYears@QDate@@QBE?AV1@H@Z @1709
?addYears@QDateTime@@QBE?AV1@H@Z @1710
?added@QChildEvent@@QBE_NXZ @1711
?adjust@QRect@@QAEXHHHH@Z @1712
?adjust@QRectF@@QAEXNNNN@Z @1713
?adjusted@QRect@@QBE?AV1@HHHH@Z @1714
?adjusted@QRectF@@QBE?AV1@NNNN@Z @1715
?adjusted@QUrl@@QBE?AV1@V?$QUrlTwoFlags@W4UrlFormattingOption@QUrl@@W4ComponentFormattingOption@2@@@@Z @1716
?advance@QAnimationDriver@@UAEXXZ @1717
?advanceAnimation@QAnimationDriver@@IAEX_J@Z @1718
?aliases@QMimeType@@QBE?AVQStringList@@XZ @1719
?aliases@QTextCodec@@UBE?AV?$QList@VQByteArray@@@@XZ @1720
?allAncestors@QMimeType@@QBE?AVQStringList@@XZ @1721
?allEncodedQueryItemValues@QUrl@@QBE?AV?$QList@VQByteArray@@@@ABVQByteArray@@@Z @1722
?allKeys@QSettings@@QBE?AVQStringList@@XZ @1723
?allMimeTypes@QMimeDatabase@@QBE?AV?$QList@VQMimeType@@@@XZ @1724
?allQueryItemValues@QUrl@@QBE?AVQStringList@@ABVQString@@@Z @1725
?allQueryItemValues@QUrlQuery@@QBE?AVQStringList@@ABVQString@@V?$QFlags@W4ComponentFormattingOption@QUrl@@@@@Z @1726
?allSelectors@QFileSelector@@QBE?AVQStringList@@XZ @1727
?allocate@QArrayData@@SAPAU1@IIIV?$QFlags@W4AllocationOption@QArrayData@@@@@Z @1728
?allocateData@QContiguousCacheData@@SAPAU1@HH@Z @1729
?allocateNode@QHashData@@QAEPAXH@Z @1730
?allocateTimerId@QAbstractEventDispatcherPrivate@@SAHXZ @1731
?allowMove@QAbstractItemModelPrivate@@QAE_NABVQModelIndex@@HH0HW4Orientation@Qt@@@Z @1732
?amText@QLocale@@QBE?AVQString@@XZ @1733
?amplitude@QEasingCurve@@QBENXZ @1734
?angle@QLineF@@QBENABV1@@Z @1735
?angle@QLineF@@QBENXZ @1736
?angleTo@QLineF@@QBENABV1@@Z @1737
?animationAt@QAnimationGroup@@QBEPAVQAbstractAnimation@@H@Z @1738
?animationCount@QAnimationGroup@@QBEHXZ @1739
?animations@QAbstractTransition@@QBE?AV?$QList@PAVQAbstractAnimation@@@@XZ @1740
?appName@QCoreApplicationPrivate@@QBE?AVQString@@XZ @1741
?app_compile_version@QCoreApplicationPrivate@@2HA @1742
?append@?$QList@VQItemSelectionRange@@@@QAEXABV1@@Z @1743
?append@?$QList@VQItemSelectionRange@@@@QAEXABVQItemSelectionRange@@@Z @1744
?append@?$QVector@VQPoint@@@@QAEXABVQPoint@@@Z @1745
?append@?$QVector@VQPointF@@@@QAEXABVQPointF@@@Z @1746
?append@?$QVector@VQXmlStreamAttribute@@@@QAEXABVQXmlStreamAttribute@@@Z @1747
?append@QByteArray@@QAEAAV1@ABV1@@Z @1748
?append@QByteArray@@QAEAAV1@ABVQString@@@Z @1749
?append@QByteArray@@QAEAAV1@D@Z @1750
?append@QByteArray@@QAEAAV1@PBD@Z @1751
?append@QByteArray@@QAEAAV1@PBDH@Z @1752
?append@QJsonArray@@QAEXABVQJsonValue@@@Z @1753
?append@QListData@@QAEPAPAXABU1@@Z @1754
?append@QListData@@QAEPAPAXH@Z @1755
?append@QListData@@QAEPAPAXXZ @1756
?append@QString@@QAEAAV1@ABV1@@Z @1757
?append@QString@@QAEAAV1@ABVQByteArray@@@Z @1758
?append@QString@@QAEAAV1@ABVQStringRef@@@Z @1759
?append@QString@@QAEAAV1@PBD@Z @1760
?append@QString@@QAEAAV1@PBVQChar@@H@Z @1761
?append@QString@@QAEAAV1@VQChar@@@Z @1762
?append@QString@@QAEAAV1@VQLatin1String@@@Z @1763
?append@QXmlStreamAttributes@@QAEXABVQString@@00@Z @1764
?append@QXmlStreamAttributes@@QAEXABVQString@@0@Z @1765
?appendApplicationPathToLibraryPaths@QCoreApplicationPrivate@@QAEXXZ @1766
?appendLatin1To@QAbstractConcatenable@@KAXPBDHPAVQChar@@@Z @1767
?appendTo@QStringRef@@QBE?AV1@PAVQString@@@Z @1768
?applicationDescription@QCommandLineParser@@QBE?AVQString@@XZ @1769
?applicationDirPath@QCoreApplication@@SA?AVQString@@XZ @1770
?applicationFilePath@QCoreApplication@@SA?AVQString@@XZ @1771
?applicationName@QCoreApplication@@SA?AVQString@@XZ @1772
?applicationName@QSettings@@QBE?AVQString@@XZ @1773
?applicationNameChanged@QCoreApplication@@QAEXXZ @1774
?applicationPid@QCoreApplication@@SA_JXZ @1775
?applicationVersion@QCoreApplication@@SA?AVQString@@XZ @1776
?applicationVersionChanged@QCoreApplication@@QAEXXZ @1777
?arg@QString@@QBE?AV1@ABV1@00000000@Z @1778
?arg@QString@@QBE?AV1@ABV1@0000000@Z @1779
?arg@QString@@QBE?AV1@ABV1@000000@Z @1780
?arg@QString@@QBE?AV1@ABV1@00000@Z @1781
?arg@QString@@QBE?AV1@ABV1@0000@Z @1782
?arg@QString@@QBE?AV1@ABV1@000@Z @1783
?arg@QString@@QBE?AV1@ABV1@00@Z @1784
?arg@QString@@QBE?AV1@ABV1@0@Z @1785
?arg@QString@@QBE?AV1@ABV1@HVQChar@@@Z @1786
?arg@QString@@QBE?AV1@DHVQChar@@@Z @1787
?arg@QString@@QBE?AV1@FHHVQChar@@@Z @1788
?arg@QString@@QBE?AV1@GHHVQChar@@@Z @1789
?arg@QString@@QBE?AV1@HHHVQChar@@@Z @1790
?arg@QString@@QBE?AV1@IHHVQChar@@@Z @1791
?arg@QString@@QBE?AV1@JHHVQChar@@@Z @1792
?arg@QString@@QBE?AV1@KHHVQChar@@@Z @1793
?arg@QString@@QBE?AV1@NHDHVQChar@@@Z @1794
?arg@QString@@QBE?AV1@VQChar@@H0@Z @1795
?arg@QString@@QBE?AV1@_JHHVQChar@@@Z @1796
?arg@QString@@QBE?AV1@_KHHVQChar@@@Z @1797
?args@QMetaCallEvent@@QBEPAPAXXZ @1798
?arguments@QCoreApplication@@SA?AVQStringList@@XZ @1799
?arguments@QProcess@@QBE?AVQStringList@@XZ @1800
?arguments@SignalEvent@QStateMachine@@QBE?AV?$QList@VQVariant@@@@XZ @1801
?array@QJsonDocument@@QBE?AVQJsonArray@@XZ @1802
?assignProperty@QState@@QAEXPAVQObject@@PBDABVQVariant@@@Z @1803
?at@?$QList@VQItemSelectionRange@@@@QBEABVQItemSelectionRange@@H@Z @1804
?at@?$QVector@VQPoint@@@@QBEABVQPoint@@H@Z @1805
?at@?$QVector@VQPointF@@@@QBEABVQPointF@@H@Z @1806
?at@?$QVector@VQXmlStreamAttribute@@@@QBEABVQXmlStreamAttribute@@H@Z @1807
?at@QBitArray@@QBE_NH@Z @1808
?at@QByteArray@@QBEDH@Z @1809
?at@QJsonArray@@QBE?AVQJsonValue@@H@Z @1810
?at@QListData@@QBEPAPAXH@Z @1811
?at@QSequentialIterable@@QBE?AVQVariant@@H@Z @1812
?at@QString@@QBE?BVQChar@@H@Z @1813
?at@QStringRef@@QBE?BVQChar@@H@Z @1814
?atEnd@QAbstractFileEngine@@QBE_NXZ @1815
?atEnd@QBuffer@@UBE_NXZ @1816
?atEnd@QDataStream@@QBE_NXZ @1817
?atEnd@QFileDevice@@UBE_NXZ @1818
?atEnd@QIODevice@@UBE_NXZ @1819
?atEnd@QProcess@@UBE_NXZ @1820
?atEnd@QTextStream@@QBE_NXZ @1821
?atEnd@QXmlStreamReader@@QBE_NXZ @1822
?attach@QSharedMemory@@QAE_NW4AccessMode@1@@Z @1823
?attribs@QCoreApplicationPrivate@@2IA @1824
?attributes@QMetaMethod@@QBEHXZ @1825
?attributes@QMetaMethodBuilder@@QBEHXZ @1826
?attributes@QXmlStreamReader@@QBE?AVQXmlStreamAttributes@@XZ @1827
?authority@QUrl@@QBE?AVQString@@V?$QFlags@W4ComponentFormattingOption@QUrl@@@@@Z @1828
?autoDetectUnicode@QTextStream@@QBE_NXZ @1829
?autoFormatting@QXmlStreamWriter@@QBE_NXZ @1830
?autoFormattingIndent@QXmlStreamWriter@@QBEHXZ @1831
?autoInsertSpaces@QDebug@@QBE_NXZ @1832
?autoRemove@QTemporaryDir@@QBE_NXZ @1833
?autoRemove@QTemporaryFile@@QBE_NXZ @1834
?available@QSemaphore@@QBEHXZ @1835
?availableCodecs@QTextCodec@@SA?AV?$QList@VQByteArray@@@@XZ @1836
?availableMibs@QTextCodec@@SA?AV?$QList@H@@XZ @1837
?availableTimeZoneIds@QTimeZone@@SA?AV?$QList@VQByteArray@@@@H@Z @1838
?availableTimeZoneIds@QTimeZone@@SA?AV?$QList@VQByteArray@@@@W4Country@QLocale@@@Z @1839
?availableTimeZoneIds@QTimeZone@@SA?AV?$QList@VQByteArray@@@@XZ @1840
?availableTimeZoneIds@QTimeZonePrivate@@UBE?AV?$QSet@VQByteArray@@@@H@Z @1841
?availableTimeZoneIds@QTimeZonePrivate@@UBE?AV?$QSet@VQByteArray@@@@W4Country@QLocale@@@Z @1842
?availableTimeZoneIds@QTimeZonePrivate@@UBE?AV?$QSet@VQByteArray@@@@XZ @1843
?awake@QAbstractEventDispatcher@@QAEXXZ @1844
?back@?$QList@VQItemSelectionRange@@@@QAEAAVQItemSelectionRange@@XZ @1845
?back@?$QList@VQItemSelectionRange@@@@QBEABVQItemSelectionRange@@XZ @1846
?back@?$QVector@VQPoint@@@@QAEAAVQPoint@@XZ @1847
?back@?$QVector@VQPoint@@@@QBEABVQPoint@@XZ @1848
?back@?$QVector@VQPointF@@@@QAEAAVQPointF@@XZ @1849
?back@?$QVector@VQPointF@@@@QBEABVQPointF@@XZ @1850
?back@?$QVector@VQXmlStreamAttribute@@@@QAEAAVQXmlStreamAttribute@@XZ @1851
?back@?$QVector@VQXmlStreamAttribute@@@@QBEABVQXmlStreamAttribute@@XZ @1852
?baseName@QFileInfo@@QBE?AVQString@@XZ @1853
?batchSize@ResultIteratorBase@QtPrivate@@QBEHXZ @1854
?batchedAdvance@ResultIteratorBase@QtPrivate@@QAEXXZ @1855
?bcp47Name@QLocale@@QBE?AVQString@@XZ @1856
?bcp47Name@QLocalePrivate@@QBE?AVQByteArray@@D@Z @1857
?begin@?$QList@VQItemSelectionRange@@@@QAE?AViterator@1@XZ @1858
?begin@?$QList@VQItemSelectionRange@@@@QBE?AVconst_iterator@1@XZ @1859
?begin@?$QVector@VQPoint@@@@QAE?AViterator@?$QTypedArrayData@VQPoint@@@@V23@@Z @1860
?begin@?$QVector@VQPoint@@@@QAEPAVQPoint@@XZ @1861
?begin@?$QVector@VQPoint@@@@QBE?AVconst_iterator@?$QTypedArrayData@VQPoint@@@@V23@@Z @1862
?begin@?$QVector@VQPoint@@@@QBEPBVQPoint@@XZ @1863
?begin@?$QVector@VQPointF@@@@QAE?AViterator@?$QTypedArrayData@VQPointF@@@@V23@@Z @1864
?begin@?$QVector@VQPointF@@@@QAEPAVQPointF@@XZ @1865
?begin@?$QVector@VQPointF@@@@QBE?AVconst_iterator@?$QTypedArrayData@VQPointF@@@@V23@@Z @1866
?begin@?$QVector@VQPointF@@@@QBEPBVQPointF@@XZ @1867
?begin@?$QVector@VQXmlStreamAttribute@@@@QAEPAVQXmlStreamAttribute@@XZ @1868
?begin@?$QVector@VQXmlStreamAttribute@@@@QBEPBVQXmlStreamAttribute@@XZ @1869
?begin@QAssociativeIterable@@QBE?AUconst_iterator@1@XZ @1870
?begin@QByteArray@@QAEPADXZ @1871
?begin@QByteArray@@QBEPBDXZ @1872
?begin@QJsonArray@@QAE?AViterator@1@XZ @1873
?begin@QJsonArray@@QBE?AVconst_iterator@1@XZ @1874
?begin@QJsonObject@@QAE?AViterator@1@XZ @1875
?begin@QJsonObject@@QBE?AVconst_iterator@1@XZ @1876
?begin@QListData@@QBEPAPAXXZ @1877
?begin@QSequentialIterable@@QBE?AUconst_iterator@1@XZ @1878
?begin@QString@@QAEPAVQChar@@XZ @1879
?begin@QString@@QBEPBVQChar@@XZ @1880
?begin@QStringRef@@QBEPBVQChar@@XZ @1881
?begin@ResultStoreBase@QtPrivate@@QBE?AVResultIteratorBase@2@XZ @1882
?begin@const_iterator@QAssociativeIterable@@AAEXXZ @1883
?begin@const_iterator@QSequentialIterable@@AAEXXZ @1884
?beginEntryList@QAbstractFileEngine@@UAEPAVQAbstractFileEngineIterator@@V?$QFlags@W4Filter@QDir@@@@ABVQStringList@@@Z @1885
?beginEntryList@QFSFileEngine@@UAEPAVQAbstractFileEngineIterator@@V?$QFlags@W4Filter@QDir@@@@ABVQStringList@@@Z @1886
?beginGroup@QSettings@@QAEXABVQString@@@Z @1887
?beginInsertColumns@QAbstractItemModel@@IAEXABVQModelIndex@@HH@Z @1888
?beginInsertRows@QAbstractItemModel@@IAEXABVQModelIndex@@HH@Z @1889
?beginMicrostep@QStateMachine@@MAEXPAVQEvent@@@Z @1890
?beginMoveColumns@QAbstractItemModel@@IAE_NABVQModelIndex@@HH0H@Z @1891
?beginMoveRows@QAbstractItemModel@@IAE_NABVQModelIndex@@HH0H@Z @1892
?beginReadArray@QSettings@@QAEHABVQString@@@Z @1893
?beginRemoveColumns@QAbstractItemModel@@IAEXABVQModelIndex@@HH@Z @1894
?beginRemoveRows@QAbstractItemModel@@IAEXABVQModelIndex@@HH@Z @1895
?beginResetModel@QAbstractItemModel@@IAEXXZ @1896
?beginSelectTransitions@QStateMachine@@MAEXPAVQEvent@@@Z @1897
?beginWriteArray@QSettings@@QAEXABVQString@@H@Z @1898
?bin@@YAAAVQTextStream@@AAV1@@Z @1899
?blobSize@QMetaStringTable@@QBEHXZ @1900
?blockSignals@QObject@@QAE_N_N@Z @1901
?bom@@YAAAVQTextStream@@AAV1@@Z @1902
?bottom@QItemSelectionRange@@QBEHXZ @1903
?bottom@QRect@@QBEHXZ @1904
?bottom@QRectF@@QBENXZ @1905
?bottomLeft@QRect@@QBE?AVQPoint@@XZ @1906
?bottomLeft@QRectF@@QBE?AVQPointF@@XZ @1907
?bottomRight@QItemSelectionRange@@QBEABVQPersistentModelIndex@@XZ @1908
?bottomRight@QRect@@QBE?AVQPoint@@XZ @1909
?bottomRight@QRectF@@QBE?AVQPointF@@XZ @1910
?boundaryReasons@QTextBoundaryFinder@@QBE?AV?$QFlags@W4BoundaryReason@QTextBoundaryFinder@@@@XZ @1911
?boundedTo@QSize@@QBE?AV1@ABV1@@Z @1912
?boundedTo@QSizeF@@QBE?AV1@ABV1@@Z @1913
?buddy@QAbstractItemModel@@UBE?AVQModelIndex@@ABV2@@Z @1914
?buddy@QAbstractProxyModel@@UBE?AVQModelIndex@@ABV2@@Z @1915
?buddy@QSortFilterProxyModel@@UBE?AVQModelIndex@@ABV2@@Z @1916
?buffer@QBuffer@@QAEAAVQByteArray@@XZ @1917
?buffer@QBuffer@@QBEABVQByteArray@@XZ @1918
?build@QLibraryInfo@@SAPBDXZ @1919
?buildAbi@QSysInfo@@SA?AVQString@@XZ @1920
?buildCpuArchitecture@QSysInfo@@SA?AVQString@@XZ @1921
?buildDate@QLibraryInfo@@SA?AVQDate@@XZ @1922
?bundleName@QFileInfo@@QBE?AVQString@@XZ @1923
?byteOrder@QDataStream@@QBE?AW4ByteOrder@1@XZ @1924
?bytearrayToDouble@QLocaleData@@SANPBDPA_N1@Z @1925
?bytearrayToLongLong@QLocaleData@@SA_JPBDHPA_N1@Z @1926
?bytearrayToUnsLongLong@QLocaleData@@SA_KPBDHPA_N@Z @1927
?bytesAvailable@QIODevice@@UBE_JXZ @1928
?bytesAvailable@QProcess@@UBE_JXZ @1929
?bytesAvailable@QStorageInfo@@QBE_JXZ @1930
?bytesAvailable@QWindowsPipeReader@@QBE_JXZ @1931
?bytesFree@QStorageInfo@@QBE_JXZ @1932
?bytesToWrite@QIODevice@@UBE_JXZ @1933
?bytesToWrite@QProcess@@UBE_JXZ @1934
?bytesToWrite@QWindowsPipeWriter@@QBE_JXZ @1935
?bytesTotal@QStorageInfo@@QBE_JXZ @1936
?bytesWritten@QIODevice@@QAEX_J@Z @1937
?bytesWritten@QWindowsPipeWriter@@QAEX_J@Z @1938
?c2m@?$QVector@VQPoint@@@@AAE?AViterator@?$QTypedArrayData@VQPoint@@@@Vconst_iterator@3@@Z @1939
?c2m@?$QVector@VQPoint@@@@AAEPAVQPoint@@PBV2@@Z @1940
?c2m@?$QVector@VQPointF@@@@AAE?AViterator@?$QTypedArrayData@VQPointF@@@@Vconst_iterator@3@@Z @1941
?c2m@?$QVector@VQPointF@@@@AAEPAVQPointF@@PBV2@@Z @1942
?c2m@?$QVector@VQXmlStreamAttribute@@@@AAEPAVQXmlStreamAttribute@@PBV2@@Z @1943
?c@QLocale@@SA?AV1@XZ @1944
?cachedApplicationFilePath@QCoreApplicationPrivate@@2PAVQString@@A @1945
?caching@QFileInfo@@QBE_NXZ @1946
?callEventTest@QAbstractTransitionPrivate@@QAE_NPAVQEvent@@@Z @1947
?callOnTransition@QAbstractTransitionPrivate@@UAEXPAVQEvent@@@Z @1948
?canConvert@QVariant@@QBE_NH@Z @1949
?canDropMimeData@QAbstractItemModel@@UBE_NPBVQMimeData@@W4DropAction@Qt@@HHABVQModelIndex@@@Z @1950
?canDropMimeData@QAbstractProxyModel@@UBE_NPBVQMimeData@@W4DropAction@Qt@@HHABVQModelIndex@@@Z @1951
?canEncode@QTextCodec@@QBE_NABVQString@@@Z @1952
?canEncode@QTextCodec@@QBE_NVQChar@@@Z @1953
?canFetchMore@QAbstractItemModel@@UBE_NABVQModelIndex@@@Z @1954
?canFetchMore@QAbstractProxyModel@@UBE_NABVQModelIndex@@@Z @1955
?canFetchMore@QSortFilterProxyModel@@UBE_NABVQModelIndex@@@Z @1956
?canIncrementVectorIndex@ResultIteratorBase@QtPrivate@@QBE_NXZ @1957
?canReadLine@QBuffer@@UBE_NXZ @1958
?canReadLine@QIODevice@@UBE_NXZ @1959
?canReadLine@QProcess@@UBE_NXZ @1960
?canReadLine@QWindowsPipeReader@@QBE_NXZ @1961
?canReverseIterate@QSequentialIterable@@QBE_NXZ @1962
?canUninstallAnimationDriver@QUnifiedTimer@@QAE_NPAVQAnimationDriver@@@Z @1963
?canWrite@QWindowsPipeWriter@@QAEXXZ @1964
?cancel@QFutureInterfaceBase@@QAEXXZ @1965
?cancel@QFutureWatcherBase@@QAEXXZ @1966
?cancelAllDelayedEvents@QStateMachinePrivate@@QAEXXZ @1967
?cancelDelayedEvent@QStateMachine@@QAE_NH@Z @1968
?cancelWriting@QSaveFile@@QAEXXZ @1969
?canceled@QFutureWatcherBase@@QAEXXZ @1970
?canonicalFilePath@QFileInfo@@QBE?AVQString@@XZ @1971
?canonicalPath@QDir@@QBE?AVQString@@XZ @1972
?canonicalPath@QFileInfo@@QBE?AVQString@@XZ @1973
?cap@QRegExp@@QAE?AVQString@@H@Z @1974
?cap@QRegExp@@QBE?AVQString@@H@Z @1975
?capacity@?$QVector@VQPoint@@@@QBEHXZ @1976
?capacity@?$QVector@VQPointF@@@@QBEHXZ @1977
?capacity@?$QVector@VQXmlStreamAttribute@@@@QBEHXZ @1978
?capacity@QByteArray@@QBEHXZ @1979
?capacity@QString@@QBEHXZ @1980
?captureCount@QRegExp@@QBEHXZ @1981
?captureCount@QRegularExpression@@QBEHXZ @1982
?captured@QRegularExpressionMatch@@QBE?AVQString@@ABV2@@Z @1983
?captured@QRegularExpressionMatch@@QBE?AVQString@@H@Z @1984
?capturedEnd@QRegularExpressionMatch@@QBEHABVQString@@@Z @1985
?capturedEnd@QRegularExpressionMatch@@QBEHH@Z @1986
?capturedLength@QRegularExpressionMatch@@QBEHABVQString@@@Z @1987
?capturedLength@QRegularExpressionMatch@@QBEHH@Z @1988
?capturedRef@QRegularExpressionMatch@@QBE?AVQStringRef@@ABVQString@@@Z @1989
?capturedRef@QRegularExpressionMatch@@QBE?AVQStringRef@@H@Z @1990
?capturedStart@QRegularExpressionMatch@@QBEHABVQString@@@Z @1991
?capturedStart@QRegularExpressionMatch@@QBEHH@Z @1992
?capturedTexts@QRegExp@@QAE?AVQStringList@@XZ @1993
?capturedTexts@QRegExp@@QBE?AVQStringList@@XZ @1994
?capturedTexts@QRegularExpressionMatch@@QBE?AVQStringList@@XZ @1995
?caseSensitive@QAbstractFileEngine@@UBE_NXZ @1996
?caseSensitive@QFSFileEngine@@UBE_NXZ @1997
?caseSensitivity@QCollator@@QBE?AW4CaseSensitivity@Qt@@XZ @1998
?caseSensitivity@QRegExp@@QBE?AW4CaseSensitivity@Qt@@XZ @1999
?caseSensitivity@QStringMatcher@@QBE?AW4CaseSensitivity@Qt@@XZ @2000
?cast@QMetaObject@@QBEPAVQObject@@PAV2@@Z @2001
?cast@QMetaObject@@QBEPBVQObject@@PBV2@@Z @2002
?category@QChar@@QBE?AW4Category@1@XZ @2003
?category@QChar@@SI?AW4Category@1@I@Z @2004
?category@QCharRef@@QBE?AW4Category@QChar@@XZ @2005
?categoryName@QLoggingCategory@@QBEPBDXZ @2006
?cbegin@?$QList@VQItemSelectionRange@@@@QBE?AVconst_iterator@1@XZ @2007
?cbegin@?$QVector@VQPoint@@@@QBE?AVconst_iterator@?$QTypedArrayData@VQPoint@@@@V23@@Z @2008
?cbegin@?$QVector@VQPoint@@@@QBEPBVQPoint@@XZ @2009
?cbegin@?$QVector@VQPointF@@@@QBE?AVconst_iterator@?$QTypedArrayData@VQPointF@@@@V23@@Z @2010
?cbegin@?$QVector@VQPointF@@@@QBEPBVQPointF@@XZ @2011
?cbegin@?$QVector@VQXmlStreamAttribute@@@@QBEPBVQXmlStreamAttribute@@XZ @2012
?cbegin@QByteArray@@QBEPBDXZ @2013
?cbegin@QString@@QBEPBVQChar@@XZ @2014
?cbegin@QStringRef@@QBEPBVQChar@@XZ @2015
?cd@QDir@@QAE_NABVQString@@@Z @2016
?cdUp@QDir@@QAE_NXZ @2017
?cell@QChar@@QBEEXZ @2018
?cell@QCharRef@@QBEEXZ @2019
?cend@?$QList@VQItemSelectionRange@@@@QBE?AVconst_iterator@1@XZ @2020
?cend@?$QVector@VQPoint@@@@QBE?AVconst_iterator@?$QTypedArrayData@VQPoint@@@@V23@@Z @2021
?cend@?$QVector@VQPoint@@@@QBEPBVQPoint@@XZ @2022
?cend@?$QVector@VQPointF@@@@QBE?AVconst_iterator@?$QTypedArrayData@VQPointF@@@@V23@@Z @2023
?cend@?$QVector@VQPointF@@@@QBEPBVQPointF@@XZ @2024
?cend@?$QVector@VQXmlStreamAttribute@@@@QBEPBVQXmlStreamAttribute@@XZ @2025
?cend@QByteArray@@QBEPBDXZ @2026
?cend@QString@@QBEPBVQChar@@XZ @2027
?cend@QStringRef@@QBEPBVQChar@@XZ @2028
?center@@YAAAVQTextStream@@AAV1@@Z @2029
?center@QRect@@QBE?AVQPoint@@XZ @2030
?center@QRectF@@QBE?AVQPointF@@XZ @2031
?changePersistentIndex@QAbstractItemModel@@IAEXABVQModelIndex@@0@Z @2032
?changePersistentIndexList@QAbstractItemModel@@IAEXABV?$QList@VQModelIndex@@@@0@Z @2033
?characterOffset@QXmlStreamReader@@QBE_JXZ @2034
?checkConnectArgs@QMetaObject@@SA_NABVQMetaMethod@@0@Z @2035
?checkConnectArgs@QMetaObject@@SA_NPBD0@Z @2036
?checkInstance@QCoreApplicationPrivate@@SA_NPBD@Z @2037
?checkPipeState@QWindowsPipeReader@@AAEKXZ @2038
?checkQObjectShared@ExternalRefCountData@QtSharedPointer@@QAEXPBVQObject@@@Z @2039
?checkReceiverThread@QCoreApplicationPrivate@@QAEXPAVQObject@@@Z @2040
?child@QChildEvent@@QBEPAVQObject@@XZ @2041
?child@QModelIndex@@QBE?AV1@HH@Z @2042
?child@QPersistentModelIndex@@QBE?AVQModelIndex@@HH@Z @2043
?childEvent@QObject@@MAEXPAVQChildEvent@@@Z @2044
?childGroups@QSettings@@QBE?AVQStringList@@XZ @2045
?childKeys@QSettings@@QBE?AVQStringList@@XZ @2046
?childMode@QState@@QBE?AW4ChildMode@1@XZ @2047
?childModeChanged@QState@@QAEXUQPrivateSignal@1@@Z @2048
?children@QObject@@QBEABV?$QList@PAVQObject@@@@XZ @2049
?children@QResource@@IBE?AVQStringList@@XZ @2050
?chop@QByteArray@@QAEXH@Z @2051
?chop@QString@@QAEXH@Z @2052
?classInfo@QMetaObject@@QBE?AVQMetaClassInfo@@H@Z @2053
?classInfoCount@QMetaObject@@QBEHXZ @2054
?classInfoCount@QMetaObjectBuilder@@QBEHXZ @2055
?classInfoName@QMetaObjectBuilder@@QBE?AVQByteArray@@H@Z @2056
?classInfoOffset@QMetaObject@@QBEHXZ @2057
?classInfoValue@QMetaObjectBuilder@@QBE?AVQByteArray@@H@Z @2058
?className@QMetaObject@@QBEPBDXZ @2059
?className@QMetaObjectBuilder@@QBE?AVQByteArray@@XZ @2060
?cleanConnectionLists@QObjectPrivate@@QAEXXZ @2061
?cleanPath@QDir@@SA?AVQString@@ABV2@@Z @2062
?cleanup@QCollatorPrivate@@QAEXXZ @2063
?cleanupThreadData@QCoreApplicationPrivate@@QAEXXZ @2064
?clear@?$QList@VQItemSelectionRange@@@@QAEXXZ @2065
?clear@?$QVector@VQPoint@@@@QAEXXZ @2066
?clear@?$QVector@VQPointF@@@@QAEXXZ @2067
?clear@?$QVector@VQXmlStreamAttribute@@@@QAEXXZ @2068
?clear@QAnimationGroup@@QAEXXZ @2069
?clear@QBitArray@@QAEXXZ @2070
?clear@QByteArray@@QAEXXZ @2071
?clear@QCollatorPrivate@@QAEXXZ @2072
?clear@QItemSelectionModel@@UAEXXZ @2073
?clear@QMimeData@@QAEXXZ @2074
?clear@QObjectCleanupHandler@@QAEXXZ @2075
?clear@QProcessEnvironment@@QAEXXZ @2076
?clear@QSettings@@QAEXXZ @2077
?clear@QSortFilterProxyModel@@QAEXXZ @2078
?clear@QString@@QAEXXZ @2079
?clear@QStringRef@@QAEXXZ @2080
?clear@QThreadPool@@QAEXXZ @2081
?clear@QThreadPoolPrivate@@QAEXXZ @2082
?clear@QUrl@@QAEXXZ @2083
?clear@QUrlQuery@@QAEXXZ @2084
?clear@QVariant@@QAEXXZ @2085
?clear@QXmlStreamReader@@QAEXXZ @2086
?clear@QXmlStreamStringRef@@QAEXXZ @2087
?clearApplicationFilePath@QCoreApplicationPrivate@@SAXXZ @2088
?clearBit@QBitArray@@QAEXH@Z @2089
?clearCurrentIndex@QItemSelectionModel@@UAEXXZ @2090
?clearError@QStateMachine@@QAEXXZ @2091
?clearHistory@QStateMachinePrivate@@QAEXXZ @2092
?clearPositionalArguments@QCommandLineParser@@QAEXXZ @2093
?clearSelection@QItemSelectionModel@@QAEXXZ @2094
?clockType@QElapsedTimer@@SA?AW4ClockType@1@XZ @2095
?clone@QException@@UBEPAV1@XZ @2096
?clone@QTimeZonePrivate@@UAEPAV1@XZ @2097
?clone@QUnhandledException@@UBEPAV1@XZ @2098
?cloneFlags@QArrayData@@QBE?AV?$QFlags@W4AllocationOption@QArrayData@@@@XZ @2099
?close@QAbstractFileEngine@@UAE_NXZ @2100
?close@QBuffer@@UAEXXZ @2101
?close@QFSFileEngine@@UAE_NXZ @2102
?close@QFileDevice@@UAEXXZ @2103
?close@QIODevice@@UAEXXZ @2104
?close@QProcess@@UAEXXZ @2105
?close@QSaveFile@@EAEXXZ @2106
?closeReadChannel@QProcess@@QAEXW4ProcessChannel@1@@Z @2107
?closeWriteChannel@QProcess@@QAEXXZ @2108
?closestPausedAnimationTimerTimeToFinish@QUnifiedTimer@@AAEHXZ @2109
?closingDown@QAbstractEventDispatcher@@UAEXXZ @2110
?closingDown@QCoreApplication@@SA_NXZ @2111
?closingDown@QEventDispatcherWin32@@UAEXXZ @2112
?cmp@QVariant@@QBE_NABV1@@Z @2113
?codeToCountry@QLocalePrivate@@SA?AW4Country@QLocale@@ABVQString@@@Z @2114
?codeToLanguage@QLocalePrivate@@SA?AW4Language@QLocale@@ABVQString@@@Z @2115
?codeToScript@QLocalePrivate@@SA?AW4Script@QLocale@@ABVQString@@@Z @2116
?codec@QTextStream@@QBEPAVQTextCodec@@XZ @2117
?codec@QXmlStreamWriter@@QBEPAVQTextCodec@@XZ @2118
?codecForHtml@QTextCodec@@SAPAV1@ABVQByteArray@@@Z @2119
?codecForHtml@QTextCodec@@SAPAV1@ABVQByteArray@@PAV1@@Z @2120
?codecForLocale@QTextCodec@@SAPAV1@XZ @2121
?codecForMib@QTextCodec@@SAPAV1@H@Z @2122
?codecForName@QTextCodec@@SAPAV1@ABVQByteArray@@@Z @2123
?codecForName@QTextCodec@@SAPAV1@PBD@Z @2124
?codecForTr@QTextCodec@@SAPAV1@XZ @2125
?codecForUtfText@QTextCodec@@SAPAV1@ABVQByteArray@@@Z @2126
?codecForUtfText@QTextCodec@@SAPAV1@ABVQByteArray@@PAV1@@Z @2127
?color@QMapNodeBase@@QBE?AW4Color@1@XZ @2128
?colorData@QMimeData@@QBE?AVQVariant@@XZ @2129
?column@QModelIndex@@QBEHXZ @2130
?column@QPersistentModelIndex@@QBEHXZ @2131
?columnCount@QAbstractListModel@@EBEHABVQModelIndex@@@Z @2132
?columnCount@QIdentityProxyModel@@UBEHABVQModelIndex@@@Z @2133
?columnCount@QSortFilterProxyModel@@UBEHABVQModelIndex@@@Z @2134
?columnIntersectsSelection@QItemSelectionModel@@QBE_NHABVQModelIndex@@@Z @2135
?columnNumber@QXmlStreamReader@@QBE_JXZ @2136
?columnsAboutToBeInserted@QAbstractItemModel@@QAEXABVQModelIndex@@HHUQPrivateSignal@1@@Z @2137
?columnsAboutToBeInserted@QAbstractItemModelPrivate@@QAEXABVQModelIndex@@HH@Z @2138
?columnsAboutToBeMoved@QAbstractItemModel@@QAEXABVQModelIndex@@HH0HUQPrivateSignal@1@@Z @2139
?columnsAboutToBeRemoved@QAbstractItemModel@@QAEXABVQModelIndex@@HHUQPrivateSignal@1@@Z @2140
?columnsAboutToBeRemoved@QAbstractItemModelPrivate@@QAEXABVQModelIndex@@HH@Z @2141
?columnsInserted@QAbstractItemModel@@QAEXABVQModelIndex@@HHUQPrivateSignal@1@@Z @2142
?columnsInserted@QAbstractItemModelPrivate@@QAEXABVQModelIndex@@HH@Z @2143
?columnsMoved@QAbstractItemModel@@QAEXABVQModelIndex@@HH0HUQPrivateSignal@1@@Z @2144
?columnsRemoved@QAbstractItemModel@@QAEXABVQModelIndex@@HHUQPrivateSignal@1@@Z @2145
?columnsRemoved@QAbstractItemModelPrivate@@QAEXABVQModelIndex@@HH@Z @2146
?combiningClass@QChar@@QBEEXZ @2147
?combiningClass@QChar@@SIEI@Z @2148
?combiningClass@QCharRef@@QBEEXZ @2149
?comment@QMimeType@@QBE?AVQString@@XZ @2150
?comment@QTimeZone@@QBE?AVQString@@XZ @2151
?comment@QTimeZonePrivate@@UBE?AVQString@@XZ @2152
?commit@QSaveFile@@QAE_NXZ @2153
?commonPrefix@QVersionNumber@@SA?AV1@ABV1@0@Z @2154
?compact@QJsonArray@@AAEXXZ @2155
?compact@QJsonObject@@AAEXXZ @2156
?compare@QCollator@@QBEHABVQString@@0@Z @2157
?compare@QCollator@@QBEHABVQStringRef@@0@Z @2158
?compare@QCollator@@QBEHPBVQChar@@H0H@Z @2159
?compare@QCollatorSortKey@@QBEHABV1@@Z @2160
?compare@QMetaType@@SA_NPBX0HPAH@Z @2161
?compare@QString@@QBEHABV1@W4CaseSensitivity@Qt@@@Z @2162
?compare@QString@@QBEHABVQStringRef@@W4CaseSensitivity@Qt@@@Z @2163
?compare@QString@@QBEHVQLatin1String@@W4CaseSensitivity@Qt@@@Z @2164
?compare@QString@@SAHABV1@0W4CaseSensitivity@Qt@@@Z @2165
?compare@QString@@SAHABV1@ABVQStringRef@@W4CaseSensitivity@Qt@@@Z @2166
?compare@QString@@SAHABV1@VQLatin1String@@W4CaseSensitivity@Qt@@@Z @2167
?compare@QString@@SAHVQLatin1String@@ABV1@W4CaseSensitivity@Qt@@@Z @2168
?compare@QStringRef@@QBEHABV1@W4CaseSensitivity@Qt@@@Z @2169
?compare@QStringRef@@QBEHABVQString@@W4CaseSensitivity@Qt@@@Z @2170
?compare@QStringRef@@QBEHVQLatin1String@@W4CaseSensitivity@Qt@@@Z @2171
?compare@QStringRef@@SAHABV1@0W4CaseSensitivity@Qt@@@Z @2172
?compare@QStringRef@@SAHABV1@ABVQString@@W4CaseSensitivity@Qt@@@Z @2173
?compare@QStringRef@@SAHABV1@VQLatin1String@@W4CaseSensitivity@Qt@@@Z @2174
?compare@QVariant@@QBEHABV1@@Z @2175
?compare@QVersionNumber@@SAHABV1@0@Z @2176
?compare_helper@QString@@CAHPBVQChar@@H0HW4CaseSensitivity@Qt@@@Z @2177
?compare_helper@QString@@CAHPBVQChar@@HPBDHW4CaseSensitivity@Qt@@@Z @2178
?compare_helper@QString@@CAHPBVQChar@@HVQLatin1String@@W4CaseSensitivity@Qt@@@Z @2179
?completeAsyncRead@QWindowsPipeReader@@AAE_NKK@Z @2180
?completeBaseName@QFileInfo@@QBE?AVQString@@XZ @2181
?completeSuffix@QFileInfo@@QBE?AVQString@@XZ @2182
?compressEvent@QCoreApplication@@MAE_NPAVQEvent@@PAVQObject@@PAVQPostEventList@@@Z @2183
?computePendingRestorables@QStateMachinePrivate@@QBE?AV?$QHash@U?$QPair@V?$QPointer@VQObject@@@@VQByteArray@@@@VQVariant@@@@ABV?$QList@PAVQAbstractState@@@@@Z @2184
?computePropertyAssignments@QStateMachinePrivate@@QBE?AV?$QHash@PAVQAbstractState@@V?$QList@UQPropertyAssignment@@@@@@ABV?$QList@PAVQAbstractState@@@@AAV?$QHash@U?$QPair@V?$QPointer@VQObject@@@@VQByteArray@@@@VQVariant@@@@@Z @2185
?computeStatesToEnter@QStateMachinePrivate@@QAE?AV?$QList@PAVQAbstractState@@@@ABV?$QList@PAVQAbstractTransition@@@@AAV?$QSet@PAVQAbstractState@@@@@Z @2186
?computeStatesToExit@QStateMachinePrivate@@QAE?AV?$QList@PAVQAbstractState@@@@ABV?$QList@PAVQAbstractTransition@@@@@Z @2187
?configuration@QStateMachine@@QBE?AV?$QSet@PAVQAbstractState@@@@XZ @2188
?connect@QMetaObject@@SA?AVConnection@1@PBVQObject@@H0HHPAH@Z @2189
?connect@QObject@@QBE?AVConnection@QMetaObject@@PBV1@PBD1W4ConnectionType@Qt@@@Z @2190
?connect@QObject@@SA?AVConnection@QMetaObject@@PBV1@ABVQMetaMethod@@01W4ConnectionType@Qt@@@Z @2191
?connect@QObject@@SA?AVConnection@QMetaObject@@PBV1@PBD01W4ConnectionType@Qt@@@Z @2192
?connect@QObjectPrivate@@SA?AVConnection@QMetaObject@@PBVQObject@@HPAVQSlotObjectBase@QtPrivate@@W4ConnectionType@Qt@@@Z @2193
?connectImpl@QObject@@CA?AVConnection@QMetaObject@@PBV1@PAPAX01PAVQSlotObjectBase@QtPrivate@@W4ConnectionType@Qt@@PBHPBU3@@Z @2194
?connectImpl@QObjectPrivate@@SA?AVConnection@QMetaObject@@PBVQObject@@H0PAPAXPAVQSlotObjectBase@QtPrivate@@W4ConnectionType@Qt@@PBHPBU3@@Z @2195
?connectNotify@QBuffer@@MAEXABVQMetaMethod@@@Z @2196
?connectNotify@QFutureWatcherBase@@MAEXABVQMetaMethod@@@Z @2197
?connectNotify@QObject@@MAEXABVQMetaMethod@@@Z @2198
?connectNotify@QObjectPrivate@@QAEXABVQMetaMethod@@@Z @2199
?connectOutputInterface@QFutureWatcherBase@@IAEXXZ @2200
?connectSlotsByName@QMetaObject@@SAXPAVQObject@@@Z @2201
?constBegin@?$QList@VQItemSelectionRange@@@@QBE?AVconst_iterator@1@XZ @2202
?constBegin@?$QVector@VQPoint@@@@QBE?AVconst_iterator@?$QTypedArrayData@VQPoint@@@@V23@@Z @2203
?constBegin@?$QVector@VQPoint@@@@QBEPBVQPoint@@XZ @2204
?constBegin@?$QVector@VQPointF@@@@QBE?AVconst_iterator@?$QTypedArrayData@VQPointF@@@@V23@@Z @2205
?constBegin@?$QVector@VQPointF@@@@QBEPBVQPointF@@XZ @2206
?constBegin@?$QVector@VQXmlStreamAttribute@@@@QBEPBVQXmlStreamAttribute@@XZ @2207
?constBegin@QByteArray@@QBEPBDXZ @2208
?constBegin@QJsonArray@@QBE?AVconst_iterator@1@XZ @2209
?constBegin@QJsonObject@@QBE?AVconst_iterator@1@XZ @2210
?constBegin@QString@@QBEPBVQChar@@XZ @2211
?constData@?$QVector@VQPoint@@@@QBEPBVQPoint@@XZ @2212
?constData@?$QVector@VQPointF@@@@QBEPBVQPointF@@XZ @2213
?constData@?$QVector@VQXmlStreamAttribute@@@@QBEPBVQXmlStreamAttribute@@XZ @2214
?constData@QByteArray@@QBEPBDXZ @2215
?constData@QSharedMemory@@QBEPBXXZ @2216
?constData@QString@@QBEPBVQChar@@XZ @2217
?constData@QStringRef@@QBEPBVQChar@@XZ @2218
?constData@QVariant@@QBEPBXXZ @2219
?constEnd@?$QList@VQItemSelectionRange@@@@QBE?AVconst_iterator@1@XZ @2220
?constEnd@?$QVector@VQPoint@@@@QBE?AVconst_iterator@?$QTypedArrayData@VQPoint@@@@V23@@Z @2221
?constEnd@?$QVector@VQPoint@@@@QBEPBVQPoint@@XZ @2222
?constEnd@?$QVector@VQPointF@@@@QBE?AVconst_iterator@?$QTypedArrayData@VQPointF@@@@V23@@Z @2223
?constEnd@?$QVector@VQPointF@@@@QBEPBVQPointF@@XZ @2224
?constEnd@?$QVector@VQXmlStreamAttribute@@@@QBEPBVQXmlStreamAttribute@@XZ @2225
?constEnd@QByteArray@@QBEPBDXZ @2226
?constEnd@QJsonArray@@QBE?AVconst_iterator@1@XZ @2227
?constEnd@QJsonObject@@QBE?AVconst_iterator@1@XZ @2228
?constEnd@QString@@QBEPBVQChar@@XZ @2229
?constFind@QJsonObject@@QBE?AVconst_iterator@1@ABVQString@@@Z @2230
?construct@QMetaType@@QBEPAXPAXPBX@Z @2231
?construct@QMetaType@@SAPAXHPAXPBX@Z @2232
?construct@QMetaType@@SAPAXHPBX@Z @2233
?constructExtended@QMetaType@@ABEPAXPAXPBX@Z @2234
?constructor@QMetaObject@@QBE?AVQMetaMethod@@H@Z @2235
?constructor@QMetaObjectBuilder@@QBE?AVQMetaMethodBuilder@@H@Z @2236
?constructorCount@QMetaObject@@QBEHXZ @2237
?constructorCount@QMetaObjectBuilder@@QBEHXZ @2238
?contains@?$QList@VQItemSelectionRange@@@@QBE_NABVQItemSelectionRange@@@Z @2239
?contains@?$QVector@VQPoint@@@@QBE_NABVQPoint@@@Z @2240
?contains@?$QVector@VQPointF@@@@QBE_NABVQPointF@@@Z @2241
?contains@?$QVector@VQXmlStreamAttribute@@@@QBE_NABVQXmlStreamAttribute@@@Z @2242
?contains@QByteArray@@QBE_NABV1@@Z @2243
?contains@QByteArray@@QBE_ND@Z @2244
?contains@QByteArray@@QBE_NPBD@Z @2245
?contains@QItemSelection@@QBE_NABVQModelIndex@@@Z @2246
?contains@QItemSelectionRange@@QBE_NABVQModelIndex@@@Z @2247
?contains@QItemSelectionRange@@QBE_NHHABVQModelIndex@@@Z @2248
?contains@QJsonArray@@QBE_NABVQJsonValue@@@Z @2249
?contains@QJsonObject@@QBE_NABVQString@@@Z @2250
?contains@QProcessEnvironment@@QBE_NABVQString@@@Z @2251
?contains@QRect@@QBE_NABV1@_N@Z @2252
?contains@QRect@@QBE_NABVQPoint@@_N@Z @2253
?contains@QRect@@QBE_NHH@Z @2254
?contains@QRect@@QBE_NHH_N@Z @2255
?contains@QRectF@@QBE_NABV1@@Z @2256
?contains@QRectF@@QBE_NABVQPointF@@@Z @2257
?contains@QRectF@@QBE_NNN@Z @2258
?contains@QSettings@@QBE_NABVQString@@@Z @2259
?contains@QString@@QBE_NAAVQRegExp@@@Z @2260
?contains@QString@@QBE_NABV1@W4CaseSensitivity@Qt@@@Z @2261
?contains@QString@@QBE_NABVQRegExp@@@Z @2262
?contains@QString@@QBE_NABVQRegularExpression@@@Z @2263
?contains@QString@@QBE_NABVQRegularExpression@@PAVQRegularExpressionMatch@@@Z @2264
?contains@QString@@QBE_NABVQStringRef@@W4CaseSensitivity@Qt@@@Z @2265
?contains@QString@@QBE_NVQChar@@W4CaseSensitivity@Qt@@@Z @2266
?contains@QString@@QBE_NVQLatin1String@@W4CaseSensitivity@Qt@@@Z @2267
?contains@QStringRef@@QBE_NABV1@W4CaseSensitivity@Qt@@@Z @2268
?contains@QStringRef@@QBE_NABVQString@@W4CaseSensitivity@Qt@@@Z @2269
?contains@QStringRef@@QBE_NVQChar@@W4CaseSensitivity@Qt@@@Z @2270
?contains@QStringRef@@QBE_NVQLatin1String@@W4CaseSensitivity@Qt@@@Z @2271
?contains@ResultStoreBase@QtPrivate@@QBE_NH@Z @2272
?convert@QMetaType@@SA_NPBXHPAXH@Z @2273
?convert@QVariant@@QAE_NH@Z @2274
?convert@QVariant@@QBE_NHPAX@Z @2275
?convertFromAscii@QAbstractConcatenable@@KAXDAAPAVQChar@@@Z @2276
?convertFromAscii@QAbstractConcatenable@@KAXPBDHAAPAVQChar@@@Z @2277
?copy@QAbstractFileEngine@@UAE_NABVQString@@@Z @2278
?copy@QFSFileEngine@@UAE_NABVQString@@@Z @2279
?copy@QFile@@QAE_NABVQString@@@Z @2280
?copy@QFile@@SA_NABVQString@@0@Z @2281
?copyConstruct@?$QVector@VQPoint@@@@AAEXPBVQPoint@@0PAV2@@Z @2282
?copyConstruct@?$QVector@VQPointF@@@@AAEXPBVQPointF@@0PAV2@@Z @2283
?copyConstruct@?$QVector@VQXmlStreamAttribute@@@@AAEXPBVQXmlStreamAttribute@@0PAV2@@Z @2284
?count@?$QList@VQItemSelectionRange@@@@QBEHABVQItemSelectionRange@@@Z @2285
?count@?$QList@VQItemSelectionRange@@@@QBEHXZ @2286
?count@?$QVector@VQPoint@@@@QBEHABVQPoint@@@Z @2287
?count@?$QVector@VQPoint@@@@QBEHXZ @2288
?count@?$QVector@VQPointF@@@@QBEHABVQPointF@@@Z @2289
?count@?$QVector@VQPointF@@@@QBEHXZ @2290
?count@?$QVector@VQXmlStreamAttribute@@@@QBEHABVQXmlStreamAttribute@@@Z @2291
?count@?$QVector@VQXmlStreamAttribute@@@@QBEHXZ @2292
?count@QBitArray@@QBEHXZ @2293
?count@QBitArray@@QBEH_N@Z @2294
?count@QByteArray@@QBEHABV1@@Z @2295
?count@QByteArray@@QBEHD@Z @2296
?count@QByteArray@@QBEHPBD@Z @2297
?count@QByteArray@@QBEHXZ @2298
?count@QDir@@QBEIXZ @2299
?count@QJsonArray@@QBEHXZ @2300
?count@QJsonObject@@QBEHXZ @2301
?count@QString@@QBEHABV1@W4CaseSensitivity@Qt@@@Z @2302
?count@QString@@QBEHABVQRegExp@@@Z @2303
?count@QString@@QBEHABVQRegularExpression@@@Z @2304
?count@QString@@QBEHABVQStringRef@@W4CaseSensitivity@Qt@@@Z @2305
?count@QString@@QBEHVQChar@@W4CaseSensitivity@Qt@@@Z @2306
?count@QString@@QBEHXZ @2307
?count@QStringRef@@QBEHABV1@W4CaseSensitivity@Qt@@@Z @2308
?count@QStringRef@@QBEHABVQString@@W4CaseSensitivity@Qt@@@Z @2309
?count@QStringRef@@QBEHVQChar@@W4CaseSensitivity@Qt@@@Z @2310
?count@QStringRef@@QBEHXZ @2311
?count@ResultStoreBase@QtPrivate@@QBEHXZ @2312
?countriesForLanguage@QLocale@@SA?AV?$QList@W4Country@QLocale@@@@W4Language@1@@Z @2313
?country@QLocale@@QBE?AW4Country@1@XZ @2314
?country@QTimeZone@@QBE?AW4Country@QLocale@@XZ @2315
?country@QTimeZonePrivate@@UBE?AW4Country@QLocale@@XZ @2316
?countryCode@QLocalePrivate@@QBE?AVQString@@XZ @2317
?countryId@QLocalePrivate@@QBEGXZ @2318
?countryToCode@QLocalePrivate@@SA?AVQString@@W4Country@QLocale@@@Z @2319
?countryToString@QLocale@@SA?AVQString@@W4Country@1@@Z @2320
?create@QAbstractFileEngine@@SAPAV1@ABVQString@@@Z @2321
?create@QLocalePrivate@@SAPAV1@PBUQLocaleData@@H@Z @2322
?create@QMetaType@@QBEPAXPBX@Z @2323
?create@QMetaType@@SAPAXHPBX@Z @2324
?create@QNonContiguousByteDeviceFactory@@SAPAVQNonContiguousByteDevice@@PAVQByteArray@@@Z @2325
?create@QNonContiguousByteDeviceFactory@@SAPAVQNonContiguousByteDevice@@PAVQIODevice@@@Z @2326
?create@QNonContiguousByteDeviceFactory@@SAPAVQNonContiguousByteDevice@@V?$QSharedPointer@VQRingBuffer@@@@@Z @2327
?create@QSharedMemory@@QAE_NHW4AccessMode@1@@Z @2328
?create@QVariant@@QAEXHPBX@Z @2329
?createData@QMapDataBase@@SAPAU1@XZ @2330
?createEventDispatcher@QCoreApplicationPrivate@@UAEXXZ @2331
?createExtended@QMetaType@@ABEPAXPBX@Z @2332
?createIndex@QAbstractItemModel@@IBE?AVQModelIndex@@HHI@Z @2333
?createIndex@QAbstractItemModel@@IBE?AVQModelIndex@@HHPAX@Z @2334
?createIndex@QAbstractItemModelPrivate@@QBE?AVQModelIndex@@HHH@Z @2335
?createIndex@QAbstractItemModelPrivate@@QBE?AVQModelIndex@@HHPAX@Z @2336
?createInitialTransition@QStateMachinePrivate@@QBEPAVQAbstractTransition@@XZ @2337
?createInternalHwnd@QEventDispatcherWin32@@IAEXXZ @2338
?createLocalFile@QTemporaryFile@@SAPAV1@AAVQFile@@@Z @2339
?createLocalFile@QTemporaryFile@@SAPAV1@ABVQString@@@Z @2340
?createMutex@QMutexPool@@AAEPAVQMutex@@H@Z @2341
?createNativeFile@QTemporaryFile@@SAPAV1@AAVQFile@@@Z @2342
?createNativeFile@QTemporaryFile@@SAPAV1@ABVQString@@@Z @2343
?createNode@QMapDataBase@@QAEPAUQMapNodeBase@@HHPAU2@_N@Z @2344
?createProperty@QAbstractDynamicMetaObject@@UAEHPBD0@Z @2345
?createSeparatedList@QLocale@@QBE?AVQString@@ABVQStringList@@@Z @2346
?createShared@QNonContiguousByteDeviceFactory@@SA?AV?$QSharedPointer@VQNonContiguousByteDevice@@@@PAVQByteArray@@@Z @2347
?createShared@QNonContiguousByteDeviceFactory@@SA?AV?$QSharedPointer@VQNonContiguousByteDevice@@@@PAVQIODevice@@@Z @2348
?createShared@QNonContiguousByteDeviceFactory@@SA?AV?$QSharedPointer@VQNonContiguousByteDevice@@@@V?$QSharedPointer@VQRingBuffer@@@@@Z @2349
?createUuid@QUuid@@SA?AV1@XZ @2350
?createUuidV3@QUuid@@SA?AV1@ABV1@ABVQByteArray@@@Z @2351
?createUuidV3@QUuid@@SA?AV1@ABV1@ABVQString@@@Z @2352
?createUuidV5@QUuid@@SA?AV1@ABV1@ABVQByteArray@@@Z @2353
?createUuidV5@QUuid@@SA?AV1@ABV1@ABVQString@@@Z @2354
?created@QFileInfo@@QBE?AVQDateTime@@XZ @2355
?critical@QMessageLogger@@QBAXABVQLoggingCategory@@PBDZZ @2356
?critical@QMessageLogger@@QBAXP6AABVQLoggingCategory@@XZPBDZZ @2357
?critical@QMessageLogger@@QBAXPBDZZ @2358
?critical@QMessageLogger@@QBE?AVQDebug@@ABVQLoggingCategory@@@Z @2359
?critical@QMessageLogger@@QBE?AVQDebug@@P6AABVQLoggingCategory@@XZ@Z @2360
?critical@QMessageLogger@@QBE?AVQDebug@@XZ @2361
?ctor@QMetaType@@AAEXPBVQMetaTypeInterface@@@Z @2362
?cubicBezierSpline@QEasingCurve@@QBE?AV?$QList@VQPointF@@@@XZ @2363
?currencySymbol@QLocale@@QBE?AVQString@@W4CurrencySymbolFormat@1@@Z @2364
?current@QDir@@SA?AV1@XZ @2365
?currentAnimation@QSequentialAnimationGroup@@QBEPAVQAbstractAnimation@@XZ @2366
?currentAnimationChanged@QSequentialAnimationGroup@@QAEXPAVQAbstractAnimation@@@Z @2367
?currentChanged@QItemSelectionModel@@QAEXABVQModelIndex@@0@Z @2368
?currentColumnChanged@QItemSelectionModel@@QAEXABVQModelIndex@@0@Z @2369
?currentCpuArchitecture@QSysInfo@@SA?AVQString@@XZ @2370
?currentDate@QDate@@SA?AV1@XZ @2371
?currentDateTime@QDateTime@@SA?AV1@XZ @2372
?currentDateTimeUtc@QDateTime@@SA?AV1@XZ @2373
?currentFileInfo@QAbstractFileEngineIterator@@UBE?AVQFileInfo@@XZ @2374
?currentFilePath@QAbstractFileEngineIterator@@QBE?AVQString@@XZ @2375
?currentFrame@QTimeLine@@QBEHXZ @2376
?currentIndex@QItemSelectionModel@@QBE?AVQModelIndex@@XZ @2377
?currentLoop@QAbstractAnimation@@QBEHXZ @2378
?currentLoopChanged@QAbstractAnimation@@QAEXH@Z @2379
?currentLoopTime@QAbstractAnimation@@QBEHXZ @2380
?currentMSecsSinceEpoch@QDateTime@@SA_JXZ @2381
?currentPath@QDir@@SA?AVQString@@XZ @2382
?currentPath@QFSFileEngine@@SA?AVQString@@ABV2@@Z @2383
?currentRowChanged@QItemSelectionModel@@QAEXABVQModelIndex@@0@Z @2384
?currentThread@QThread@@SAPAV1@XZ @2385
?currentThreadId@QThread@@SAPAXXZ @2386
?currentTime@QAbstractAnimation@@QBEHXZ @2387
?currentTime@QTime@@SA?AV1@XZ @2388
?currentTime@QTimeLine@@QBEHXZ @2389
?currentUnicodeVersion@QChar@@SI?AW4UnicodeVersion@1@XZ @2390
?currentValue@QTimeLine@@QBENXZ @2391
?currentValue@QVariantAnimation@@QBE?AVQVariant@@XZ @2392
?cursorPosition@QDateTimeParser@@UBEHXZ @2393
?curveShape@QTimeLine@@QBE?AW4CurveShape@1@XZ @2394
?customEvent@QObject@@MAEXPAVQEvent@@@Z @2395
?customType@QEasingCurve@@QBEP6ANN@ZXZ @2396
?d_func@QAbstractAnimation@@AAEPAVQAbstractAnimationPrivate@@XZ @2397
?d_func@QAbstractAnimation@@ABEPBVQAbstractAnimationPrivate@@XZ @2398
?d_func@QAbstractEventDispatcher@@AAEPAVQAbstractEventDispatcherPrivate@@XZ @2399
?d_func@QAbstractEventDispatcher@@ABEPBVQAbstractEventDispatcherPrivate@@XZ @2400
?d_func@QAbstractFileEngine@@AAEPAVQAbstractFileEnginePrivate@@XZ @2401
?d_func@QAbstractFileEngine@@ABEPBVQAbstractFileEnginePrivate@@XZ @2402
?d_func@QAbstractItemModel@@AAEPAVQAbstractItemModelPrivate@@XZ @2403
?d_func@QAbstractItemModel@@ABEPBVQAbstractItemModelPrivate@@XZ @2404
?d_func@QAbstractProxyModel@@AAEPAVQAbstractProxyModelPrivate@@XZ @2405
?d_func@QAbstractProxyModel@@ABEPBVQAbstractProxyModelPrivate@@XZ @2406
?d_func@QAbstractState@@AAEPAVQAbstractStatePrivate@@XZ @2407
?d_func@QAbstractState@@ABEPBVQAbstractStatePrivate@@XZ @2408
?d_func@QAbstractTransition@@AAEPAVQAbstractTransitionPrivate@@XZ @2409
?d_func@QAbstractTransition@@ABEPBVQAbstractTransitionPrivate@@XZ @2410
?d_func@QAnimationDriver@@AAEPAVQAnimationDriverPrivate@@XZ @2411
?d_func@QAnimationDriver@@ABEPBVQAnimationDriverPrivate@@XZ @2412
?d_func@QAnimationGroup@@AAEPAVQAnimationGroupPrivate@@XZ @2413
?d_func@QAnimationGroup@@ABEPBVQAnimationGroupPrivate@@XZ @2414
?d_func@QBuffer@@AAEPAVQBufferPrivate@@XZ @2415
?d_func@QBuffer@@ABEPBVQBufferPrivate@@XZ @2416
?d_func@QCoreApplication@@AAEPAVQCoreApplicationPrivate@@XZ @2417
?d_func@QCoreApplication@@ABEPBVQCoreApplicationPrivate@@XZ @2418
?d_func@QDir@@AAEPAVQDirPrivate@@XZ @2419
?d_func@QDir@@ABEPBVQDirPrivate@@XZ @2420
?d_func@QEventDispatcherWin32@@AAEPAVQEventDispatcherWin32Private@@XZ @2421
?d_func@QEventDispatcherWin32@@ABEPBVQEventDispatcherWin32Private@@XZ @2422
?d_func@QEventLoop@@AAEPAVQEventLoopPrivate@@XZ @2423
?d_func@QEventLoop@@ABEPBVQEventLoopPrivate@@XZ @2424
?d_func@QEventTransition@@AAEPAVQEventTransitionPrivate@@XZ @2425
?d_func@QEventTransition@@ABEPBVQEventTransitionPrivate@@XZ @2426
?d_func@QFSFileEngine@@AAEPAVQFSFileEnginePrivate@@XZ @2427
?d_func@QFSFileEngine@@ABEPBVQFSFileEnginePrivate@@XZ @2428
?d_func@QFactoryLoader@@AAEPAVQFactoryLoaderPrivate@@XZ @2429
?d_func@QFactoryLoader@@ABEPBVQFactoryLoaderPrivate@@XZ @2430
?d_func@QFile@@AAEPAVQFilePrivate@@XZ @2431
?d_func@QFile@@ABEPBVQFilePrivate@@XZ @2432
?d_func@QFileDevice@@AAEPAVQFileDevicePrivate@@XZ @2433
?d_func@QFileDevice@@ABEPBVQFileDevicePrivate@@XZ @2434
?d_func@QFileInfo@@AAEPAVQFileInfoPrivate@@XZ @2435
?d_func@QFileInfo@@ABEPBVQFileInfoPrivate@@XZ @2436
?d_func@QFileSelector@@AAEPAVQFileSelectorPrivate@@XZ @2437
?d_func@QFileSelector@@ABEPBVQFileSelectorPrivate@@XZ @2438
?d_func@QFileSystemWatcher@@AAEPAVQFileSystemWatcherPrivate@@XZ @2439
?d_func@QFileSystemWatcher@@ABEPBVQFileSystemWatcherPrivate@@XZ @2440
?d_func@QFinalState@@AAEPAVQFinalStatePrivate@@XZ @2441
?d_func@QFinalState@@ABEPBVQFinalStatePrivate@@XZ @2442
?d_func@QFutureWatcherBase@@AAEPAVQFutureWatcherBasePrivate@@XZ @2443
?d_func@QFutureWatcherBase@@ABEPBVQFutureWatcherBasePrivate@@XZ @2444
?d_func@QHistoryState@@AAEPAVQHistoryStatePrivate@@XZ @2445
?d_func@QHistoryState@@ABEPBVQHistoryStatePrivate@@XZ @2446
?d_func@QIODevice@@AAEPAVQIODevicePrivate@@XZ @2447
?d_func@QIODevice@@ABEPBVQIODevicePrivate@@XZ @2448
?d_func@QIdentityProxyModel@@AAEPAVQIdentityProxyModelPrivate@@XZ @2449
?d_func@QIdentityProxyModel@@ABEPBVQIdentityProxyModelPrivate@@XZ @2450
?d_func@QItemSelectionModel@@AAEPAVQItemSelectionModelPrivate@@XZ @2451
?d_func@QItemSelectionModel@@ABEPBVQItemSelectionModelPrivate@@XZ @2452
?d_func@QLockFile@@AAEPAVQLockFilePrivate@@XZ @2453
?d_func@QLockFile@@ABEPBVQLockFilePrivate@@XZ @2454
?d_func@QMetaEnumBuilder@@ABEPAVQMetaEnumBuilderPrivate@@XZ @2455
?d_func@QMetaMethodBuilder@@ABEPAVQMetaMethodBuilderPrivate@@XZ @2456
?d_func@QMetaPropertyBuilder@@ABEPAVQMetaPropertyBuilderPrivate@@XZ @2457
?d_func@QMimeData@@AAEPAVQMimeDataPrivate@@XZ @2458
?d_func@QMimeData@@ABEPBVQMimeDataPrivate@@XZ @2459
?d_func@QObject@@AAEPAVQObjectPrivate@@XZ @2460
?d_func@QObject@@ABEPBVQObjectPrivate@@XZ @2461
?d_func@QParallelAnimationGroup@@AAEPAVQParallelAnimationGroupPrivate@@XZ @2462
?d_func@QParallelAnimationGroup@@ABEPBVQParallelAnimationGroupPrivate@@XZ @2463
?d_func@QPauseAnimation@@AAEPAVQPauseAnimationPrivate@@XZ @2464
?d_func@QPauseAnimation@@ABEPBVQPauseAnimationPrivate@@XZ @2465
?d_func@QProcess@@AAEPAVQProcessPrivate@@XZ @2466
?d_func@QProcess@@ABEPBVQProcessPrivate@@XZ @2467
?d_func@QPropertyAnimation@@AAEPAVQPropertyAnimationPrivate@@XZ @2468
?d_func@QPropertyAnimation@@ABEPBVQPropertyAnimationPrivate@@XZ @2469
?d_func@QResource@@AAEPAVQResourcePrivate@@XZ @2470
?d_func@QResource@@ABEPBVQResourcePrivate@@XZ @2471
?d_func@QSaveFile@@AAEPAVQSaveFilePrivate@@XZ @2472
?d_func@QSaveFile@@ABEPBVQSaveFilePrivate@@XZ @2473
?d_func@QSequentialAnimationGroup@@AAEPAVQSequentialAnimationGroupPrivate@@XZ @2474
?d_func@QSequentialAnimationGroup@@ABEPBVQSequentialAnimationGroupPrivate@@XZ @2475
?d_func@QSettings@@AAEPAVQSettingsPrivate@@XZ @2476
?d_func@QSettings@@ABEPBVQSettingsPrivate@@XZ @2477
?d_func@QSharedMemory@@AAEPAVQSharedMemoryPrivate@@XZ @2478
?d_func@QSharedMemory@@ABEPBVQSharedMemoryPrivate@@XZ @2479
?d_func@QSignalMapper@@AAEPAVQSignalMapperPrivate@@XZ @2480
?d_func@QSignalMapper@@ABEPBVQSignalMapperPrivate@@XZ @2481
?d_func@QSignalTransition@@AAEPAVQSignalTransitionPrivate@@XZ @2482
?d_func@QSignalTransition@@ABEPBVQSignalTransitionPrivate@@XZ @2483
?d_func@QSocketNotifier@@AAEPAVQSocketNotifierPrivate@@XZ @2484
?d_func@QSocketNotifier@@ABEPBVQSocketNotifierPrivate@@XZ @2485
?d_func@QSortFilterProxyModel@@AAEPAVQSortFilterProxyModelPrivate@@XZ @2486
?d_func@QSortFilterProxyModel@@ABEPBVQSortFilterProxyModelPrivate@@XZ @2487
?d_func@QState@@AAEPAVQStatePrivate@@XZ @2488
?d_func@QState@@ABEPBVQStatePrivate@@XZ @2489
?d_func@QStateMachine@@AAEPAVQStateMachinePrivate@@XZ @2490
?d_func@QStateMachine@@ABEPBVQStateMachinePrivate@@XZ @2491
?d_func@QTemporaryFile@@AAEPAVQTemporaryFilePrivate@@XZ @2492
?d_func@QTemporaryFile@@ABEPBVQTemporaryFilePrivate@@XZ @2493
?d_func@QTextStream@@AAEPAVQTextStreamPrivate@@XZ @2494
?d_func@QTextStream@@ABEPBVQTextStreamPrivate@@XZ @2495
?d_func@QThread@@AAEPAVQThreadPrivate@@XZ @2496
?d_func@QThread@@ABEPBVQThreadPrivate@@XZ @2497
?d_func@QThreadPool@@AAEPAVQThreadPoolPrivate@@XZ @2498
?d_func@QThreadPool@@ABEPBVQThreadPoolPrivate@@XZ @2499
?d_func@QTimeLine@@AAEPAVQTimeLinePrivate@@XZ @2500
?d_func@QTimeLine@@ABEPBVQTimeLinePrivate@@XZ @2501
?d_func@QTranslator@@AAEPAVQTranslatorPrivate@@XZ @2502
?d_func@QTranslator@@ABEPBVQTranslatorPrivate@@XZ @2503
?d_func@QVariantAnimation@@AAEPAVQVariantAnimationPrivate@@XZ @2504
?d_func@QVariantAnimation@@ABEPBVQVariantAnimationPrivate@@XZ @2505
?d_func@QWinEventNotifier@@AAEPAVQWinEventNotifierPrivate@@XZ @2506
?d_func@QWinEventNotifier@@ABEPBVQWinEventNotifierPrivate@@XZ @2507
?d_func@QWinOverlappedIoNotifier@@AAEPAVQWinOverlappedIoNotifierPrivate@@XZ @2508
?d_func@QWinOverlappedIoNotifier@@ABEPBVQWinOverlappedIoNotifierPrivate@@XZ @2509
?d_func@QXmlStreamReader@@AAEPAVQXmlStreamReaderPrivate@@XZ @2510
?d_func@QXmlStreamReader@@ABEPBVQXmlStreamReaderPrivate@@XZ @2511
?d_func@QXmlStreamWriter@@AAEPAVQXmlStreamWriterPrivate@@XZ @2512
?d_func@QXmlStreamWriter@@ABEPBVQXmlStreamWriterPrivate@@XZ @2513
?data@?$QVector@VQPoint@@@@QAEPAVQPoint@@XZ @2514
?data@?$QVector@VQPoint@@@@QBEPBVQPoint@@XZ @2515
?data@?$QVector@VQPointF@@@@QAEPAVQPointF@@XZ @2516
?data@?$QVector@VQPointF@@@@QBEPBVQPointF@@XZ @2517
?data@?$QVector@VQXmlStreamAttribute@@@@QAEPAVQXmlStreamAttribute@@XZ @2518
?data@?$QVector@VQXmlStreamAttribute@@@@QBEPBVQXmlStreamAttribute@@XZ @2519
?data@QAbstractProxyModel@@UBE?AVQVariant@@ABVQModelIndex@@H@Z @2520
?data@QArrayData@@QAEPAXXZ @2521
?data@QArrayData@@QBEPBXXZ @2522
?data@QBuffer@@QBEABVQByteArray@@XZ @2523
?data@QByteArray@@QAEPADXZ @2524
?data@QByteArray@@QBEPBDXZ @2525
?data@QGenericArgument@@QBEPAXXZ @2526
?data@QMimeData@@QBE?AVQByteArray@@ABVQString@@@Z @2527
?data@QModelIndex@@QBE?AVQVariant@@H@Z @2528
?data@QPersistentModelIndex@@QBE?AVQVariant@@H@Z @2529
?data@QResource@@QBEPBEXZ @2530
?data@QSharedMemory@@QAEPAXXZ @2531
?data@QSharedMemory@@QBEPBXXZ @2532
?data@QSortFilterProxyModel@@UBE?AVQVariant@@ABVQModelIndex@@H@Z @2533
?data@QString@@QAEPAVQChar@@XZ @2534
?data@QString@@QBEPBVQChar@@XZ @2535
?data@QStringListModel@@UBE?AVQVariant@@ABVQModelIndex@@H@Z @2536
?data@QStringRef@@QBEPBVQChar@@XZ @2537
?data@QTimeZonePrivate@@UBE?AUData@1@_J@Z @2538
?data@QVariant@@QAEPAXXZ @2539
?data@QVariant@@QBEPBXXZ @2540
?dataChanged@QAbstractItemModel@@QAEXABVQModelIndex@@0ABV?$QVector@H@@@Z @2541
?dataForLocalTime@QTimeZonePrivate@@UBE?AUData@1@_J@Z @2542
?data_ptr@QBitArray@@QAEAAPAU?$QTypedArrayData@D@@XZ @2543
?data_ptr@QByteArray@@QAEAAPAU?$QTypedArrayData@D@@XZ @2544
?data_ptr@QString@@QAEAAPAU?$QTypedArrayData@G@@XZ @2545
?data_ptr@QUrl@@QAEAAPAVQUrlPrivate@@XZ @2546
?data_ptr@QUrlQuery@@QAEAAV?$QSharedDataPointer@VQUrlQueryPrivate@@@@XZ @2547
?data_ptr@QVariant@@QAEAAUPrivate@1@XZ @2548
?data_ptr@QVariant@@QBEABUPrivate@1@XZ @2549
?date@QDateTime@@QBE?AVQDate@@XZ @2550
?dateFormat@QLocale@@QBE?AVQString@@W4FormatType@1@@Z @2551
?dateTimeFormat@QLocale@@QBE?AVQString@@W4FormatType@1@@Z @2552
?dateTimeToString@QLocalePrivate@@QBE?AVQString@@ABV2@ABVQDateTime@@ABVQDate@@ABVQTime@@PBVQLocale@@@Z @2553
?day@QDate@@QBEHXZ @2554
?dayName@QLocale@@QBE?AVQString@@HW4FormatType@1@@Z @2555
?dayOfWeek@QDate@@QBEHXZ @2556
?dayOfYear@QDate@@QBEHXZ @2557
?daylightTimeOffset@QTimeZone@@QBEHABVQDateTime@@@Z @2558
?daylightTimeOffset@QTimeZonePrivate@@UBEH_J@Z @2559
?daysInMonth@QDate@@QBEHXZ @2560
?daysInYear@QDate@@QBEHXZ @2561
?daysTo@QDate@@QBE_JABV1@@Z @2562
?daysTo@QDateTime@@QBE_JABV1@@Z @2563
?dealloc@?$QList@VQItemSelectionRange@@@@AAEXPAUData@QListData@@@Z @2564
?deallocate@QArrayData@@SAXPAU1@II@Z @2565
?debug@QMessageLogger@@QBAXABVQLoggingCategory@@PBDZZ @2566
?debug@QMessageLogger@@QBAXP6AABVQLoggingCategory@@XZPBDZZ @2567
?debug@QMessageLogger@@QBAXPBDZZ @2568
?debug@QMessageLogger@@QBE?AVQDebug@@ABVQLoggingCategory@@@Z @2569
?debug@QMessageLogger@@QBE?AVQDebug@@P6AABVQLoggingCategory@@XZ@Z @2570
?debug@QMessageLogger@@QBE?AVQDebug@@XZ @2571
?debugStream@QMetaType@@SA_NAAVQDebug@@PBXH@Z @2572
?dec@@YAAAVQTextStream@@AAV1@@Z @2573
?decimal@QLocalePrivate@@QBE?AVQChar@@XZ @2574
?decimalPoint@QLocale@@QBE?AVQChar@@XZ @2575
?decodeData@QAbstractItemModel@@IAE_NHHABVQModelIndex@@AAVQDataStream@@@Z @2576
?decodeMSG@@YA?AVQString@@ABUtagMSG@@@Z @2577
?decodeName@QFile@@SA?AVQString@@ABVQByteArray@@@Z @2578
?decodeName@QFile@@SA?AVQString@@PBD@Z @2579
?decomposition@QChar@@QBE?AVQString@@XZ @2580
?decomposition@QChar@@SI?AVQString@@I@Z @2581
?decomposition@QCharRef@@QBE?AVQString@@XZ @2582
?decompositionTag@QChar@@QBE?AW4Decomposition@1@XZ @2583
?decompositionTag@QChar@@SI?AW4Decomposition@1@I@Z @2584
?decompositionTag@QCharRef@@QBE?AW4Decomposition@QChar@@XZ @2585
?defaultAnimations@QStateMachine@@QBE?AV?$QList@PAVQAbstractAnimation@@@@XZ @2586
?defaultCategory@QLoggingCategory@@SAPAV1@XZ @2587
?defaultConstruct@?$QVector@VQPoint@@@@AAEXPAVQPoint@@0@Z @2588
?defaultConstruct@?$QVector@VQPointF@@@@AAEXPAVQPointF@@0@Z @2589
?defaultConstruct@?$QVector@VQXmlStreamAttribute@@@@AAEXPAVQXmlStreamAttribute@@0@Z @2590
?defaultFormat@QSettings@@SA?AW4Format@1@XZ @2591
?defaultQueryPairDelimiter@QUrlQuery@@SA?AVQChar@@XZ @2592
?defaultQueryValueDelimiter@QUrlQuery@@SA?AVQChar@@XZ @2593
?defaultRoleNames@QAbstractItemModelPrivate@@SAABV?$QHash@HVQByteArray@@@@XZ @2594
?defaultState@QHistoryState@@QBEPAVQAbstractState@@XZ @2595
?defaultStateChanged@QHistoryState@@QAEXUQPrivateSignal@1@@Z @2596
?defaultValues@QCommandLineOption@@QBE?AVQStringList@@XZ @2597
?deleteChildren@QObjectPrivate@@QAEXXZ @2598
?deleteLater@QObject@@QAEXXZ @2599
?dequeueExternalEvent@QStateMachinePrivate@@QAEPAVQEvent@@XZ @2600
?dequeueInternalEvent@QStateMachinePrivate@@QAEPAVQEvent@@XZ @2601
?deref@QCoreApplicationPrivate@@QAEXXZ @2602
?derefT@QFutureInterfaceBase@@IBE_NXZ @2603
?description@QCommandLineOption@@QBE?AVQString@@XZ @2604
?deserialize@QMetaObjectBuilder@@QAEXAAVQDataStream@@ABV?$QMap@VQByteArray@@PBUQMetaObject@@@@@Z @2605
?destroy@QMetaType@@QBEXPAX@Z @2606
?destroy@QMetaType@@SAXHPAX@Z @2607
?destroyExtended@QMetaType@@ABEXPAX@Z @2608
?destroyed@QAbstractDeclarativeData@@2P6AXPAV1@PAVQObject@@@ZA @2609
?destroyed@QObject@@QAEXPAV1@@Z @2610
?destroyed_qml1@QAbstractDeclarativeData@@2P6AXPAV1@PAVQObject@@@ZA @2611
?destruct@?$QVector@VQPoint@@@@AAEXPAVQPoint@@0@Z @2612
?destruct@?$QVector@VQPointF@@@@AAEXPAVQPointF@@0@Z @2613
?destruct@?$QVector@VQXmlStreamAttribute@@@@AAEXPAVQXmlStreamAttribute@@0@Z @2614
?destruct@QMetaType@@QBEXPAX@Z @2615
?destruct@QMetaType@@SAXHPAX@Z @2616
?destructExtended@QMetaType@@ABEXPAX@Z @2617
?detach@?$QList@VQItemSelectionRange@@@@QAEXXZ @2618
?detach@?$QVector@VQPoint@@@@QAEXXZ @2619
?detach@?$QVector@VQPointF@@@@QAEXXZ @2620
?detach@?$QVector@VQXmlStreamAttribute@@@@QAEXXZ @2621
?detach@QBitArray@@QAEXXZ @2622
?detach@QByteArray@@QAEXXZ @2623
?detach@QCollator@@AAEXXZ @2624
?detach@QDateTime@@AAEXXZ @2625
?detach@QJsonArray@@AAEXI@Z @2626
?detach@QJsonObject@@AAEXI@Z @2627
?detach@QJsonValue@@AAEXXZ @2628
?detach@QListData@@QAEPAUData@1@H@Z @2629
?detach@QSharedMemory@@QAE_NXZ @2630
?detach@QString@@QAEXXZ @2631
?detach@QUrl@@QAEXXZ @2632
?detach@QVariant@@QAEXXZ @2633
?detachCapacity@QArrayData@@QBEII@Z @2634
?detachFlags@QArrayData@@QBE?AV?$QFlags@W4AllocationOption@QArrayData@@@@XZ @2635
?detachShared@?$QList@VQItemSelectionRange@@@@QAEXXZ @2636
?detach_grow@QListData@@QAEPAUData@1@PAHH@Z @2637
?detach_helper@?$QList@VQItemSelectionRange@@@@AAEXH@Z @2638
?detach_helper@?$QList@VQItemSelectionRange@@@@AAEXXZ @2639
?detach_helper@QHashData@@QAEPAU1@P6AXPAUNode@1@PAX@ZP6AX0@ZHH@Z @2640
?detach_helper_grow@?$QList@VQItemSelectionRange@@@@AAEPAUNode@1@HH@Z @2641
?device@QDataStream@@QBEPAVQIODevice@@XZ @2642
?device@QStorageInfo@@QBE?AVQByteArray@@XZ @2643
?device@QTextStream@@QBEPAVQIODevice@@XZ @2644
?device@QXmlStreamReader@@QBEPAVQIODevice@@XZ @2645
?device@QXmlStreamWriter@@QBEPAVQIODevice@@XZ @2646
?digitValue@QChar@@QBEHXZ @2647
?digitValue@QChar@@SIHI@Z @2648
?digitValue@QCharRef@@QBEHXZ @2649
?dir@QFileInfo@@QBE?AVQDir@@XZ @2650
?dirName@QDir@@QBE?AVQString@@XZ @2651
?directWriteFallback@QSaveFile@@QBE_NXZ @2652
?direction@QAbstractAnimation@@QBE?AW4Direction@1@XZ @2653
?direction@QChar@@QBE?AW4Direction@1@XZ @2654
?direction@QChar@@SI?AW4Direction@1@I@Z @2655
?direction@QCharRef@@QBE?AW4Direction@QChar@@XZ @2656
?direction@QTimeLine@@QBE?AW4Direction@1@XZ @2657
?directionChanged@QAbstractAnimation@@QAEXW4Direction@1@@Z @2658
?directories@QFileSystemWatcher@@QBE?AVQStringList@@XZ @2659
?directoryChanged@QFileSystemWatcher@@QAEXABVQString@@UQPrivateSignal@1@@Z @2660
?disableReset@QNonContiguousByteDevice@@QAEXXZ @2661
?disconnect@QMetaObject@@SA_NPBVQObject@@H0H@Z @2662
?disconnect@QObject@@QBE_NPBDPBV1@0@Z @2663
?disconnect@QObject@@QBE_NPBV1@PBD@Z @2664
?disconnect@QObject@@SA_NABVConnection@QMetaObject@@@Z @2665
?disconnect@QObject@@SA_NPBV1@ABVQMetaMethod@@01@Z @2666
?disconnect@QObject@@SA_NPBV1@PBD01@Z @2667
?disconnect@QObjectPrivate@@SA_NPBVQObject@@HPAPAX@Z @2668
?disconnectImpl@QObject@@CA_NPBV1@PAPAX01PBUQMetaObject@@@Z @2669
?disconnectNotify@QBuffer@@MAEXABVQMetaMethod@@@Z @2670
?disconnectNotify@QFutureWatcherBase@@MAEXABVQMetaMethod@@@Z @2671
?disconnectNotify@QObject@@MAEXABVQMetaMethod@@@Z @2672
?disconnectNotify@QObjectPrivate@@QAEXABVQMetaMethod@@@Z @2673
?disconnectOne@QMetaObject@@SA_NPBVQObject@@H0H@Z @2674
?disconnectOutputInterface@QFutureWatcherBase@@IAEX_N@Z @2675
?displayName@QStandardPaths@@SA?AVQString@@W4StandardLocation@1@@Z @2676
?displayName@QStorageInfo@@QBE?AVQString@@XZ @2677
?displayName@QTimeZone@@QBE?AVQString@@ABVQDateTime@@W4NameType@1@ABVQLocale@@@Z @2678
?displayName@QTimeZone@@QBE?AVQString@@W4TimeType@1@W4NameType@1@ABVQLocale@@@Z @2679
?displayName@QTimeZonePrivate@@UBE?AVQString@@W4TimeType@QTimeZone@@W4NameType@4@ABVQLocale@@@Z @2680
?displayName@QTimeZonePrivate@@UBE?AVQString@@_JW4NameType@QTimeZone@@ABVQLocale@@@Z @2681
?displayText@QDateTimeParser@@UBE?AVQString@@XZ @2682
?dispose@QListData@@QAEXXZ @2683
?dispose@QListData@@SAXPAUData@1@@Z @2684
?doSetRoleNames@QAbstractItemModel@@AAEXABV?$QHash@HVQByteArray@@@@@Z @2685
?doSetSupportedDragActions@QAbstractItemModel@@AAEXV?$QFlags@W4DropAction@Qt@@@@@Z @2686
?doWsaAsyncSelect@QEventDispatcherWin32Private@@QAEXH@Z @2687
?documentEncoding@QXmlStreamReader@@QBE?AVQStringRef@@XZ @2688
?documentVersion@QXmlStreamReader@@QBE?AVQStringRef@@XZ @2689
?dotProduct@QPoint@@SAHABV1@0@Z @2690
?dotProduct@QPointF@@SANABV1@0@Z @2691
?drives@QDir@@SA?AV?$QList@VQFileInfo@@@@XZ @2692
?drives@QFSFileEngine@@SA?AV?$QList@VQFileInfo@@@@XZ @2693
?dropMimeData@QAbstractItemModel@@UAE_NPBVQMimeData@@W4DropAction@Qt@@HHABVQModelIndex@@@Z @2694
?dropMimeData@QAbstractListModel@@UAE_NPBVQMimeData@@W4DropAction@Qt@@HHABVQModelIndex@@@Z @2695
?dropMimeData@QAbstractProxyModel@@UAE_NPBVQMimeData@@W4DropAction@Qt@@HHABVQModelIndex@@@Z @2696
?dropMimeData@QAbstractTableModel@@UAE_NPBVQMimeData@@W4DropAction@Qt@@HHABVQModelIndex@@@Z @2697
?dropMimeData@QIdentityProxyModel@@UAE_NPBVQMimeData@@W4DropAction@Qt@@HHABVQModelIndex@@@Z @2698
?dropMimeData@QSortFilterProxyModel@@UAE_NPBVQMimeData@@W4DropAction@Qt@@HHABVQModelIndex@@@Z @2699
?ds@QTime@@ABEHXZ @2700
?dtdName@QXmlStreamReader@@QBE?AVQStringRef@@XZ @2701
?dtdPublicId@QXmlStreamReader@@QBE?AVQStringRef@@XZ @2702
?dtdSystemId@QXmlStreamReader@@QBE?AVQStringRef@@XZ @2703
?dtor@QMetaType@@AAEXXZ @2704
?dummyLocked@QBasicMutex@@CAPAVQMutexData@@XZ @2705
?dumpObjectInfo@QObject@@QAEXXZ @2706
?dumpObjectTree@QObject@@QAEXXZ @2707
?duration@QParallelAnimationGroup@@UBEHXZ @2708
?duration@QPauseAnimation@@UBEHXZ @2709
?duration@QSequentialAnimationGroup@@UBEHXZ @2710
?duration@QTimeLine@@QBEHXZ @2711
?duration@QVariantAnimation@@UBEHXZ @2712
?dx@QLine@@QBEHXZ @2713
?dx@QLineF@@QBENXZ @2714
?dy@QLine@@QBEHXZ @2715
?dy@QLineF@@QBENXZ @2716
?dynamicMetaObject@QObjectData@@QBEPAUQMetaObject@@XZ @2717
?dynamicPropertyNames@QObject@@QBE?AV?$QList@VQByteArray@@@@XZ @2718
?dynamicSortFilter@QSortFilterProxyModel@@QBE_NXZ @2719
?easingCurve@QTimeLine@@QBE?AVQEasingCurve@@XZ @2720
?easingCurve@QVariantAnimation@@QBE?AVQEasingCurve@@XZ @2721
?elapsed@QAnimationDriver@@UBE_JXZ @2722
?elapsed@QElapsedTimer@@QBE_JXZ @2723
?elapsed@QTime@@QBEHXZ @2724
?elapsed@QUnifiedTimer@@QBE_JXZ @2725
?emitSelectionChanged@QItemSelectionModel@@IAEXABVQItemSelection@@0@Z @2726
?emitTriggered@QAbstractTransitionPrivate@@QAEXXZ @2727
?empty@?$QList@VQItemSelectionRange@@@@QBE_NXZ @2728
?empty@?$QVector@VQPoint@@@@QBE_NXZ @2729
?empty@?$QVector@VQPointF@@@@QBE_NXZ @2730
?empty@?$QVector@VQXmlStreamAttribute@@@@QBE_NXZ @2731
?empty@QJsonArray@@QBE_NXZ @2732
?empty@QJsonObject@@QBE_NXZ @2733
?enableTestMode@QStandardPaths@@SAX_N@Z @2734
?enclosingMetaObject@QMetaClassInfo@@QBEPBUQMetaObject@@XZ @2735
?enclosingMetaObject@QMetaEnum@@QBEPBUQMetaObject@@XZ @2736
?enclosingMetaObject@QMetaMethod@@QBEPBUQMetaObject@@XZ @2737
?enclosingMetaObject@QMetaProperty@@QBEPBUQMetaObject@@XZ @2738
?encodeData@QAbstractItemModel@@IBEXABV?$QList@VQModelIndex@@@@AAVQDataStream@@@Z @2739
?encodeName@QFile@@SA?AVQByteArray@@ABVQString@@@Z @2740
?encodedFragment@QUrl@@QBE?AVQByteArray@@XZ @2741
?encodedHost@QUrl@@QBE?AVQByteArray@@XZ @2742
?encodedPassword@QUrl@@QBE?AVQByteArray@@XZ @2743
?encodedPath@QUrl@@QBE?AVQByteArray@@XZ @2744
?encodedQuery@QUrl@@QBE?AVQByteArray@@XZ @2745
?encodedQueryItemValue@QUrl@@QBE?AVQByteArray@@ABV2@@Z @2746
?encodedQueryItems@QUrl@@QBE?AV?$QList@U?$QPair@VQByteArray@@V1@@@@@XZ @2747
?encodedUserName@QUrl@@QBE?AVQByteArray@@XZ @2748
?end@?$QList@VQItemSelectionRange@@@@QAE?AViterator@1@XZ @2749
?end@?$QList@VQItemSelectionRange@@@@QBE?AVconst_iterator@1@XZ @2750
?end@?$QVector@VQPoint@@@@QAE?AViterator@?$QTypedArrayData@VQPoint@@@@V23@@Z @2751
?end@?$QVector@VQPoint@@@@QAEPAVQPoint@@XZ @2752
?end@?$QVector@VQPoint@@@@QBE?AVconst_iterator@?$QTypedArrayData@VQPoint@@@@V23@@Z @2753
?end@?$QVector@VQPoint@@@@QBEPBVQPoint@@XZ @2754
?end@?$QVector@VQPointF@@@@QAE?AViterator@?$QTypedArrayData@VQPointF@@@@V23@@Z @2755
?end@?$QVector@VQPointF@@@@QAEPAVQPointF@@XZ @2756
?end@?$QVector@VQPointF@@@@QBE?AVconst_iterator@?$QTypedArrayData@VQPointF@@@@V23@@Z @2757
?end@?$QVector@VQPointF@@@@QBEPBVQPointF@@XZ @2758
?end@?$QVector@VQXmlStreamAttribute@@@@QAEPAVQXmlStreamAttribute@@XZ @2759
?end@?$QVector@VQXmlStreamAttribute@@@@QBEPBVQXmlStreamAttribute@@XZ @2760
?end@QAssociativeIterable@@QBE?AUconst_iterator@1@XZ @2761
?end@QByteArray@@QAEPADXZ @2762
?end@QByteArray@@QBEPBDXZ @2763
?end@QJsonArray@@QAE?AViterator@1@XZ @2764
?end@QJsonArray@@QBE?AVconst_iterator@1@XZ @2765
?end@QJsonObject@@QAE?AViterator@1@XZ @2766
?end@QJsonObject@@QBE?AVconst_iterator@1@XZ @2767
?end@QListData@@QBEPAPAXXZ @2768
?end@QSequentialIterable@@QBE?AUconst_iterator@1@XZ @2769
?end@QString@@QAEPAVQChar@@XZ @2770
?end@QString@@QBEPBVQChar@@XZ @2771
?end@QStringRef@@QBEPBVQChar@@XZ @2772
?end@ResultStoreBase@QtPrivate@@QBE?AVResultIteratorBase@2@XZ @2773
?end@const_iterator@QAssociativeIterable@@AAEXXZ @2774
?end@const_iterator@QSequentialIterable@@AAEXXZ @2775
?endArray@QSettings@@QAEXXZ @2776
?endEntryList@QAbstractFileEngine@@UAEPAVQAbstractFileEngineIterator@@XZ @2777
?endEntryList@QFSFileEngine@@UAEPAVQAbstractFileEngineIterator@@XZ @2778
?endFrame@QTimeLine@@QBEHXZ @2779
?endGroup@QSettings@@QAEXXZ @2780
?endInsertColumns@QAbstractItemModel@@IAEXXZ @2781
?endInsertRows@QAbstractItemModel@@IAEXXZ @2782
?endMicrostep@QStateMachine@@MAEXPAVQEvent@@@Z @2783
?endMoveColumns@QAbstractItemModel@@IAEXXZ @2784
?endMoveRows@QAbstractItemModel@@IAEXXZ @2785
?endRemoveColumns@QAbstractItemModel@@IAEXXZ @2786
?endRemoveRows@QAbstractItemModel@@IAEXXZ @2787
?endResetModel@QAbstractItemModel@@IAEXXZ @2788
?endSelectTransitions@QStateMachine@@MAEXPAVQEvent@@@Z @2789
?endValue@QVariantAnimation@@QBE?AVQVariant@@XZ @2790
?endl@@YAAAVQTextStream@@AAV1@@Z @2791
?endsWith@?$QList@VQItemSelectionRange@@@@QBE_NABVQItemSelectionRange@@@Z @2792
?endsWith@?$QVector@VQPoint@@@@QBE_NABVQPoint@@@Z @2793
?endsWith@?$QVector@VQPointF@@@@QBE_NABVQPointF@@@Z @2794
?endsWith@?$QVector@VQXmlStreamAttribute@@@@QBE_NABVQXmlStreamAttribute@@@Z @2795
?endsWith@QByteArray@@QBE_NABV1@@Z @2796
?endsWith@QByteArray@@QBE_ND@Z @2797
?endsWith@QByteArray@@QBE_NPBD@Z @2798
?endsWith@QString@@QBE_NABV1@W4CaseSensitivity@Qt@@@Z @2799
?endsWith@QString@@QBE_NABVQStringRef@@W4CaseSensitivity@Qt@@@Z @2800
?endsWith@QString@@QBE_NVQChar@@W4CaseSensitivity@Qt@@@Z @2801
?endsWith@QString@@QBE_NVQLatin1String@@W4CaseSensitivity@Qt@@@Z @2802
?endsWith@QStringRef@@QBE_NABV1@W4CaseSensitivity@Qt@@@Z @2803
?endsWith@QStringRef@@QBE_NABVQString@@W4CaseSensitivity@Qt@@@Z @2804
?endsWith@QStringRef@@QBE_NVQChar@@W4CaseSensitivity@Qt@@@Z @2805
?endsWith@QStringRef@@QBE_NVQLatin1String@@W4CaseSensitivity@Qt@@@Z @2806
?enqueueTask@QThreadPoolPrivate@@QAEXPAVQRunnable@@H@Z @2807
?enter@QMetaStringTable@@QAEHABVQByteArray@@@Z @2808
?enterStates@QStateMachinePrivate@@QAEXPAVQEvent@@ABV?$QList@PAVQAbstractState@@@@1ABV?$QSet@PAVQAbstractState@@@@AAV?$QHash@PAVQAbstractState@@V?$QList@UQPropertyAssignment@@@@@@ABV?$QList@PAVQAbstractAnimation@@@@@Z @2809
?entered@QAbstractState@@QAEXUQPrivateSignal@1@@Z @2810
?entityDeclarations@QXmlStreamReader@@QBE?AV?$QVector@VQXmlStreamEntityDeclaration@@@@XZ @2811
?entityResolver@QXmlStreamReader@@QBEPAVQXmlStreamEntityResolver@@XZ @2812
?entryInfo@QAbstractFileEngineIterator@@MBE?AVQVariant@@W4EntryInfoType@1@@Z @2813
?entryInfoList@QDir@@QBE?AV?$QList@VQFileInfo@@@@ABVQStringList@@V?$QFlags@W4Filter@QDir@@@@V?$QFlags@W4SortFlag@QDir@@@@@Z @2814
?entryInfoList@QDir@@QBE?AV?$QList@VQFileInfo@@@@V?$QFlags@W4Filter@QDir@@@@V?$QFlags@W4SortFlag@QDir@@@@@Z @2815
?entryList@QAbstractFileEngine@@UBE?AVQStringList@@V?$QFlags@W4Filter@QDir@@@@ABV2@@Z @2816
?entryList@QDir@@QBE?AVQStringList@@ABV2@V?$QFlags@W4Filter@QDir@@@@V?$QFlags@W4SortFlag@QDir@@@@@Z @2817
?entryList@QDir@@QBE?AVQStringList@@V?$QFlags@W4Filter@QDir@@@@V?$QFlags@W4SortFlag@QDir@@@@@Z @2818
?entryList@QFSFileEngine@@UBE?AVQStringList@@V?$QFlags@W4Filter@QDir@@@@ABV2@@Z @2819
?enumerator@QMetaObject@@QBE?AVQMetaEnum@@H@Z @2820
?enumerator@QMetaObjectBuilder@@QBE?AVQMetaEnumBuilder@@H@Z @2821
?enumerator@QMetaProperty@@QBE?AVQMetaEnum@@XZ @2822
?enumeratorCount@QMetaObject@@QBEHXZ @2823
?enumeratorCount@QMetaObjectBuilder@@QBEHXZ @2824
?enumeratorOffset@QMetaObject@@QBEHXZ @2825
?environment@QProcess@@QBE?AVQStringList@@XZ @2826
?erase@?$QList@VQItemSelectionRange@@@@QAE?AViterator@1@V21@0@Z @2827
?erase@?$QList@VQItemSelectionRange@@@@QAE?AViterator@1@V21@@Z @2828
?erase@?$QVector@VQPoint@@@@QAE?AViterator@?$QTypedArrayData@VQPoint@@@@V23@0@Z @2829
?erase@?$QVector@VQPoint@@@@QAE?AViterator@?$QTypedArrayData@VQPoint@@@@V23@@Z @2830
?erase@?$QVector@VQPoint@@@@QAEPAVQPoint@@PAV2@0@Z @2831
?erase@?$QVector@VQPoint@@@@QAEPAVQPoint@@PAV2@@Z @2832
?erase@?$QVector@VQPointF@@@@QAE?AViterator@?$QTypedArrayData@VQPointF@@@@V23@0@Z @2833
?erase@?$QVector@VQPointF@@@@QAE?AViterator@?$QTypedArrayData@VQPointF@@@@V23@@Z @2834
?erase@?$QVector@VQPointF@@@@QAEPAVQPointF@@PAV2@0@Z @2835
?erase@?$QVector@VQPointF@@@@QAEPAVQPointF@@PAV2@@Z @2836
?erase@?$QVector@VQXmlStreamAttribute@@@@QAEPAVQXmlStreamAttribute@@PAV2@0@Z @2837
?erase@?$QVector@VQXmlStreamAttribute@@@@QAEPAVQXmlStreamAttribute@@PAV2@@Z @2838
?erase@QJsonArray@@QAE?AViterator@1@V21@@Z @2839
?erase@QJsonObject@@QAE?AViterator@1@V21@@Z @2840
?erase@QListData@@QAEPAPAXPAPAX@Z @2841
?error@QAbstractFileEngine@@QBE?AW4FileError@QFileDevice@@XZ @2842
?error@QFileDevice@@QBE?AW4FileError@1@XZ @2843
?error@QLockFile@@QBE?AW4LockError@1@XZ @2844
?error@QProcess@@QAEXW4ProcessError@1@@Z @2845
?error@QProcess@@QBE?AW4ProcessError@1@XZ @2846
?error@QSharedMemory@@QBE?AW4SharedMemoryError@1@XZ @2847
?error@QStateMachine@@QBE?AW4Error@1@XZ @2848
?error@QSystemError@@QAEHXZ @2849
?error@QSystemSemaphore@@QBE?AW4SystemSemaphoreError@1@XZ @2850
?error@QXmlStreamReader@@QBE?AW4Error@1@XZ @2851
?errorState@QState@@QBEPAVQAbstractState@@XZ @2852
?errorStateChanged@QState@@QAEXUQPrivateSignal@1@@Z @2853
?errorString@QAbstractFileEngine@@QBE?AVQString@@XZ @2854
?errorString@QIODevice@@QBE?AVQString@@XZ @2855
?errorString@QJsonParseError@@QBE?AVQString@@XZ @2856
?errorString@QLibrary@@QBE?AVQString@@XZ @2857
?errorString@QPluginLoader@@QBE?AVQString@@XZ @2858
?errorString@QRegExp@@QAE?AVQString@@XZ @2859
?errorString@QRegExp@@QBE?AVQString@@XZ @2860
?errorString@QRegularExpression@@QBE?AVQString@@XZ @2861
?errorString@QSharedMemory@@QBE?AVQString@@XZ @2862
?errorString@QStateMachine@@QBE?AVQString@@XZ @2863
?errorString@QSystemSemaphore@@QBE?AVQString@@XZ @2864
?errorString@QUrl@@QBE?AVQString@@XZ @2865
?errorString@QXmlStreamReader@@QBE?AVQString@@XZ @2866
?errorText@QCommandLineParser@@QBE?AVQString@@XZ @2867
?escape@QRegExp@@SA?AVQString@@ABV2@@Z @2868
?escape@QRegularExpression@@SA?AVQString@@ABV2@@Z @2869
?event@QAbstractAnimation@@MAE_NPAVQEvent@@@Z @2870
?event@QAbstractState@@MAE_NPAVQEvent@@@Z @2871
?event@QAbstractTransition@@MAE_NPAVQEvent@@@Z @2872
?event@QAnimationGroup@@MAE_NPAVQEvent@@@Z @2873
?event@QCoreApplication@@MAE_NPAVQEvent@@@Z @2874
?event@QEventDispatcherWin32@@UAE_NPAVQEvent@@@Z @2875
?event@QEventLoop@@UAE_NPAVQEvent@@@Z @2876
?event@QEventTransition@@MAE_NPAVQEvent@@@Z @2877
?event@QFinalState@@MAE_NPAVQEvent@@@Z @2878
?event@QFutureWatcherBase@@UAE_NPAVQEvent@@@Z @2879
?event@QHistoryState@@MAE_NPAVQEvent@@@Z @2880
?event@QObject@@UAE_NPAVQEvent@@@Z @2881
?event@QParallelAnimationGroup@@MAE_NPAVQEvent@@@Z @2882
?event@QPauseAnimation@@MAE_NPAVQEvent@@@Z @2883
?event@QPropertyAnimation@@MAE_NPAVQEvent@@@Z @2884
?event@QSequentialAnimationGroup@@MAE_NPAVQEvent@@@Z @2885
?event@QSettings@@MAE_NPAVQEvent@@@Z @2886
?event@QSignalTransition@@MAE_NPAVQEvent@@@Z @2887
?event@QSocketNotifier@@MAE_NPAVQEvent@@@Z @2888
?event@QState@@MAE_NPAVQEvent@@@Z @2889
?event@QStateMachine@@MAE_NPAVQEvent@@@Z @2890
?event@QThread@@UAE_NPAVQEvent@@@Z @2891
?event@QVariantAnimation@@MAE_NPAVQEvent@@@Z @2892
?event@QWinEventNotifier@@MAE_NPAVQEvent@@@Z @2893
?event@WrappedEvent@QStateMachine@@QBEPAVQEvent@@XZ @2894
?eventDispatcher@QCoreApplication@@SAPAVQAbstractEventDispatcher@@XZ @2895
?eventDispatcher@QCoreApplicationPrivate@@2PAVQAbstractEventDispatcher@@A @2896
?eventDispatcher@QThread@@QBEPAVQAbstractEventDispatcher@@XZ @2897
?eventDispatcherReady@QCoreApplicationPrivate@@UAEXXZ @2898
?eventFilter@QObject@@UAE_NPAV1@PAVQEvent@@@Z @2899
?eventFilter@QStateMachine@@UAE_NPAVQObject@@PAVQEvent@@@Z @2900
?eventSource@QEventTransition@@QBEPAVQObject@@XZ @2901
?eventTest@QEventTransition@@MAE_NPAVQEvent@@@Z @2902
?eventTest@QSignalTransition@@MAE_NPAVQEvent@@@Z @2903
?eventType@QEventTransition@@QBE?AW4Type@QEvent@@XZ @2904
?exactMatch@QRegExp@@QBE_NABVQString@@@Z @2905
?exception@ExceptionHolder@QtPrivate@@QBEPAVQException@@XZ @2906
?exception@ExceptionStore@QtPrivate@@QAE?AVExceptionHolder@2@XZ @2907
?exceptionStore@QFutureInterfaceBase@@QAEAAVExceptionStore@QtPrivate@@XZ @2908
?exec@QCoreApplication@@SAHXZ @2909
?exec@QEventLoop@@QAEHV?$QFlags@W4ProcessEventsFlag@QEventLoop@@@@@Z @2910
?exec@QTextStreamManipulator@@QAEXAAVQTextStream@@@Z @2911
?exec@QThread@@IAEHXZ @2912
?execute@QProcess@@SAHABVQString@@@Z @2913
?execute@QProcess@@SAHABVQString@@ABVQStringList@@@Z @2914
?executeTransitionContent@QStateMachinePrivate@@QAEXPAVQEvent@@ABV?$QList@PAVQAbstractTransition@@@@@Z @2915
?exists@QDir@@QBE_NABVQString@@@Z @2916
?exists@QDir@@QBE_NXZ @2917
?exists@QFile@@QBE_NXZ @2918
?exists@QFile@@SA_NABVQString@@@Z @2919
?exists@QFileInfo@@QBE_NXZ @2920
?exists@QFileInfo@@SA_NABVQString@@@Z @2921
?exit@QCoreApplication@@SAXH@Z @2922
?exit@QEventLoop@@QAEXH@Z @2923
?exit@QThread@@QAEXH@Z @2924
?exitCode@QProcess@@QBEHXZ @2925
?exitStates@QStateMachinePrivate@@QAEXPAVQEvent@@ABV?$QList@PAVQAbstractState@@@@ABV?$QHash@PAVQAbstractState@@V?$QList@UQPropertyAssignment@@@@@@@Z @2926
?exitStatus@QProcess@@QBE?AW4ExitStatus@1@XZ @2927
?exited@QAbstractState@@QAEXUQPrivateSignal@1@@Z @2928
?expand@QByteArray@@AAEXH@Z @2929
?expand@QString@@AAEXH@Z @2930
?expandedTo@QSize@@QBE?AV1@ABV1@@Z @2931
?expandedTo@QSizeF@@QBE?AV1@ABV1@@Z @2932
?expectedResultCount@QFutureInterfaceBase@@QAEHXZ @2933
?expiryTimeout@QThreadPool@@QBEHXZ @2934
?exponential@QLocale@@QBE?AVQChar@@XZ @2935
?exponential@QLocalePrivate@@QBE?AVQChar@@XZ @2936
?extension@QAbstractFileEngine@@UAE_NW4Extension@1@PBVExtensionOption@1@PAVExtensionReturn@1@@Z @2937
?extension@QFSFileEngine@@UAE_NW4Extension@QAbstractFileEngine@@PBVExtensionOption@3@PAVExtensionReturn@3@@Z @2938
?extraSelectors@QFileSelector@@QBE?AVQStringList@@XZ @2939
?fallbackUiLocale@QSystemLocale@@UBE?AVQLocale@@XZ @2940
?fallbacksEnabled@QSettings@@QBE_NXZ @2941
?false_element@VectorBoolElements@QtMetaTypePrivate@@2_NB @2942
?fastTryLock@QBasicMutex@@AAE_NAAPAVQMutexData@@@Z @2943
?fastTryLock@QBasicMutex@@AAE_NXZ @2944
?fastTryUnlock@QBasicMutex@@AAE_NAAPAVQMutexData@@@Z @2945
?fastTryUnlock@QBasicMutex@@AAE_NXZ @2946
?fatal@QMessageLogger@@QBAXPBDZZ @2947
?fetchMore@QAbstractItemModel@@UAEXABVQModelIndex@@@Z @2948
?fetchMore@QAbstractProxyModel@@UAEXABVQModelIndex@@@Z @2949
?fetchMore@QSortFilterProxyModel@@UAEXABVQModelIndex@@@Z @2950
?fieldAlignment@QTextStream@@QBE?AW4FieldAlignment@1@XZ @2951
?fieldInfo@QDateTimeParser@@QBE?AV?$QFlags@W4FieldInfoFlag@QDateTimeParser@@@@H@Z @2952
?fieldWidth@QTextStream@@QBEHXZ @2953
?fileChanged@QFileSystemWatcher@@QAEXABVQString@@UQPrivateSignal@1@@Z @2954
?fileFlags@QAbstractFileEngine@@UBE?AV?$QFlags@W4FileFlag@QAbstractFileEngine@@@@V2@@Z @2955
?fileFlags@QFSFileEngine@@UBE?AV?$QFlags@W4FileFlag@QAbstractFileEngine@@@@V2@@Z @2956
?fileInfo@QDirIterator@@QBE?AVQFileInfo@@XZ @2957
?fileName@QAbstractFileEngine@@UBE?AVQString@@W4FileName@1@@Z @2958
?fileName@QDirIterator@@QBE?AVQString@@XZ @2959
?fileName@QFSFileEngine@@UBE?AVQString@@W4FileName@QAbstractFileEngine@@@Z @2960
?fileName@QFile@@UBE?AVQString@@XZ @2961
?fileName@QFileDevice@@UBE?AVQString@@XZ @2962
?fileName@QFileInfo@@QBE?AVQString@@XZ @2963
?fileName@QLibrary@@QBE?AVQString@@XZ @2964
?fileName@QPluginLoader@@QBE?AVQString@@XZ @2965
?fileName@QResource@@QBE?AVQString@@XZ @2966
?fileName@QSaveFile@@UBE?AVQString@@XZ @2967
?fileName@QSettings@@QBE?AVQString@@XZ @2968
?fileName@QTemporaryFile@@UBE?AVQString@@XZ @2969
?fileName@QUrl@@QBE?AVQString@@V?$QFlags@W4ComponentFormattingOption@QUrl@@@@@Z @2970
?filePath@QDir@@QBE?AVQString@@ABV2@@Z @2971
?filePath@QDirIterator@@QBE?AVQString@@XZ @2972
?filePath@QFileInfo@@QBE?AVQString@@XZ @2973
?fileSystemType@QStorageInfo@@QBE?AVQByteArray@@XZ @2974
?fileTemplate@QTemporaryFile@@QBE?AVQString@@XZ @2975
?fileTime@QAbstractFileEngine@@UBE?AVQDateTime@@W4FileTime@1@@Z @2976
?fileTime@QFSFileEngine@@UBE?AVQDateTime@@W4FileTime@QAbstractFileEngine@@@Z @2977
?files@QFileSystemWatcher@@QBE?AVQStringList@@XZ @2978
?fill@?$QVector@VQPoint@@@@QAEAAV1@ABVQPoint@@H@Z @2979
?fill@?$QVector@VQPointF@@@@QAEAAV1@ABVQPointF@@H@Z @2980
?fill@?$QVector@VQXmlStreamAttribute@@@@QAEAAV1@ABVQXmlStreamAttribute@@H@Z @2981
?fill@QBitArray@@QAEX_NHH@Z @2982
?fill@QBitArray@@QAE_N_NH@Z @2983
?fill@QByteArray@@QAEAAV1@DH@Z @2984
?fill@QString@@QAEAAV1@VQChar@@H@Z @2985
?filter@QDir@@QBE?AV?$QFlags@W4Filter@QDir@@@@XZ @2986
?filterAcceptsColumn@QSortFilterProxyModel@@MBE_NHABVQModelIndex@@@Z @2987
?filterAcceptsRow@QSortFilterProxyModel@@MBE_NHABVQModelIndex@@@Z @2988
?filterCaseSensitivity@QSortFilterProxyModel@@QBE?AW4CaseSensitivity@Qt@@XZ @2989
?filterChanged@QSortFilterProxyModel@@IAEXXZ @2990
?filterEvent@QAbstractEventDispatcher@@QAE_NPAX@Z @2991
?filterKeyColumn@QSortFilterProxyModel@@QBEHXZ @2992
?filterMode@ResultStoreBase@QtPrivate@@QBE_NXZ @2993
?filterNativeEvent@QAbstractEventDispatcher@@QAE_NABVQByteArray@@PAXPAJ@Z @2994
?filterRegExp@QSortFilterProxyModel@@QBE?AVQRegExp@@XZ @2995
?filterRole@QSortFilterProxyModel@@QBEHXZ @2996
?filterString@QMimeType@@QBE?AVQString@@XZ @2997
?filters@QAbstractFileEngineIterator@@QBE?AV?$QFlags@W4Filter@QDir@@@@XZ @2998
?find@QJsonObject@@QAE?AViterator@1@ABVQString@@@Z @2999
?find@QJsonObject@@QBE?AVconst_iterator@1@ABVQString@@@Z @3000
?findAmPm@QDateTimeParser@@QBEHAAVQString@@HPAH@Z @3001
?findDay@QDateTimeParser@@QBEHABVQString@@HHPAV2@PAH@Z @3002
?findErrorState@QStateMachinePrivate@@QAEPAVQAbstractState@@PAV2@@Z @3003
?findExecutable@QStandardPaths@@SA?AVQString@@ABV2@ABVQStringList@@@Z @3004
?findLCA@QStateMachinePrivate@@QBEPAVQState@@ABV?$QList@PAVQAbstractState@@@@@Z @3005
?findMonth@QDateTimeParser@@QBEHABVQString@@HHPAV2@PAH@Z @3006
?finish@QThreadStorageData@@SAXPAPAX@Z @3007
?finished@QAbstractAnimation@@QAEXXZ @3008
?finished@QFutureWatcherBase@@QAEXXZ @3009
?finished@QProcess@@QAEXH@Z @3010
?finished@QProcess@@QAEXHW4ExitStatus@1@@Z @3011
?finished@QState@@QAEXUQPrivateSignal@1@@Z @3012
?finished@QThread@@QAEXUQPrivateSignal@1@@Z @3013
?finished@QTimeLine@@QAEXUQPrivateSignal@1@@Z @3014
?first@?$QList@VQItemSelectionRange@@@@QAEAAVQItemSelectionRange@@XZ @3015
?first@?$QList@VQItemSelectionRange@@@@QBEABVQItemSelectionRange@@XZ @3016
?first@?$QVector@VQPoint@@@@QAEAAVQPoint@@XZ @3017
?first@?$QVector@VQPoint@@@@QBEABVQPoint@@XZ @3018
?first@?$QVector@VQPointF@@@@QAEAAVQPointF@@XZ @3019
?first@?$QVector@VQPointF@@@@QBEABVQPointF@@XZ @3020
?first@?$QVector@VQXmlStreamAttribute@@@@QAEAAVQXmlStreamAttribute@@XZ @3021
?first@?$QVector@VQXmlStreamAttribute@@@@QBEABVQXmlStreamAttribute@@XZ @3022
?first@QJsonArray@@QBE?AVQJsonValue@@XZ @3023
?firstDayOfWeek@QLocale@@QBE?AW4DayOfWeek@Qt@@XZ @3024
?firstNode@QHashData@@QAEPAUNode@1@XZ @3025
?fixed@@YAAAVQTextStream@@AAV1@@Z @3026
?flags@QAbstractItemModel@@UBE?AV?$QFlags@W4ItemFlag@Qt@@@@ABVQModelIndex@@@Z @3027
?flags@QAbstractListModel@@UBE?AV?$QFlags@W4ItemFlag@Qt@@@@ABVQModelIndex@@@Z @3028
?flags@QAbstractProxyModel@@UBE?AV?$QFlags@W4ItemFlag@Qt@@@@ABVQModelIndex@@@Z @3029
?flags@QAbstractTableModel@@UBE?AV?$QFlags@W4ItemFlag@Qt@@@@ABVQModelIndex@@@Z @3030
?flags@QMetaObjectBuilder@@QBE?AV?$QFlags@W4MetaObjectFlag@QMetaObjectBuilder@@@@XZ @3031
?flags@QMetaType@@QBE?AV?$QFlags@W4TypeFlag@QMetaType@@@@XZ @3032
?flags@QModelIndex@@QBE?AV?$QFlags@W4ItemFlag@Qt@@@@XZ @3033
?flags@QPersistentModelIndex@@QBE?AV?$QFlags@W4ItemFlag@Qt@@@@XZ @3034
?flags@QSortFilterProxyModel@@UBE?AV?$QFlags@W4ItemFlag@Qt@@@@ABVQModelIndex@@@Z @3035
?flags@QStringListModel@@UBE?AV?$QFlags@W4ItemFlag@Qt@@@@ABVQModelIndex@@@Z @3036
?flagsExtended@QMetaType@@ABE?AV?$QFlags@W4TypeFlag@QMetaType@@@@XZ @3037
?floatingPointPrecision@QDataStream@@QBE?AW4FloatingPointPrecision@1@XZ @3038
?flush@@YAAAVQTextStream@@AAV1@@Z @3039
?flush@QAbstractFileEngine@@UAE_NXZ @3040
?flush@QCoreApplication@@SAXXZ @3041
?flush@QEventDispatcherWin32@@UAEXXZ @3042
?flush@QFSFileEngine@@UAE_NXZ @3043
?flush@QFileDevice@@QAE_NXZ @3044
?flush@QTextStream@@QAEXXZ @3045
?forcepoint@@YAAAVQTextStream@@AAV1@@Z @3046
?forcesign@@YAAAVQTextStream@@AAV1@@Z @3047
?format@QSettings@@QBE?AW4Format@1@XZ @3048
?formats@QMimeData@@UBE?AVQStringList@@XZ @3049
?fragment@QUrl@@QBE?AVQString@@V?$QFlags@W4ComponentFormattingOption@QUrl@@@@@Z @3050
?frameChanged@QTimeLine@@QAEXHUQPrivateSignal@1@@Z @3051
?frameForTime@QTimeLine@@QBEHH@Z @3052
?freeData@?$QVector@VQPoint@@@@AAEXPAU?$QTypedArrayData@VQPoint@@@@@Z @3053
?freeData@?$QVector@VQPointF@@@@AAEXPAU?$QTypedArrayData@VQPointF@@@@@Z @3054
?freeData@?$QVector@VQXmlStreamAttribute@@@@AAEXPAU?$QTypedArrayData@VQXmlStreamAttribute@@@@@Z @3055
?freeData@QContiguousCacheData@@SAXPAU1@@Z @3056
?freeData@QMapDataBase@@SAXPAU1@@Z @3057
?freeNode@QHashData@@QAEXPAX@Z @3058
?freeNodeAndRebalance@QMapDataBase@@QAEXPAUQMapNodeBase@@@Z @3059
?freeTree@QMapDataBase@@QAEXPAUQMapNodeBase@@H@Z @3060
?free_helper@QHashData@@QAEXP6AXPAUNode@1@@Z@Z @3061
?fromAce@QUrl@@SA?AVQString@@ABVQByteArray@@@Z @3062
?fromAscii@QChar@@SA?AV1@D@Z @3063
?fromAscii@QString@@SA?AV1@ABVQByteArray@@@Z @3064
?fromAscii@QString@@SA?AV1@PBDH@Z @3065
?fromAscii_helper@QString@@CAPAU?$QTypedArrayData@G@@PBDH@Z @3066
?fromBase64@QByteArray@@SA?AV1@ABV1@@Z @3067
?fromBase64@QByteArray@@SA?AV1@ABV1@V?$QFlags@W4Base64Option@QByteArray@@@@@Z @3068
?fromBinaryData@QJsonDocument@@SA?AV1@ABVQByteArray@@W4DataValidation@1@@Z @3069
?fromEncoded@QUrl@@SA?AV1@ABVQByteArray@@W4ParsingMode@1@@Z @3070
?fromEncodedComponent_helper@QUrl@@CA?AVQString@@ABVQByteArray@@@Z @3071
?fromHex@QByteArray@@SA?AV1@ABV1@@Z @3072
?fromJson@QJsonDocument@@SA?AV1@ABVQByteArray@@PAUQJsonParseError@@@Z @3073
?fromJulianDay@QDate@@SA?AV1@_J@Z @3074
?fromLatin1@QChar@@SA?AV1@D@Z @3075
?fromLatin1@QString@@SA?AV1@ABVQByteArray@@@Z @3076
?fromLatin1@QString@@SA?AV1@PBDH@Z @3077
?fromLatin1_helper@QString@@CAPAU?$QTypedArrayData@G@@PBDH@Z @3078
?fromList@?$QVector@VQPoint@@@@SA?AV1@ABV?$QList@VQPoint@@@@@Z @3079
?fromList@?$QVector@VQPointF@@@@SA?AV1@ABV?$QList@VQPointF@@@@@Z @3080
?fromList@?$QVector@VQXmlStreamAttribute@@@@SA?AV1@ABV?$QList@VQXmlStreamAttribute@@@@@Z @3081
?fromLocal8Bit@QString@@SA?AV1@ABVQByteArray@@@Z @3082
?fromLocal8Bit@QString@@SA?AV1@PBDH@Z @3083
?fromLocal8Bit_helper@QString@@CA?AV1@PBDH@Z @3084
?fromLocalFile@QUrl@@SA?AV1@ABVQString@@@Z @3085
?fromMSecsSinceEpoch@QDateTime@@SA?AV1@_J@Z @3086
?fromMSecsSinceEpoch@QDateTime@@SA?AV1@_JABVQTimeZone@@@Z @3087
?fromMSecsSinceEpoch@QDateTime@@SA?AV1@_JW4TimeSpec@Qt@@H@Z @3088
?fromMSecsSinceStartOfDay@QTime@@SA?AV1@H@Z @3089
?fromNativeSeparators@QDir@@SA?AVQString@@ABV2@@Z @3090
?fromPercentEncoding@QByteArray@@SA?AV1@ABV1@D@Z @3091
?fromPercentEncoding@QUrl@@SA?AVQString@@ABVQByteArray@@@Z @3092
?fromPolar@QLineF@@SA?AV1@NN@Z @3093
?fromPunycode@QUrl@@SA?AVQString@@ABVQByteArray@@@Z @3094
?fromRawData@QByteArray@@SA?AV1@PBDH@Z @3095
?fromRawData@QJsonDocument@@SA?AV1@PBDHW4DataValidation@1@@Z @3096
?fromRawData@QString@@SA?AV1@PBVQChar@@H@Z @3097
?fromRelocatableData@QMetaObjectBuilder@@SAXPAUQMetaObject@@PBU2@ABVQByteArray@@@Z @3098
?fromRfc4122@QUuid@@SA?AV1@ABVQByteArray@@@Z @3099
?fromSet@?$QList@VQItemSelectionRange@@@@SA?AV1@ABV?$QSet@VQItemSelectionRange@@@@@Z @3100
?fromSignalImpl@QMetaMethod@@CA?AV1@PBUQMetaObject@@PAPAX@Z @3101
?fromStdList@?$QList@VQItemSelectionRange@@@@SA?AV1@ABV?$list@VQItemSelectionRange@@V?$allocator@VQItemSelectionRange@@@std@@@std@@@Z @3102
?fromStdString@QByteArray@@SA?AV1@ABV?$basic_string@DU?$char_traits@D@std@@V?$allocator@D@2@@std@@@Z @3103
?fromStdString@QString@@SA?AV1@ABV?$basic_string@DU?$char_traits@D@std@@V?$allocator@D@2@@std@@@Z @3104
?fromStdVector@?$QVector@VQPoint@@@@SA?AV1@ABV?$vector@VQPoint@@V?$allocator@VQPoint@@@std@@@std@@@Z @3105
?fromStdVector@?$QVector@VQPointF@@@@SA?AV1@ABV?$vector@VQPointF@@V?$allocator@VQPointF@@@std@@@std@@@Z @3106
?fromStdVector@?$QVector@VQXmlStreamAttribute@@@@SA?AV1@ABV?$vector@VQXmlStreamAttribute@@V?$allocator@VQXmlStreamAttribute@@@std@@@std@@@Z @3107
?fromStdWString@QString@@SA?AV1@ABV?$basic_string@_WU?$char_traits@_W@std@@V?$allocator@_W@2@@std@@@Z @3108
?fromString@QDate@@SA?AV1@ABVQString@@0@Z @3109
?fromString@QDate@@SA?AV1@ABVQString@@W4DateFormat@Qt@@@Z @3110
?fromString@QDateTime@@SA?AV1@ABVQString@@0@Z @3111
?fromString@QDateTime@@SA?AV1@ABVQString@@W4DateFormat@Qt@@@Z @3112
?fromString@QDateTimeParser@@QBE_NABVQString@@PAVQDate@@PAVQTime@@@Z @3113
?fromString@QTime@@SA?AV1@ABVQString@@0@Z @3114
?fromString@QTime@@SA?AV1@ABVQString@@W4DateFormat@Qt@@@Z @3115
?fromString@QVersionNumber@@SA?AV1@ABVQString@@PAH@Z @3116
?fromStringList@QJsonArray@@SA?AV1@ABVQStringList@@@Z @3117
?fromStringList@QUrl@@SA?AV?$QList@VQUrl@@@@ABVQStringList@@W4ParsingMode@1@@Z @3118
?fromTime_t@QDateTime@@SA?AV1@I@Z @3119
?fromTime_t@QDateTime@@SA?AV1@IABVQTimeZone@@@Z @3120
?fromTime_t@QDateTime@@SA?AV1@IW4TimeSpec@Qt@@H@Z @3121
?fromUcs4@QString@@SA?AV1@PBIH@Z @3122
?fromUnicode@QTextCodec@@QBE?AVQByteArray@@ABVQString@@@Z @3123
?fromUnicode@QTextCodec@@QBE?AVQByteArray@@PBVQChar@@HPAUConverterState@1@@Z @3124
?fromUnicode@QTextEncoder@@QAE?AVQByteArray@@ABVQString@@@Z @3125
?fromUnicode@QTextEncoder@@QAE?AVQByteArray@@PBVQChar@@H@Z @3126
?fromUserInput@QUrl@@SA?AV1@ABVQString@@0V?$QFlags@W4UserInputResolutionOption@QUrl@@@@@Z @3127
?fromUserInput@QUrl@@SA?AV1@ABVQString@@@Z @3128
?fromUtf16@QString@@SA?AV1@PBGH@Z @3129
?fromUtf8@QString@@SA?AV1@ABVQByteArray@@@Z @3130
?fromUtf8@QString@@SA?AV1@PBDH@Z @3131
?fromUtf8_helper@QString@@CA?AV1@PBDH@Z @3132
?fromVariant@QJsonDocument@@SA?AV1@ABVQVariant@@@Z @3133
?fromVariant@QJsonValue@@SA?AV1@ABVQVariant@@@Z @3134
?fromVariantList@QJsonArray@@SA?AV1@ABV?$QList@VQVariant@@@@@Z @3135
?fromVariantMap@QJsonObject@@SA?AV1@ABV?$QMap@VQString@@VQVariant@@@@@Z @3136
?fromVector@?$QList@VQItemSelectionRange@@@@SA?AV1@ABV?$QVector@VQItemSelectionRange@@@@@Z @3137
?fromWCharArray@QString@@SA?AV1@PB_WH@Z @3138
?front@?$QList@VQItemSelectionRange@@@@QAEAAVQItemSelectionRange@@XZ @3139
?front@?$QList@VQItemSelectionRange@@@@QBEABVQItemSelectionRange@@XZ @3140
?front@?$QVector@VQPoint@@@@QAEAAVQPoint@@XZ @3141
?front@?$QVector@VQPoint@@@@QBEABVQPoint@@XZ @3142
?front@?$QVector@VQPointF@@@@QAEAAVQPointF@@XZ @3143
?front@?$QVector@VQPointF@@@@QBEABVQPointF@@XZ @3144
?front@?$QVector@VQXmlStreamAttribute@@@@QAEAAVQXmlStreamAttribute@@XZ @3145
?front@?$QVector@VQXmlStreamAttribute@@@@QBEABVQXmlStreamAttribute@@XZ @3146
?generateByteOrderMark@QTextStream@@QBE_NXZ @3147
?genericIconName@QMimeType@@QBE?AVQString@@XZ @3148
?get@QAbstractTransitionPrivate@@SAPAV1@PAVQAbstractTransition@@@Z @3149
?get@QEventTransitionPrivate@@SAPAV1@PAVQEventTransition@@@Z @3150
?get@QMutexPool@@QAEPAVQMutex@@PBX@Z @3151
?get@QObjectPrivate@@SAPAV1@PAVQObject@@@Z @3152
?get@QStateMachinePrivate@@SAPAV1@PAVQStateMachine@@@Z @3153
?get@QThreadStorageData@@QBEPAPAXXZ @3154
?getAmPmText@QDateTimeParser@@UBE?AVQString@@W4AmPm@1@W4Case@1@@Z @3155
?getAndRef@ExternalRefCountData@QtSharedPointer@@SAPAU12@PBVQObject@@@Z @3156
?getChar@QIODevice@@QAE_NPAD@Z @3157
?getCoords@QRect@@QBEXPAH000@Z @3158
?getCoords@QRectF@@QBEXPAN000@Z @3159
?getDate@QDate@@QAEXPAH00@Z @3160
?getDigit@QDateTimeParser@@QBEHABVQDateTime@@H@Z @3161
?getInterpolator@QVariantAnimationPrivate@@SAP6A?AVQVariant@@PBX0N@ZH@Z @3162
?getLangAndCountry@QLocalePrivate@@SAXABVQString@@AAW4Language@QLocale@@AAW4Script@4@AAW4Country@4@@Z @3163
?getLockInfo@QLockFile@@QBE_NPA_JPAVQString@@1@Z @3164
?getMaximum@QDateTimeParser@@UBE?AVQDateTime@@XZ @3165
?getMinimum@QDateTimeParser@@UBE?AVQDateTime@@XZ @3166
?getParameterTypes@QMetaMethod@@QBEXPAH@Z @3167
?getRect@QRect@@QBEXPAH000@Z @3168
?getRect@QRectF@@QBEXPAN000@Z @3169
?globPatterns@QMimeType@@QBE?AVQStringList@@XZ @3170
?globalInstance@QThreadPool@@SAPAV1@XZ @3171
?globalInstanceGet@QMutexPool@@SAPAVQMutex@@PBX@Z @3172
?globalMatch@QRegularExpression@@QBE?AVQRegularExpressionMatchIterator@@ABVQString@@HW4MatchType@1@V?$QFlags@W4MatchOption@QRegularExpression@@@@@Z @3173
?globalRestorePolicy@QStateMachine@@QBE?AW4RestorePolicy@QState@@XZ @3174
?goToState@QStateMachinePrivate@@QAEXPAVQAbstractState@@@Z @3175
?graphemeBreakClass@QUnicodeTables@@YI?AW4GraphemeBreakClass@1@I@Z @3176
?group@QAbstractAnimation@@QBEPAVQAnimationGroup@@XZ @3177
?group@QFileInfo@@QBE?AVQString@@XZ @3178
?group@QLocalePrivate@@QBE?AVQChar@@XZ @3179
?group@QSettings@@QBE?AVQString@@XZ @3180
?groupId@QFileInfo@@QBEIXZ @3181
?groupSeparator@QLocale@@QBE?AVQChar@@XZ @3182
?hadWritten@QWindowsPipeWriter@@QBE_NXZ @3183
?handle@QAbstractFileEngine@@UBEHXZ @3184
?handle@QFSFileEngine@@UBEHXZ @3185
?handle@QFileDevice@@QBEHXZ @3186
?handle@QWinEventNotifier@@QBEPAXXZ @3187
?handle@QWinOverlappedIoNotifier@@QBEPAXXZ @3188
?handleFilteredEvent@QStateMachinePrivate@@QAEXPAVQObject@@PAVQEvent@@@Z @3189
?handleTransitionSignal@QStateMachinePrivate@@QAEXPAVQObject@@HPAPAX@Z @3190
?handler@QStateMachinePrivate@@2PBUHandler@1@B @3191
?hasAttribute@QXmlStreamAttributes@@QBE_NABVQString@@0@Z @3192
?hasAttribute@QXmlStreamAttributes@@QBE_NABVQString@@@Z @3193
?hasAttribute@QXmlStreamAttributes@@QBE_NVQLatin1String@@@Z @3194
?hasChildren@QAbstractItemModel@@UBE_NABVQModelIndex@@@Z @3195
?hasChildren@QAbstractListModel@@EBE_NABVQModelIndex@@@Z @3196
?hasChildren@QAbstractProxyModel@@UBE_NABVQModelIndex@@@Z @3197
?hasChildren@QAbstractTableModel@@EBE_NABVQModelIndex@@@Z @3198
?hasChildren@QSortFilterProxyModel@@UBE_NABVQModelIndex@@@Z @3199
?hasColor@QMimeData@@QBE_NXZ @3200
?hasDaylightTime@QTimeZone@@QBE_NXZ @3201
?hasDaylightTime@QTimeZonePrivate@@UBE_NXZ @3202
?hasEncodedQueryItem@QUrl@@QBE_NABVQByteArray@@@Z @3203
?hasError@QXmlStreamReader@@QBE_NXZ @3204
?hasError@QXmlStreamWriter@@QBE_NXZ @3205
?hasException@ExceptionStore@QtPrivate@@QBE_NXZ @3206
?hasExpired@QElapsedTimer@@QBE_N_J@Z @3207
?hasFailure@QTextDecoder@@QBE_NXZ @3208
?hasFailure@QTextEncoder@@QBE_NXZ @3209
?hasFormat@QMimeData@@UBE_NABVQString@@@Z @3210
?hasFragment@QUrl@@QBE_NXZ @3211
?hasHtml@QMimeData@@QBE_NXZ @3212
?hasImage@QMimeData@@QBE_NXZ @3213
?hasIndex@QAbstractItemModel@@QBE_NHHABVQModelIndex@@@Z @3214
?hasMatch@QRegularExpressionMatch@@QBE_NXZ @3215
?hasMirrored@QChar@@QBE_NXZ @3216
?hasMirrored@QChar@@SI_NI@Z @3217
?hasMirrored@QCharRef@@QBE_NXZ @3218
?hasNext@QDirIterator@@QBE_NXZ @3219
?hasNext@QRegularExpressionMatchIterator@@QBE_NXZ @3220
?hasNextResult@ResultStoreBase@QtPrivate@@QBE_NXZ @3221
?hasNotifySignal@QMetaProperty@@QBE_NXZ @3222
?hasNotifySignal@QMetaPropertyBuilder@@QBE_NXZ @3223
?hasPartialMatch@QRegularExpressionMatch@@QBE_NXZ @3224
?hasPendingEvents@QCoreApplication@@SA_NXZ @3225
?hasPendingEvents@QEventDispatcherWin32@@UAE_NXZ @3226
?hasQuery@QUrl@@QBE_NXZ @3227
?hasQueryItem@QUrl@@QBE_NABVQString@@@Z @3228
?hasQueryItem@QUrlQuery@@QBE_NABVQString@@@Z @3229
?hasRegisteredComparators@QMetaType@@SA_NH@Z @3230
?hasRegisteredConverterFunction@QMetaType@@SA_NHH@Z @3231
?hasRegisteredDebugStreamOperator@QMetaType@@SA_NH@Z @3232
?hasRestorable@QStateMachinePrivate@@QBE_NPAVQAbstractState@@PAVQObject@@ABVQByteArray@@@Z @3233
?hasSelection@QItemSelectionModel@@QBE_NXZ @3234
?hasShrunk@QHashData@@QAEXXZ @3235
?hasStdCppSet@QMetaProperty@@QBE_NXZ @3236
?hasStdCppSet@QMetaPropertyBuilder@@QBE_NXZ @3237
?hasText@QMimeData@@QBE_NXZ @3238
?hasThrown@ExceptionStore@QtPrivate@@QBE_NXZ @3239
?hasTransitions@QTimeZone@@QBE_NXZ @3240
?hasTransitions@QTimeZonePrivate@@UBE_NXZ @3241
?hasUrls@QMimeData@@QBE_NXZ @3242
?hash@QCryptographicHash@@SA?AVQByteArray@@ABV2@W4Algorithm@1@@Z @3243
?hash@QMessageAuthenticationCode@@SA?AVQByteArray@@ABV2@0W4Algorithm@QCryptographicHash@@@Z @3244
?headerData@QAbstractItemModel@@UBE?AVQVariant@@HW4Orientation@Qt@@H@Z @3245
?headerData@QAbstractProxyModel@@UBE?AVQVariant@@HW4Orientation@Qt@@H@Z @3246
?headerData@QIdentityProxyModel@@UBE?AVQVariant@@HW4Orientation@Qt@@H@Z @3247
?headerData@QSortFilterProxyModel@@UBE?AVQVariant@@HW4Orientation@Qt@@H@Z @3248
?headerDataChanged@QAbstractItemModel@@QAEXW4Orientation@Qt@@HH@Z @3249
?height@QItemSelectionRange@@QBEHXZ @3250
?height@QRect@@QBEHXZ @3251
?height@QRectF@@QBENXZ @3252
?height@QSize@@QBEHXZ @3253
?height@QSizeF@@QBENXZ @3254
?helpText@QCommandLineParser@@QBE?AVQString@@XZ @3255
?hex@@YAAAVQTextStream@@AAV1@@Z @3256
?highSurrogate@QChar@@SAGI@Z @3257
?historyType@QHistoryState@@QBE?AW4HistoryType@1@XZ @3258
?historyTypeChanged@QHistoryState@@QAEXUQPrivateSignal@1@@Z @3259
?home@QDir@@SA?AV1@XZ @3260
?homePath@QDir@@SA?AVQString@@XZ @3261
?homePath@QFSFileEngine@@SA?AVQString@@XZ @3262
?host@QUrl@@QBE?AVQString@@V?$QFlags@W4ComponentFormattingOption@QUrl@@@@@Z @3263
?hour@QTime@@QBEHXZ @3264
?html@QMimeData@@QBE?AVQString@@XZ @3265
?ianaIdToWindowsId@QTimeZone@@SA?AVQByteArray@@ABV2@@Z @3266
?ianaIdToWindowsId@QTimeZonePrivate@@SA?AVQByteArray@@ABV2@@Z @3267
?iconName@QMimeType@@QBE?AVQString@@XZ @3268
?id@QMetaCallEvent@@QBEHXZ @3269
?id@QTimeZone@@QBE?AVQByteArray@@XZ @3270
?id@QTimeZonePrivate@@QBE?AVQByteArray@@XZ @3271
?idealThreadCount@QThread@@SAHXZ @3272
?idnWhitelist@QUrl@@SA?AVQStringList@@XZ @3273
?ignore@QEvent@@QAEXXZ @3274
?ignorePunctuation@QCollator@@QBE_NXZ @3275
?imageData@QMimeData@@QBE?AVQVariant@@XZ @3276
?index@QAbstractListModel@@UBE?AVQModelIndex@@HHABV2@@Z @3277
?index@QAbstractTableModel@@UBE?AVQModelIndex@@HHABV2@@Z @3278
?index@QIdentityProxyModel@@UBE?AVQModelIndex@@HHABV2@@Z @3279
?index@QMetaEnumBuilder@@QBEHXZ @3280
?index@QMetaMethodBuilder@@QBEHXZ @3281
?index@QMetaPropertyBuilder@@QBEHXZ @3282
?index@QSortFilterProxyModel@@UBE?AVQModelIndex@@HHABV2@@Z @3283
?indexIn@QByteArrayMatcher@@QBEHABVQByteArray@@H@Z @3284
?indexIn@QByteArrayMatcher@@QBEHPBDHH@Z @3285
?indexIn@QRegExp@@QBEHABVQString@@HW4CaretMode@1@@Z @3286
?indexIn@QStringMatcher@@QBEHABVQString@@H@Z @3287
?indexIn@QStringMatcher@@QBEHPBVQChar@@HH@Z @3288
?indexOf@?$QList@VQItemSelectionRange@@@@QBEHABVQItemSelectionRange@@H@Z @3289
?indexOf@?$QVector@VQPoint@@@@QBEHABVQPoint@@H@Z @3290
?indexOf@?$QVector@VQPointF@@@@QBEHABVQPointF@@H@Z @3291
?indexOf@?$QVector@VQXmlStreamAttribute@@@@QBEHABVQXmlStreamAttribute@@H@Z @3292
?indexOf@QByteArray@@QBEHABV1@H@Z @3293
?indexOf@QByteArray@@QBEHABVQString@@H@Z @3294
?indexOf@QByteArray@@QBEHDH@Z @3295
?indexOf@QByteArray@@QBEHPBDH@Z @3296
?indexOf@QFactoryLoader@@QBEHABVQString@@@Z @3297
?indexOf@QString@@QBEHAAVQRegExp@@H@Z @3298
?indexOf@QString@@QBEHABV1@HW4CaseSensitivity@Qt@@@Z @3299
?indexOf@QString@@QBEHABVQRegExp@@H@Z @3300
?indexOf@QString@@QBEHABVQRegularExpression@@H@Z @3301
?indexOf@QString@@QBEHABVQStringRef@@HW4CaseSensitivity@Qt@@@Z @3302
?indexOf@QString@@QBEHVQChar@@HW4CaseSensitivity@Qt@@@Z @3303
?indexOf@QString@@QBEHVQLatin1String@@HW4CaseSensitivity@Qt@@@Z @3304
?indexOf@QStringRef@@QBEHABV1@HW4CaseSensitivity@Qt@@@Z @3305
?indexOf@QStringRef@@QBEHABVQString@@HW4CaseSensitivity@Qt@@@Z @3306
?indexOf@QStringRef@@QBEHVQChar@@HW4CaseSensitivity@Qt@@@Z @3307
?indexOf@QStringRef@@QBEHVQLatin1String@@HW4CaseSensitivity@Qt@@@Z @3308
?indexOfAnimation@QAnimationGroup@@QBEHPAVQAbstractAnimation@@@Z @3309
?indexOfClassInfo@QMetaObject@@QBEHPBD@Z @3310
?indexOfClassInfo@QMetaObjectBuilder@@QAEHABVQByteArray@@@Z @3311
?indexOfConstructor@QMetaObject@@QBEHPBD@Z @3312
?indexOfConstructor@QMetaObjectBuilder@@QAEHABVQByteArray@@@Z @3313
?indexOfEnumerator@QMetaObject@@QBEHPBD@Z @3314
?indexOfEnumerator@QMetaObjectBuilder@@QAEHABVQByteArray@@@Z @3315
?indexOfMethod@QMetaObject@@QBEHPBD@Z @3316
?indexOfMethod@QMetaObjectBuilder@@QAEHABVQByteArray@@@Z @3317
?indexOfProperty@QMetaObject@@QBEHPBD@Z @3318
?indexOfProperty@QMetaObjectBuilder@@QAEHABVQByteArray@@@Z @3319
?indexOfSignal@QMetaObject@@QBEHPBD@Z @3320
?indexOfSignal@QMetaObjectBuilder@@QAEHABVQByteArray@@@Z @3321
?indexOfSlot@QMetaObject@@QBEHPBD@Z @3322
?indexOfSlot@QMetaObjectBuilder@@QAEHABVQByteArray@@@Z @3323
?indexValid@QAbstractItemModelPrivate@@QBE_NABVQModelIndex@@@Z @3324
?indexes@QItemSelection@@QBE?AV?$QList@VQModelIndex@@@@XZ @3325
?indexes@QItemSelectionRange@@QBE?AV?$QList@VQModelIndex@@@@XZ @3326
?inherits@QMimeType@@QBE_NABVQString@@@Z @3327
?inherits@QObject@@QBE_NPBD@Z @3328
?iniCodec@QSettings@@QBEPAVQTextCodec@@XZ @3329
?init@QCollatorPrivate@@QAEXXZ @3330
?init@QCoreApplication@@AAEXXZ @3331
?init@QLoggingCategory@@AAEXPBDW4QtMsgType@@@Z @3332
?initCharAttributes@QUnicodeTools@@YAXPBGHPBUScriptItem@1@HPAUQCharAttributes@@V?$QFlags@W4CharAttributeOption@QUnicodeTools@@@@@Z @3333
?initLocale@QCoreApplicationPrivate@@SAXXZ @3334
?initScripts@QUnicodeTools@@YAXPBGHPAE@Z @3335
?initialState@QState@@QBEPAVQAbstractState@@XZ @3336
?initialStateChanged@QState@@QAEXUQPrivateSignal@1@@Z @3337
?initialize@QJsonArray@@AAEXXZ @3338
?initialize@QJsonObject@@AAEXXZ @3339
?initializeAnimation@QStateMachinePrivate@@QAE?AU?$QPair@V?$QList@PAVQAbstractAnimation@@@@V1@@@PAVQAbstractAnimation@@ABUQPropertyAssignment@@@Z @3340
?initializeAnimations@QStateMachinePrivate@@QAEXPAVQAbstractState@@ABV?$QList@PAVQAbstractAnimation@@@@ABV?$QList@PAVQAbstractState@@@@AAV?$QHash@PAVQAbstractState@@V?$QList@UQPropertyAssignment@@@@@@@Z @3341
?inputChannelMode@QProcess@@QBE?AW4InputChannelMode@1@XZ @3342
?insert@?$QList@VQItemSelectionRange@@@@QAE?AViterator@1@V21@ABVQItemSelectionRange@@@Z @3343
?insert@?$QList@VQItemSelectionRange@@@@QAEXHABVQItemSelectionRange@@@Z @3344
?insert@?$QVector@VQPoint@@@@QAE?AViterator@?$QTypedArrayData@VQPoint@@@@V23@ABVQPoint@@@Z @3345
?insert@?$QVector@VQPoint@@@@QAE?AViterator@?$QTypedArrayData@VQPoint@@@@V23@HABVQPoint@@@Z @3346
?insert@?$QVector@VQPoint@@@@QAEPAVQPoint@@PAV2@ABV2@@Z @3347
?insert@?$QVector@VQPoint@@@@QAEPAVQPoint@@PAV2@HABV2@@Z @3348
?insert@?$QVector@VQPoint@@@@QAEXHABVQPoint@@@Z @3349
?insert@?$QVector@VQPoint@@@@QAEXHHABVQPoint@@@Z @3350
?insert@?$QVector@VQPointF@@@@QAE?AViterator@?$QTypedArrayData@VQPointF@@@@V23@ABVQPointF@@@Z @3351
?insert@?$QVector@VQPointF@@@@QAE?AViterator@?$QTypedArrayData@VQPointF@@@@V23@HABVQPointF@@@Z @3352
?insert@?$QVector@VQPointF@@@@QAEPAVQPointF@@PAV2@ABV2@@Z @3353
?insert@?$QVector@VQPointF@@@@QAEPAVQPointF@@PAV2@HABV2@@Z @3354
?insert@?$QVector@VQPointF@@@@QAEXHABVQPointF@@@Z @3355
?insert@?$QVector@VQPointF@@@@QAEXHHABVQPointF@@@Z @3356
?insert@?$QVector@VQXmlStreamAttribute@@@@QAEPAVQXmlStreamAttribute@@PAV2@ABV2@@Z @3357
?insert@?$QVector@VQXmlStreamAttribute@@@@QAEPAVQXmlStreamAttribute@@PAV2@HABV2@@Z @3358
?insert@?$QVector@VQXmlStreamAttribute@@@@QAEXHABVQXmlStreamAttribute@@@Z @3359
?insert@?$QVector@VQXmlStreamAttribute@@@@QAEXHHABVQXmlStreamAttribute@@@Z @3360
?insert@QByteArray@@QAEAAV1@HABV1@@Z @3361
?insert@QByteArray@@QAEAAV1@HABVQString@@@Z @3362
?insert@QByteArray@@QAEAAV1@HD@Z @3363
?insert@QByteArray@@QAEAAV1@HPBD@Z @3364
?insert@QByteArray@@QAEAAV1@HPBDH@Z @3365
?insert@QJsonArray@@QAE?AViterator@1@V21@ABVQJsonValue@@@Z @3366
?insert@QJsonArray@@QAEXHABVQJsonValue@@@Z @3367
?insert@QJsonObject@@QAE?AViterator@1@ABVQString@@ABVQJsonValue@@@Z @3368
?insert@QListData@@QAEPAPAXH@Z @3369
?insert@QProcessEnvironment@@QAEXABV1@@Z @3370
?insert@QProcessEnvironment@@QAEXABVQString@@0@Z @3371
?insert@QString@@QAEAAV1@HABV1@@Z @3372
?insert@QString@@QAEAAV1@HPBVQChar@@H@Z @3373
?insert@QString@@QAEAAV1@HVQChar@@@Z @3374
?insert@QString@@QAEAAV1@HVQLatin1String@@@Z @3375
?insertAnimation@QAnimationGroup@@QAEXHPAVQAbstractAnimation@@@Z @3376
?insertColumn@QAbstractItemModel@@QAE_NHABVQModelIndex@@@Z @3377
?insertColumns@QAbstractItemModel@@UAE_NHHABVQModelIndex@@@Z @3378
?insertColumns@QIdentityProxyModel@@UAE_NHHABVQModelIndex@@@Z @3379
?insertColumns@QSortFilterProxyModel@@UAE_NHHABVQModelIndex@@@Z @3380
?insertPause@QSequentialAnimationGroup@@QAEPAVQPauseAnimation@@HH@Z @3381
?insertResultItem@ResultStoreBase@QtPrivate@@IAEHHAAVResultItem@2@@Z @3382
?insertResultItemIfValid@ResultStoreBase@QtPrivate@@IAEXHAAVResultItem@2@@Z @3383
?insertRow@QAbstractItemModel@@QAE_NHABVQModelIndex@@@Z @3384
?insertRows@QAbstractItemModel@@UAE_NHHABVQModelIndex@@@Z @3385
?insertRows@QIdentityProxyModel@@UAE_NHHABVQModelIndex@@@Z @3386
?insertRows@QSortFilterProxyModel@@UAE_NHHABVQModelIndex@@@Z @3387
?insertRows@QStringListModel@@UAE_NHHABVQModelIndex@@@Z @3388
?install@QAnimationDriver@@QAEXXZ @3389
?installAnimationDriver@QUnifiedTimer@@QAEXPAVQAnimationDriver@@@Z @3390
?installEventFilter@QObject@@QAEXPAV1@@Z @3391
?installFilter@QLoggingCategory@@SAP6AXPAV1@@ZP6AX0@Z@Z @3392
?installMessageHook@QEventDispatcherWin32@@IAEXXZ @3393
?installNativeEventFilter@QAbstractEventDispatcher@@QAEXPAVQAbstractNativeEventFilter@@@Z @3394
?installNativeEventFilter@QCoreApplication@@QAEXPAVQAbstractNativeEventFilter@@@Z @3395
?installTranslator@QCoreApplication@@SA_NPAVQTranslator@@@Z @3396
?instance@QAbstractEventDispatcher@@SAPAV1@PAVQThread@@@Z @3397
?instance@QCoreApplication@@SAPAV1@XZ @3398
?instance@QFactoryLoader@@QBEPAVQObject@@H@Z @3399
?instance@QMutexPool@@SAPAV1@XZ @3400
?instance@QPluginLoader@@QAEPAVQObject@@XZ @3401
?instance@QUnifiedTimer@@SAPAV1@XZ @3402
?instance@QUnifiedTimer@@SAPAV1@_N@Z @3403
?integerBase@QTextStream@@QBEHXZ @3404
?internalId@QModelIndex@@QBEIXZ @3405
?internalId@QPersistentModelIndex@@QBEIXZ @3406
?internalPointer@QModelIndex@@QBEPAXXZ @3407
?internalPointer@QPersistentModelIndex@@QBEPAXXZ @3408
?internalSafetyCheckAdd@QtSharedPointer@@YAXPBXPDX@Z @3409
?internalSafetyCheckRemove@QtSharedPointer@@YAXPBX@Z @3410
?interpolated@QVariantAnimation@@MBE?AVQVariant@@ABV2@0N@Z @3411
?interrupt@QEventDispatcherWin32@@UAEXXZ @3412
?intersect@QItemSelectionRange@@QBE?AV1@ABV1@@Z @3413
?intersect@QLineF@@QBE?AW4IntersectType@1@ABV1@PAVQPointF@@@Z @3414
?intersect@QRect@@QBE?AV1@ABV1@@Z @3415
?intersect@QRectF@@QBE?AV1@ABV1@@Z @3416
?intersected@QItemSelectionRange@@QBE?AV1@ABV1@@Z @3417
?intersected@QRect@@QBE?AV1@ABV1@@Z @3418
?intersected@QRectF@@QBE?AV1@ABV1@@Z @3419
?intersects@QItemSelectionRange@@QBE_NABV1@@Z @3420
?intersects@QRect@@QBE_NABV1@@Z @3421
?intersects@QRectF@@QBE_NABV1@@Z @3422
?interval@QTimer@@QBEHXZ @3423
?invalidData@QTimeZonePrivate@@SA?AUData@1@XZ @3424
?invalidMSecs@QTimeZonePrivate@@SA_JXZ @3425
?invalidOffsetData@QTimeZonePrivate@@SA?AUOffsetData@QTimeZone@@XZ @3426
?invalidSeconds@QTimeZonePrivate@@SA_JXZ @3427
?invalidate@QElapsedTimer@@QAEXXZ @3428
?invalidate@QSortFilterProxyModel@@QAEXXZ @3429
?invalidateFilter@QSortFilterProxyModel@@IAEXXZ @3430
?invalidatePersistentIndex@QAbstractItemModelPrivate@@QAEXABVQModelIndex@@@Z @3431
?invalidatePersistentIndexes@QAbstractItemModelPrivate@@QAEXXZ @3432
?invoke@QMetaMethod@@QBE_NPAVQObject@@VQGenericArgument@@111111111@Z @3433
?invoke@QMetaMethod@@QBE_NPAVQObject@@VQGenericReturnArgument@@VQGenericArgument@@222222222@Z @3434
?invoke@QMetaMethod@@QBE_NPAVQObject@@W4ConnectionType@Qt@@VQGenericArgument@@222222222@Z @3435
?invoke@QMetaMethod@@QBE_NPAVQObject@@W4ConnectionType@Qt@@VQGenericReturnArgument@@VQGenericArgument@@333333333@Z @3436
?invokeMethod@QMetaObject@@SA_NPAVQObject@@PBDVQGenericArgument@@222222222@Z @3437
?invokeMethod@QMetaObject@@SA_NPAVQObject@@PBDVQGenericReturnArgument@@VQGenericArgument@@333333333@Z @3438
?invokeMethod@QMetaObject@@SA_NPAVQObject@@PBDW4ConnectionType@Qt@@VQGenericArgument@@333333333@Z @3439
?invokeMethod@QMetaObject@@SA_NPAVQObject@@PBDW4ConnectionType@Qt@@VQGenericReturnArgument@@VQGenericArgument@@444444444@Z @3440
?isAbsolute@QDir@@QBE_NXZ @3441
?isAbsolute@QFileInfo@@QBE_NXZ @3442
?isAbsolutePath@QDir@@SA_NABVQString@@@Z @3443
?isAccepted@QEvent@@QBE_NXZ @3444
?isActive@QBasicTimer@@QBE_NXZ @3445
?isActive@QTimer@@QBE_NXZ @3446
?isAnimated@QStateMachine@@QBE_NXZ @3447
?isArray@QJsonDocument@@QBE_NXZ @3448
?isArray@QJsonValue@@QBE_NXZ @3449
?isArray@QJsonValueRef@@QBE_NXZ @3450
?isAtBoundary@QTextBoundaryFinder@@QBE_NXZ @3451
?isAtomic@QStateMachinePrivate@@QBE_NPBVQAbstractState@@@Z @3452
?isAttached@QSharedMemory@@QBE_NXZ @3453
?isBaseChar@QXmlUtils@@CA_NVQChar@@@Z @3454
?isBool@QJsonValue@@QBE_NXZ @3455
?isBool@QJsonValueRef@@QBE_NXZ @3456
?isBuiltinType@QtPrivate@@YA_NABVQByteArray@@@Z @3457
?isBundle@QFileInfo@@QBE_NXZ @3458
?isCDATA@QXmlStreamReader@@QBE_NXZ @3459
?isCanceled@QFutureInterfaceBase@@QBE_NXZ @3460
?isCanceled@QFutureWatcherBase@@QBE_NXZ @3461
?isChar@QXmlUtils@@SA_NVQChar@@@Z @3462
?isCharacters@QXmlStreamReader@@QBE_NXZ @3463
?isColumnSelected@QItemSelectionModel@@QBE_NHABVQModelIndex@@@Z @3464
?isCombiningChar@QXmlUtils@@CA_NVQChar@@@Z @3465
?isComment@QXmlStreamReader@@QBE_NXZ @3466
?isCompound@QStateMachinePrivate@@QBE_NPBVQAbstractState@@@Z @3467
?isCompressed@QResource@@QBE_NXZ @3468
?isConstant@QMetaProperty@@QBE_NXZ @3469
?isConstant@QMetaPropertyBuilder@@QBE_NXZ @3470
?isCriticalEnabled@QLoggingCategory@@QBE_NXZ @3471
?isDTD@QXmlStreamReader@@QBE_NXZ @3472
?isDaylightTime@QDateTime@@QBE_NXZ @3473
?isDaylightTime@QTimeZone@@QBE_NABVQDateTime@@@Z @3474
?isDaylightTime@QTimeZonePrivate@@UBE_N_J@Z @3475
?isDebugBuild@QLibraryInfo@@SA_NXZ @3476
?isDebugEnabled@QLoggingCategory@@QBE_NXZ @3477
?isDefault@QMimeType@@QBE_NXZ @3478
?isDefault@QXmlStreamAttribute@@QBE_NXZ @3479
?isDescendantOf@QStateMachinePrivate@@SA_NPBVQAbstractState@@0@Z @3480
?isDesignable@QMetaProperty@@QBE_NPBVQObject@@@Z @3481
?isDesignable@QMetaPropertyBuilder@@QBE_NXZ @3482
?isDetached@?$QList@VQItemSelectionRange@@@@QBE_NXZ @3483
?isDetached@?$QVector@VQPoint@@@@QBE_NXZ @3484
?isDetached@?$QVector@VQPointF@@@@QBE_NXZ @3485
?isDetached@?$QVector@VQXmlStreamAttribute@@@@QBE_NXZ @3486
?isDetached@QBitArray@@QBE_NXZ @3487
?isDetached@QByteArray@@QBE_NXZ @3488
?isDetached@QString@@QBE_NXZ @3489
?isDetached@QUrl@@QBE_NXZ @3490
?isDetached@QUrlQuery@@QBE_NXZ @3491
?isDetached@QVariant@@QBE_NXZ @3492
?isDigit@QChar@@QBE_NXZ @3493
?isDigit@QChar@@SA_NI@Z @3494
?isDigit@QCharRef@@QBE_NXZ @3495
?isDigit@QXmlUtils@@CA_NVQChar@@@Z @3496
?isDir@QFileInfo@@QBE_NXZ @3497
?isDir@QResource@@IBE_NXZ @3498
?isDouble@QJsonValue@@QBE_NXZ @3499
?isDouble@QJsonValueRef@@QBE_NXZ @3500
?isEditable@QMetaProperty@@QBE_NPBVQObject@@@Z @3501
?isEditable@QMetaPropertyBuilder@@QBE_NXZ @3502
?isEmpty@?$QList@VQItemSelectionRange@@@@QBE_NXZ @3503
?isEmpty@?$QVector@VQPoint@@@@QBE_NXZ @3504
?isEmpty@?$QVector@VQPointF@@@@QBE_NXZ @3505
?isEmpty@?$QVector@VQXmlStreamAttribute@@@@QBE_NXZ @3506
?isEmpty@QBitArray@@QBE_NXZ @3507
?isEmpty@QByteArray@@QBE_NXZ @3508
?isEmpty@QItemSelectionRange@@QBE_NXZ @3509
?isEmpty@QJsonArray@@QBE_NXZ @3510
?isEmpty@QJsonDocument@@QBE_NXZ @3511
?isEmpty@QJsonObject@@QBE_NXZ @3512
?isEmpty@QListData@@QBE_NXZ @3513
?isEmpty@QObjectCleanupHandler@@QBE_NXZ @3514
?isEmpty@QProcessEnvironment@@QBE_NXZ @3515
?isEmpty@QRect@@QBE_NXZ @3516
?isEmpty@QRectF@@QBE_NXZ @3517
?isEmpty@QRegExp@@QBE_NXZ @3518
?isEmpty@QSize@@QBE_NXZ @3519
?isEmpty@QSizeF@@QBE_NXZ @3520
?isEmpty@QString@@QBE_NXZ @3521
?isEmpty@QStringRef@@QBE_NXZ @3522
?isEmpty@QTranslator@@UBE_NXZ @3523
?isEmpty@QUrl@@QBE_NXZ @3524
?isEmpty@QUrlQuery@@QBE_NXZ @3525
?isEnabled@QLoggingCategory@@QBE_NW4QtMsgType@@@Z @3526
?isEnabled@QSocketNotifier@@QBE_NXZ @3527
?isEnabled@QWinEventNotifier@@QBE_NXZ @3528
?isEncName@QXmlUtils@@SA_NABVQString@@@Z @3529
?isEndDocument@QXmlStreamReader@@QBE_NXZ @3530
?isEndElement@QXmlStreamReader@@QBE_NXZ @3531
?isEntityReference@QXmlStreamReader@@QBE_NXZ @3532
?isEnumOrFlag@QMetaPropertyBuilder@@QBE_NXZ @3533
?isEnumType@QMetaProperty@@QBE_NXZ @3534
?isExecutable@QFileInfo@@QBE_NXZ @3535
?isExtended@QMetaType@@ABE_NW4ExtensionFlag@1@@Z @3536
?isExtender@QXmlUtils@@CA_NVQChar@@@Z @3537
?isExternalEventQueueEmpty@QStateMachinePrivate@@QAE_NXZ @3538
?isFile@QFileInfo@@QBE_NXZ @3539
?isFile@QResource@@IBE_NXZ @3540
?isFinal@QMetaProperty@@QBE_NXZ @3541
?isFinal@QMetaPropertyBuilder@@QBE_NXZ @3542
?isFinal@QStateMachinePrivate@@SA_NPBVQAbstractState@@@Z @3543
?isFinished@QFutureInterfaceBase@@QBE_NXZ @3544
?isFinished@QFutureWatcherBase@@QBE_NXZ @3545
?isFinished@QThread@@QBE_NXZ @3546
?isFlag@QMetaEnum@@QBE_NXZ @3547
?isFlag@QMetaEnumBuilder@@QBE_NXZ @3548
?isFlagType@QMetaProperty@@QBE_NXZ @3549
?isHidden@QFileInfo@@QBE_NXZ @3550
?isHighSurrogate@QChar@@QBE_NXZ @3551
?isHighSurrogate@QChar@@SA_NI@Z @3552
?isIdeographic@QXmlUtils@@CA_NVQChar@@@Z @3553
?isInFinalState@QStateMachinePrivate@@QBE_NPAVQAbstractState@@@Z @3554
?isInternalEventQueueEmpty@QStateMachinePrivate@@QAE_NXZ @3555
?isInterruptionRequested@QThread@@QBE_NXZ @3556
?isLeapYear@QDate@@SA_NH@Z @3557
?isLetter@QChar@@QBE_NXZ @3558
?isLetter@QChar@@SA_NI@Z @3559
?isLetter@QCharRef@@QBE_NXZ @3560
?isLetter@QXmlUtils@@SA_NVQChar@@@Z @3561
?isLetterOrNumber@QChar@@QBE_NXZ @3562
?isLetterOrNumber@QChar@@SA_NI@Z @3563
?isLetterOrNumber@QCharRef@@QAE_NXZ @3564
?isLetterOrNumber_helper@QChar@@CI_NI@Z @3565
?isLetter_helper@QChar@@CI_NI@Z @3566
?isLibrary@QLibrary@@SA_NABVQString@@@Z @3567
?isLoaded@QLibrary@@QBE_NXZ @3568
?isLoaded@QPluginLoader@@QBE_NXZ @3569
?isLocalFile@QUrl@@QBE_NXZ @3570
?isLocked@QLockFile@@QBE_NXZ @3571
?isLowSurrogate@QChar@@QBE_NXZ @3572
?isLowSurrogate@QChar@@SA_NI@Z @3573
?isLower@QChar@@QBE_NXZ @3574
?isLower@QChar@@SA_NI@Z @3575
?isLower@QCharRef@@QBE_NXZ @3576
?isMark@QChar@@QBE_NXZ @3577
?isMark@QChar@@SI_NI@Z @3578
?isMark@QCharRef@@QBE_NXZ @3579
?isMinimal@QRegExp@@QBE_NXZ @3580
?isMonotonic@QElapsedTimer@@SA_NXZ @3581
?isMutable@QArrayData@@QBE_NXZ @3582
?isNCName@QXmlUtils@@SA_NABVQString@@@Z @3583
?isNCName@QXmlUtils@@SA_NABVQStringRef@@@Z @3584
?isNameChar@QXmlUtils@@SA_NVQChar@@@Z @3585
?isNativePath@QFileInfo@@QBE_NXZ @3586
?isNonCharacter@QChar@@QBE_NXZ @3587
?isNonCharacter@QChar@@SA_NI@Z @3588
?isNormalized@QVersionNumber@@QBE_NXZ @3589
?isNull@QBitArray@@QBE_NXZ @3590
?isNull@QByteArray@@QBE_NXZ @3591
?isNull@QChar@@QBE_NXZ @3592
?isNull@QCharRef@@QBE_NXZ @3593
?isNull@QDate@@QBE_NXZ @3594
?isNull@QDateTime@@QBE_NXZ @3595
?isNull@QJsonDocument@@QBE_NXZ @3596
?isNull@QJsonValue@@QBE_NXZ @3597
?isNull@QJsonValueRef@@QBE_NXZ @3598
?isNull@QLine@@QBE_NXZ @3599
?isNull@QLineF@@QBE_NXZ @3600
?isNull@QPoint@@QBE_NXZ @3601
?isNull@QPointF@@QBE_NXZ @3602
?isNull@QRect@@QBE_NXZ @3603
?isNull@QRectF@@QBE_NXZ @3604
?isNull@QSize@@QBE_NXZ @3605
?isNull@QSizeF@@QBE_NXZ @3606
?isNull@QString@@QBE_NXZ @3607
?isNull@QStringRef@@QBE_NXZ @3608
?isNull@QTime@@QBE_NXZ @3609
?isNull@QUuid@@QBE_NXZ @3610
?isNull@QVariant@@QBE_NXZ @3611
?isNull@QVersionNumber@@QBE_NXZ @3612
?isNumber@QChar@@QBE_NXZ @3613
?isNumber@QChar@@SA_NI@Z @3614
?isNumber@QCharRef@@QBE_NXZ @3615
?isNumber_helper@QChar@@CI_NI@Z @3616
?isObject@QJsonDocument@@QBE_NXZ @3617
?isObject@QJsonValue@@QBE_NXZ @3618
?isObject@QJsonValueRef@@QBE_NXZ @3619
?isOpen@QIODevice@@QBE_NXZ @3620
?isParallel@QStateMachinePrivate@@SA_NPBVQAbstractState@@@Z @3621
?isParentOf@QUrl@@QBE_NABV1@@Z @3622
?isPaused@QFutureInterfaceBase@@QBE_NXZ @3623
?isPaused@QFutureWatcherBase@@QBE_NXZ @3624
?isPipeClosed@QWindowsPipeReader@@QBE_NXZ @3625
?isPreempted@QStateMachinePrivate@@QBE_NPBVQAbstractState@@ABV?$QSet@PAVQAbstractTransition@@@@@Z @3626
?isPrefixOf@QVersionNumber@@QBE_NABV1@@Z @3627
?isPrint@QChar@@QBE_NXZ @3628
?isPrint@QChar@@SI_NI@Z @3629
?isPrint@QCharRef@@QBE_NXZ @3630
?isProcessingInstruction@QXmlStreamReader@@QBE_NXZ @3631
?isProgressUpdateNeeded@QFutureInterfaceBase@@QBE_NXZ @3632
?isPublicID@QXmlUtils@@SA_NABVQString@@@Z @3633
?isPunct@QChar@@QBE_NXZ @3634
?isPunct@QChar@@SI_NI@Z @3635
?isPunct@QCharRef@@QBE_NXZ @3636
?isQuitLockEnabled@QCoreApplication@@SA_NXZ @3637
?isReadOnly@QStorageInfo@@QBE_NXZ @3638
?isReadOperationActive@QWindowsPipeReader@@QBE_NXZ @3639
?isReadable@QDir@@QBE_NXZ @3640
?isReadable@QFileInfo@@QBE_NXZ @3641
?isReadable@QIODevice@@QBE_NXZ @3642
?isReadable@QMetaProperty@@QBE_NXZ @3643
?isReadable@QMetaPropertyBuilder@@QBE_NXZ @3644
?isReady@QStorageInfo@@QBE_NXZ @3645
?isRecursive@QBasicMutex@@QAE_NXZ @3646
?isRegistered@QMetaType@@QBE_NXZ @3647
?isRegistered@QMetaType@@SA_NH@Z @3648
?isRelative@QDir@@QBE_NXZ @3649
?isRelative@QFileInfo@@QBE_NXZ @3650
?isRelative@QUrl@@QBE_NXZ @3651
?isRelativePath@QAbstractFileEngine@@UBE_NXZ @3652
?isRelativePath@QDir@@SA_NABVQString@@@Z @3653
?isRelativePath@QFSFileEngine@@UBE_NXZ @3654
?isResetDisabled@QNonContiguousByteDevice@@QAE_NXZ @3655
?isResettable@QMetaProperty@@QBE_NXZ @3656
?isResettable@QMetaPropertyBuilder@@QBE_NXZ @3657
?isResultReadyAt@QFutureInterfaceBase@@QBE_NH@Z @3658
?isRightToLeft@QString@@QBE_NXZ @3659
?isRoot@QDir@@QBE_NXZ @3660
?isRoot@QFileInfo@@QBE_NXZ @3661
?isRoot@QStorageInfo@@QBE_NXZ @3662
?isRowSelected@QItemSelectionModel@@QBE_NHABVQModelIndex@@@Z @3663
?isRunning@QAnimationDriver@@QBE_NXZ @3664
?isRunning@QEventLoop@@QBE_NXZ @3665
?isRunning@QFutureInterfaceBase@@QBE_NXZ @3666
?isRunning@QFutureWatcherBase@@QBE_NXZ @3667
?isRunning@QStateMachine@@QBE_NXZ @3668
?isRunning@QThread@@QBE_NXZ @3669
?isScriptable@QMetaProperty@@QBE_NPBVQObject@@@Z @3670
?isScriptable@QMetaPropertyBuilder@@QBE_NXZ @3671
?isSelected@QItemSelectionModel@@QBE_NABVQModelIndex@@@Z @3672
?isSender@QObjectPrivate@@QBE_NPBVQObject@@PBD@Z @3673
?isSequential@QAbstractFileEngine@@UBE_NXZ @3674
?isSequential@QFSFileEngine@@UBE_NXZ @3675
?isSequential@QFileDevice@@UBE_NXZ @3676
?isSequential@QIODevice@@UBE_NXZ @3677
?isSequential@QIODevicePrivate@@QBE_NXZ @3678
?isSequential@QProcess@@UBE_NXZ @3679
?isSet@QCommandLineParser@@QBE_NABVQCommandLineOption@@@Z @3680
?isSet@QCommandLineParser@@QBE_NABVQString@@@Z @3681
?isSetuidAllowed@QCoreApplication@@SA_NXZ @3682
?isSharedWith@?$QList@VQItemSelectionRange@@@@QBE_NABV1@@Z @3683
?isSharedWith@?$QVector@VQPoint@@@@QBE_NABV1@@Z @3684
?isSharedWith@?$QVector@VQPointF@@@@QBE_NABV1@@Z @3685
?isSharedWith@?$QVector@VQXmlStreamAttribute@@@@QBE_NABV1@@Z @3686
?isSharedWith@QByteArray@@QBE_NABV1@@Z @3687
?isSharedWith@QString@@QBE_NABV1@@Z @3688
?isSignalConnected@QAbstractDeclarativeData@@2P6A_NPAV1@PBVQObject@@H@ZA @3689
?isSignalConnected@QObject@@IBE_NABVQMetaMethod@@@Z @3690
?isSignalConnected@QObjectPrivate@@QBE_NI@Z @3691
?isSimpleText@QString@@QBE_NXZ @3692
?isSingleShot@QTimer@@QBE_NXZ @3693
?isSortLocaleAware@QSortFilterProxyModel@@QBE_NXZ @3694
?isSpace@QChar@@QBE_NXZ @3695
?isSpace@QChar@@SA_NI@Z @3696
?isSpace@QCharRef@@QBE_NXZ @3697
?isSpace_helper@QChar@@CI_NI@Z @3698
?isStandaloneDocument@QXmlStreamReader@@QBE_NXZ @3699
?isStartDocument@QXmlStreamReader@@QBE_NXZ @3700
?isStartElement@QXmlStreamReader@@QBE_NXZ @3701
?isStarted@QFutureInterfaceBase@@QBE_NXZ @3702
?isStarted@QFutureWatcherBase@@QBE_NXZ @3703
?isStored@QMetaProperty@@QBE_NPBVQObject@@@Z @3704
?isStored@QMetaPropertyBuilder@@QBE_NXZ @3705
?isString@QJsonValue@@QBE_NXZ @3706
?isString@QJsonValueRef@@QBE_NXZ @3707
?isSurrogate@QChar@@QBE_NXZ @3708
?isSurrogate@QChar@@SA_NI@Z @3709
?isSymLink@QFileInfo@@QBE_NXZ @3710
?isSymbol@QChar@@QBE_NXZ @3711
?isSymbol@QChar@@SI_NI@Z @3712
?isTestModeEnabled@QStandardPaths@@SA_NXZ @3713
?isTextModeEnabled@QIODevice@@QBE_NXZ @3714
?isThrottled@QFutureInterfaceBase@@QBE_NXZ @3715
?isTimeZoneIdAvailable@QTimeZone@@SA_NABVQByteArray@@@Z @3716
?isTitleCase@QChar@@QBE_NXZ @3717
?isTitleCase@QChar@@SA_NI@Z @3718
?isTitleCase@QCharRef@@QBE_NXZ @3719
?isTranslatorInstalled@QCoreApplicationPrivate@@SA_NPAVQTranslator@@@Z @3720
?isUndefined@QJsonValue@@QBE_NXZ @3721
?isUndefined@QJsonValueRef@@QBE_NXZ @3722
?isUpper@QChar@@QBE_NXZ @3723
?isUpper@QChar@@SA_NI@Z @3724
?isUpper@QCharRef@@QBE_NXZ @3725
?isUser@QMetaProperty@@QBE_NPBVQObject@@@Z @3726
?isUser@QMetaPropertyBuilder@@QBE_NXZ @3727
?isValid@QDate@@QBE_NXZ @3728
?isValid@QDate@@SA_NHHH@Z @3729
?isValid@QDateTime@@QBE_NXZ @3730
?isValid@QElapsedTimer@@QBE_NXZ @3731
?isValid@QItemSelectionRange@@QBE_NXZ @3732
?isValid@QMetaEnum@@QBE_NXZ @3733
?isValid@QMetaMethod@@QBE_NXZ @3734
?isValid@QMetaProperty@@QBE_NXZ @3735
?isValid@QMetaType@@QBE_NXZ @3736
?isValid@QMimeType@@QBE_NXZ @3737
?isValid@QModelIndex@@QBE_NXZ @3738
?isValid@QPersistentModelIndex@@QBE_NXZ @3739
?isValid@QRect@@QBE_NXZ @3740
?isValid@QRectF@@QBE_NXZ @3741
?isValid@QRegExp@@QBE_NXZ @3742
?isValid@QRegularExpression@@QBE_NXZ @3743
?isValid@QRegularExpressionMatch@@QBE_NXZ @3744
?isValid@QRegularExpressionMatchIterator@@QBE_NXZ @3745
?isValid@QResource@@QBE_NXZ @3746
?isValid@QSize@@QBE_NXZ @3747
?isValid@QSizeF@@QBE_NXZ @3748
?isValid@QStorageInfo@@QBE_NXZ @3749
?isValid@QTemporaryDir@@QBE_NXZ @3750
?isValid@QTextBoundaryFinder@@QBE_NXZ @3751
?isValid@QTime@@QBE_NXZ @3752
?isValid@QTime@@SA_NHHHH@Z @3753
?isValid@QTimeZone@@QBE_NXZ @3754
?isValid@QTimeZonePrivate@@QBE_NXZ @3755
?isValid@QUrl@@QBE_NXZ @3756
?isValid@QVariant@@QBE_NXZ @3757
?isValidId@QTimeZonePrivate@@SA_NABVQByteArray@@@Z @3758
?isValidIterator@?$QList@VQItemSelectionRange@@@@ABE_NABViterator@1@@Z @3759
?isValidIterator@?$QVector@VQPoint@@@@ABE_NABQAVQPoint@@@Z @3760
?isValidIterator@?$QVector@VQPoint@@@@ABE_NABViterator@?$QTypedArrayData@VQPoint@@@@@Z @3761
?isValidIterator@?$QVector@VQPointF@@@@ABE_NABQAVQPointF@@@Z @3762
?isValidIterator@?$QVector@VQPointF@@@@ABE_NABViterator@?$QTypedArrayData@VQPointF@@@@@Z @3763
?isValidIterator@?$QVector@VQXmlStreamAttribute@@@@ABE_NABQAVQXmlStreamAttribute@@@Z @3764
?isVector@ResultIteratorBase@QtPrivate@@QBE_NXZ @3765
?isWarningEnabled@QLoggingCategory@@QBE_NXZ @3766
?isWhitespace@QXmlStreamReader@@QBE_NXZ @3767
?isWidgetType@QObject@@QBE_NXZ @3768
?isWindowType@QObject@@QBE_NXZ @3769
?isWritable@QFileInfo@@QBE_NXZ @3770
?isWritable@QIODevice@@QBE_NXZ @3771
?isWritable@QMetaProperty@@QBE_NXZ @3772
?isWritable@QMetaPropertyBuilder@@QBE_NXZ @3773
?isWritable@QSettings@@QBE_NXZ @3774
?is_app_closing@QCoreApplicationPrivate@@2_NA @3775
?is_app_running@QCoreApplicationPrivate@@2_NA @3776
?isoOffsetFormat@QTimeZonePrivate@@SA?AVQString@@H@Z @3777
?itemData@QAbstractItemModel@@UBE?AV?$QMap@HVQVariant@@@@ABVQModelIndex@@@Z @3778
?itemData@QAbstractProxyModel@@UBE?AV?$QMap@HVQVariant@@@@ABVQModelIndex@@@Z @3779
?itemsAboutToBeMoved@QAbstractItemModelPrivate@@QAEXABVQModelIndex@@HH0HW4Orientation@Qt@@@Z @3780
?itemsMoved@QAbstractItemModelPrivate@@QAEXABVQModelIndex@@HH0HW4Orientation@Qt@@@Z @3781
?joining@QChar@@QBE?AW4Joining@1@XZ @3782
?joining@QChar@@SI?AW4Joining@1@I@Z @3783
?joining@QCharRef@@QBE?AW4Joining@QChar@@XZ @3784
?joiningType@QChar@@QBE?AW4JoiningType@1@XZ @3785
?joiningType@QChar@@SI?AW4JoiningType@1@I@Z @3786
?joiningType@QCharRef@@QBE?AW4JoiningType@QChar@@XZ @3787
?kernelType@QSysInfo@@SA?AVQString@@XZ @3788
?kernelVersion@QSysInfo@@SA?AVQString@@XZ @3789
?key@QMetaEnum@@QBEPBDH@Z @3790
?key@QMetaEnumBuilder@@QBE?AVQByteArray@@H@Z @3791
?key@QSharedMemory@@QBE?AVQString@@XZ @3792
?key@QSystemSemaphore@@QBE?AVQString@@XZ @3793
?key@const_iterator@QAssociativeIterable@@QBE?BVQVariant@@XZ @3794
?keyAt@QJsonObject@@ABE?AVQString@@H@Z @3795
?keyCount@QMetaEnum@@QBEHXZ @3796
?keyCount@QMetaEnumBuilder@@QBEHXZ @3797
?keyMap@QFactoryLoader@@QBE?AV?$QMultiMap@HVQString@@@@XZ @3798
?keyToValue@QMetaEnum@@QBEHPBDPA_N@Z @3799
?keyValueAt@QVariantAnimation@@QBE?AVQVariant@@N@Z @3800
?keyValues@QVariantAnimation@@QBE?AV?$QVector@U?$QPair@NVQVariant@@@@@@XZ @3801
?keys@QJsonObject@@QBE?AVQStringList@@XZ @3802
?keys@QProcessEnvironment@@QBE?AVQStringList@@XZ @3803
?keysToValue@QMetaEnum@@QBEHPBDPA_N@Z @3804
?kill@QProcess@@QAEXXZ @3805
?killTimer@QObject@@QAEXH@Z @3806
?killTimer@QTimer@@AAEXH@Z @3807
?language@QLocale@@QBE?AW4Language@1@XZ @3808
?languageCode@QLocalePrivate@@QBE?AVQString@@XZ @3809
?languageId@QLocalePrivate@@QBEGXZ @3810
?languageToCode@QLocalePrivate@@SA?AVQString@@W4Language@QLocale@@@Z @3811
?languageToString@QLocale@@SA?AVQString@@W4Language@1@@Z @3812
?last@?$QList@VQItemSelectionRange@@@@QAEAAVQItemSelectionRange@@XZ @3813
?last@?$QList@VQItemSelectionRange@@@@QBEABVQItemSelectionRange@@XZ @3814
?last@?$QVector@VQPoint@@@@QAEAAVQPoint@@XZ @3815
?last@?$QVector@VQPoint@@@@QBEABVQPoint@@XZ @3816
?last@?$QVector@VQPointF@@@@QAEAAVQPointF@@XZ @3817
?last@?$QVector@VQPointF@@@@QBEABVQPointF@@XZ @3818
?last@?$QVector@VQXmlStreamAttribute@@@@QAEAAVQXmlStreamAttribute@@XZ @3819
?last@?$QVector@VQXmlStreamAttribute@@@@QBEABVQXmlStreamAttribute@@XZ @3820
?last@QJsonArray@@QBE?AVQJsonValue@@XZ @3821
?lastCapturedIndex@QRegularExpressionMatch@@QBEHXZ @3822
?lastIndexIn@QRegExp@@QBEHABVQString@@HW4CaretMode@1@@Z @3823
?lastIndexOf@?$QList@VQItemSelectionRange@@@@QBEHABVQItemSelectionRange@@H@Z @3824
?lastIndexOf@?$QVector@VQPoint@@@@QBEHABVQPoint@@H@Z @3825
?lastIndexOf@?$QVector@VQPointF@@@@QBEHABVQPointF@@H@Z @3826
?lastIndexOf@?$QVector@VQXmlStreamAttribute@@@@QBEHABVQXmlStreamAttribute@@H@Z @3827
?lastIndexOf@QByteArray@@QBEHABV1@H@Z @3828
?lastIndexOf@QByteArray@@QBEHABVQString@@H@Z @3829
?lastIndexOf@QByteArray@@QBEHDH@Z @3830
?lastIndexOf@QByteArray@@QBEHPBDH@Z @3831
?lastIndexOf@QString@@QBEHAAVQRegExp@@H@Z @3832
?lastIndexOf@QString@@QBEHABV1@HW4CaseSensitivity@Qt@@@Z @3833
?lastIndexOf@QString@@QBEHABVQRegExp@@H@Z @3834
?lastIndexOf@QString@@QBEHABVQRegularExpression@@H@Z @3835
?lastIndexOf@QString@@QBEHABVQStringRef@@HW4CaseSensitivity@Qt@@@Z @3836
?lastIndexOf@QString@@QBEHVQChar@@HW4CaseSensitivity@Qt@@@Z @3837
?lastIndexOf@QString@@QBEHVQLatin1String@@HW4CaseSensitivity@Qt@@@Z @3838
?lastIndexOf@QStringRef@@QBEHABV1@HW4CaseSensitivity@Qt@@@Z @3839
?lastIndexOf@QStringRef@@QBEHABVQString@@HW4CaseSensitivity@Qt@@@Z @3840
?lastIndexOf@QStringRef@@QBEHVQChar@@HW4CaseSensitivity@Qt@@@Z @3841
?lastIndexOf@QStringRef@@QBEHVQLatin1String@@HW4CaseSensitivity@Qt@@@Z @3842
?lastModified@QFileInfo@@QBE?AVQDateTime@@XZ @3843
?lastRead@QFileInfo@@QBE?AVQDateTime@@XZ @3844
?layoutAboutToBeChanged@QAbstractItemModel@@QAEXABV?$QList@VQPersistentModelIndex@@@@W4LayoutChangeHint@1@@Z @3845
?layoutChanged@QAbstractItemModel@@QAEXABV?$QList@VQPersistentModelIndex@@@@W4LayoutChangeHint@1@@Z @3846
?left@@YAAAVQTextStream@@AAV1@@Z @3847
?left@QByteArray@@QBE?AV1@H@Z @3848
?left@QItemSelectionRange@@QBEHXZ @3849
?left@QRect@@QBEHXZ @3850
?left@QRectF@@QBENXZ @3851
?left@QString@@QBE?AV1@H@Z @3852
?left@QStringRef@@QBE?AV1@H@Z @3853
?leftJustified@QByteArray@@QBE?AV1@HD_N@Z @3854
?leftJustified@QString@@QBE?AV1@HVQChar@@_N@Z @3855
?leftRef@QString@@QBE?AVQStringRef@@H@Z @3856
?length@?$QList@VQItemSelectionRange@@@@QBEHXZ @3857
?length@?$QVector@VQPoint@@@@QBEHXZ @3858
?length@?$QVector@VQPointF@@@@QBEHXZ @3859
?length@?$QVector@VQXmlStreamAttribute@@@@QBEHXZ @3860
?length@QByteArray@@QBEHXZ @3861
?length@QJsonObject@@QBEHXZ @3862
?length@QLineF@@QBENXZ @3863
?length@QString@@QBEHXZ @3864
?length@QStringRef@@QBEHXZ @3865
?lessThan@QSortFilterProxyModel@@MBE_NABVQModelIndex@@0@Z @3866
?libraryPaths@QCoreApplication@@SA?AVQStringList@@XZ @3867
?licensedProducts@QLibraryInfo@@SA?AVQString@@XZ @3868
?licensee@QLibraryInfo@@SA?AVQString@@XZ @3869
?lineBreakClass@QUnicodeTables@@YI?AW4LineBreakClass@1@I@Z @3870
?lineNumber@QXmlStreamReader@@QBE_JXZ @3871
?link@QAbstractFileEngine@@UAE_NABVQString@@@Z @3872
?link@QFSFileEngine@@UAE_NABVQString@@@Z @3873
?link@QFile@@QAE_NABVQString@@@Z @3874
?link@QFile@@SA_NABVQString@@0@Z @3875
?list@QLocalePrivate@@QBE?AVQChar@@XZ @3876
?load@QLibrary@@QAE_NXZ @3877
?load@QMetaType@@SA_NAAVQDataStream@@HPAX@Z @3878
?load@QPluginLoader@@QAE_NXZ @3879
?load@QSystemLibrary@@SAPAUHINSTANCE__@@PB_W_N@Z @3880
?load@QTranslator@@QAE_NABVQLocale@@ABVQString@@111@Z @3881
?load@QTranslator@@QAE_NABVQString@@000@Z @3882
?load@QTranslator@@QAE_NPBEHABVQString@@@Z @3883
?load@QVariant@@QAEXAAVQDataStream@@@Z @3884
?loadHints@QLibrary@@QBE?AV?$QFlags@W4LoadHint@QLibrary@@@@XZ @3885
?loadHints@QPluginLoader@@QBE?AV?$QFlags@W4LoadHint@QLibrary@@@@XZ @3886
?localRestart@QUnifiedTimer@@AAEXXZ @3887
?locale@QCollator@@QBE?AVQLocale@@XZ @3888
?locale@QDateTimeParser@@UBE?AVQLocale@@XZ @3889
?locale@QResource@@QBE?AVQLocale@@XZ @3890
?locale@QTextStream@@QBE?AVQLocale@@XZ @3891
?localeAwareCompare@QString@@QBEHABV1@@Z @3892
?localeAwareCompare@QString@@QBEHABVQStringRef@@@Z @3893
?localeAwareCompare@QString@@SAHABV1@0@Z @3894
?localeAwareCompare@QString@@SAHABV1@ABVQStringRef@@@Z @3895
?localeAwareCompare@QStringRef@@QBEHABV1@@Z @3896
?localeAwareCompare@QStringRef@@QBEHABVQString@@@Z @3897
?localeAwareCompare@QStringRef@@SAHABV1@0@Z @3898
?localeAwareCompare@QStringRef@@SAHABV1@ABVQString@@@Z @3899
?localeAwareCompare_helper@QString@@CAHPBVQChar@@H0H@Z @3900
?locate@QStandardPaths@@SA?AVQString@@W4StandardLocation@1@ABV2@V?$QFlags@W4LocateOption@QStandardPaths@@@@@Z @3901
?locateAll@QStandardPaths@@SA?AVQStringList@@W4StandardLocation@1@ABVQString@@V?$QFlags@W4LocateOption@QStandardPaths@@@@@Z @3902
?location@QLibraryInfo@@SA?AVQString@@W4LibraryLocation@1@@Z @3903
?lock@QBasicMutex@@QAEXXZ @3904
?lock@QLockFile@@QAE_NXZ @3905
?lock@QMutex@@QAEXXZ @3906
?lock@QSharedMemory@@QAE_NXZ @3907
?lockForRead@QReadWriteLock@@QAEXXZ @3908
?lockForWrite@QReadWriteLock@@QAEXXZ @3909
?lockInternal@QBasicMutex@@AAEXXZ @3910
?lockInternal@QBasicMutex@@AAE_NH@Z @3911
?longDayName@QDate@@SA?AVQString@@HW4MonthNameType@1@@Z @3912
?longMonthName@QDate@@SA?AVQString@@HW4MonthNameType@1@@Z @3913
?loopCount@QAbstractAnimation@@QBEHXZ @3914
?loopCount@QTimeLine@@QBEHXZ @3915
?loopLevel@QDeferredDeleteEvent@@QBEHXZ @3916
?lowSurrogate@QChar@@SAGI@Z @3917
?lowercasebase@@YAAAVQTextStream@@AAV1@@Z @3918
?lowercasedigits@@YAAAVQTextStream@@AAV1@@Z @3919
?machine@QAbstractState@@QBEPAVQStateMachine@@XZ @3920
?machine@QAbstractTransition@@QBEPAVQStateMachine@@XZ @3921
?machine@QAbstractTransitionPrivate@@QBEPAVQStateMachine@@XZ @3922
?mainThread@QCoreApplicationPrivate@@SAPAVQThread@@XZ @3923
?majorVersion@QVersionNumber@@QBEHXZ @3924
?makeAbsolute@QDir@@QAE_NXZ @3925
?makeAbsolute@QFileInfo@@QAE_NXZ @3926
?makeDecoder@QTextCodec@@QBEPAVQTextDecoder@@V?$QFlags@W4ConversionFlag@QTextCodec@@@@@Z @3927
?makeEncoder@QTextCodec@@QBEPAVQTextEncoder@@V?$QFlags@W4ConversionFlag@QTextCodec@@@@@Z @3928
?manhattanLength@QPoint@@QBEHXZ @3929
?manhattanLength@QPointF@@QBENXZ @3930
?map@QAbstractFileEngine@@QAEPAE_J0W4MemoryMapFlags@QFileDevice@@@Z @3931
?map@QFileDevice@@QAEPAE_J0W4MemoryMapFlags@1@@Z @3932
?map@QSignalMapper@@QAEXPAVQObject@@@Z @3933
?map@QSignalMapper@@QAEXXZ @3934
?mapDropCoordinatesToSource@QAbstractProxyModelPrivate@@QBEXHHABVQModelIndex@@PAH1PAV2@@Z @3935
?mapFromSource@QIdentityProxyModel@@UBE?AVQModelIndex@@ABV2@@Z @3936
?mapFromSource@QSortFilterProxyModel@@UBE?AVQModelIndex@@ABV2@@Z @3937
?mapSelectionFromSource@QAbstractProxyModel@@UBE?AVQItemSelection@@ABV2@@Z @3938
?mapSelectionFromSource@QIdentityProxyModel@@UBE?AVQItemSelection@@ABV2@@Z @3939
?mapSelectionFromSource@QSortFilterProxyModel@@UBE?AVQItemSelection@@ABV2@@Z @3940
?mapSelectionToSource@QAbstractProxyModel@@UBE?AVQItemSelection@@ABV2@@Z @3941
?mapSelectionToSource@QIdentityProxyModel@@UBE?AVQItemSelection@@ABV2@@Z @3942
?mapSelectionToSource@QSortFilterProxyModel@@UBE?AVQItemSelection@@ABV2@@Z @3943
?mapToSource@QIdentityProxyModel@@UBE?AVQModelIndex@@ABV2@@Z @3944
?mapToSource@QSortFilterProxyModel@@UBE?AVQModelIndex@@ABV2@@Z @3945
?mapped@QSignalMapper@@QAEXABVQString@@@Z @3946
?mapped@QSignalMapper@@QAEXH@Z @3947
?mapped@QSignalMapper@@QAEXPAVQObject@@@Z @3948
?mapped@QSignalMapper@@QAEXPAVQWidget@@@Z @3949
?mapping@QSignalMapper@@QBEPAVQObject@@ABVQString@@@Z @3950
?mapping@QSignalMapper@@QBEPAVQObject@@H@Z @3951
?mapping@QSignalMapper@@QBEPAVQObject@@PAV2@@Z @3952
?mapping@QSignalMapper@@QBEPAVQObject@@PAVQWidget@@@Z @3953
?marginsAdded@QRect@@QBE?AV1@ABVQMargins@@@Z @3954
?marginsAdded@QRectF@@QBE?AV1@ABVQMarginsF@@@Z @3955
?marginsRemoved@QRect@@QBE?AV1@ABVQMargins@@@Z @3956
?marginsRemoved@QRectF@@QBE?AV1@ABVQMarginsF@@@Z @3957
?match@QAbstractItemModel@@UBE?AV?$QList@VQModelIndex@@@@ABVQModelIndex@@HABVQVariant@@HV?$QFlags@W4MatchFlag@Qt@@@@@Z @3958
?match@QDir@@SA_NABVQString@@0@Z @3959
?match@QDir@@SA_NABVQStringList@@ABVQString@@@Z @3960
?match@QIdentityProxyModel@@UBE?AV?$QList@VQModelIndex@@@@ABVQModelIndex@@HABVQVariant@@HV?$QFlags@W4MatchFlag@Qt@@@@@Z @3961
?match@QRegularExpression@@QBE?AVQRegularExpressionMatch@@ABVQString@@HW4MatchType@1@V?$QFlags@W4MatchOption@QRegularExpression@@@@@Z @3962
?match@QSortFilterProxyModel@@UBE?AV?$QList@VQModelIndex@@@@ABVQModelIndex@@HABVQVariant@@HV?$QFlags@W4MatchFlag@Qt@@@@@Z @3963
?matchOptions@QRegularExpressionMatch@@QBE?AV?$QFlags@W4MatchOption@QRegularExpression@@@@XZ @3964
?matchOptions@QRegularExpressionMatchIterator@@QBE?AV?$QFlags@W4MatchOption@QRegularExpression@@@@XZ @3965
?matchType@QRegularExpressionMatch@@QBE?AW4MatchType@QRegularExpression@@XZ @3966
?matchType@QRegularExpressionMatchIterator@@QBE?AW4MatchType@QRegularExpression@@XZ @3967
?matchedLength@QRegExp@@QBEHXZ @3968
?matches@QUrl@@QBE_NABV1@V?$QUrlTwoFlags@W4UrlFormattingOption@QUrl@@W4ComponentFormattingOption@2@@@@Z @3969
?matchingLocales@QLocale@@SA?AV?$QList@VQLocale@@@@W4Language@1@W4Script@1@W4Country@1@@Z @3970
?maxChange@QDateTimeParser@@QBEHH@Z @3971
?maxJd@QDate@@CA_JXZ @3972
?maxMSecs@QTimeZonePrivate@@SA_JXZ @3973
?maxReadBufferSize@QWindowsPipeReader@@QBE_JXZ @3974
?maxThreadCount@QThreadPool@@QBEHXZ @3975
?maybeQuit@QCoreApplicationPrivate@@QAEXXZ @3976
?maybeQuote@QDebug@@QAEAAV1@D@Z @3977
?maybeRegister@QEventTransitionPrivate@@QAEXXZ @3978
?maybeRegisterEventTransition@QStateMachinePrivate@@QAEXPAVQEventTransition@@@Z @3979
?maybeRegisterSignalTransition@QStateMachinePrivate@@QAEXPAVQSignalTransition@@@Z @3980
?maybeRegisterTransition@QStateMachinePrivate@@QAEXPAVQAbstractTransition@@@Z @3981
?maybeSpace@QDebug@@QAEAAV1@XZ @3982
?maybeUpdateAnimationsToCurrentTime@QUnifiedTimer@@QAEXXZ @3983
?measurementSystem@QLocale@@QBE?AW4MeasurementSystem@1@XZ @3984
?measurementSystem@QLocalePrivate@@QBE?AW4MeasurementSystem@QLocale@@XZ @3985
?merge@QItemSelection@@QAEXABV1@V?$QFlags@W4SelectionFlag@QItemSelectionModel@@@@@Z @3986
?metaCall@QAbstractDynamicMetaObject@@UAEHPAVQObject@@W4Call@QMetaObject@@HPAPAX@Z @3987
?metaCall@QAbstractDynamicMetaObject@@UAEHW4Call@QMetaObject@@HPAPAX@Z @3988
?metaData@QFactoryLoader@@QBE?AV?$QList@VQJsonObject@@@@XZ @3989
?metaData@QPluginLoader@@QBE?AVQJsonObject@@XZ @3990
?metaData@QStaticPlugin@@QBE?AVQJsonObject@@XZ @3991
?metaObject@QAbstractAnimation@@UBEPBUQMetaObject@@XZ @3992
?metaObject@QAbstractAnimationTimer@@UBEPBUQMetaObject@@XZ @3993
?metaObject@QAbstractEventDispatcher@@UBEPBUQMetaObject@@XZ @3994
?metaObject@QAbstractItemModel@@UBEPBUQMetaObject@@XZ @3995
?metaObject@QAbstractListModel@@UBEPBUQMetaObject@@XZ @3996
?metaObject@QAbstractProxyModel@@UBEPBUQMetaObject@@XZ @3997
?metaObject@QAbstractState@@UBEPBUQMetaObject@@XZ @3998
?metaObject@QAbstractTableModel@@UBEPBUQMetaObject@@XZ @3999
?metaObject@QAbstractTransition@@UBEPBUQMetaObject@@XZ @4000
?metaObject@QAnimationDriver@@UBEPBUQMetaObject@@XZ @4001
?metaObject@QAnimationGroup@@UBEPBUQMetaObject@@XZ @4002
?metaObject@QBuffer@@UBEPBUQMetaObject@@XZ @4003
?metaObject@QCoreApplication@@UBEPBUQMetaObject@@XZ @4004
?metaObject@QEventDispatcherWin32@@UBEPBUQMetaObject@@XZ @4005
?metaObject@QEventLoop@@UBEPBUQMetaObject@@XZ @4006
?metaObject@QEventTransition@@UBEPBUQMetaObject@@XZ @4007
?metaObject@QFactoryLoader@@UBEPBUQMetaObject@@XZ @4008
?metaObject@QFile@@UBEPBUQMetaObject@@XZ @4009
?metaObject@QFileDevice@@UBEPBUQMetaObject@@XZ @4010
?metaObject@QFileSelector@@UBEPBUQMetaObject@@XZ @4011
?metaObject@QFileSystemWatcher@@UBEPBUQMetaObject@@XZ @4012
?metaObject@QFinalState@@UBEPBUQMetaObject@@XZ @4013
?metaObject@QFutureWatcherBase@@UBEPBUQMetaObject@@XZ @4014
?metaObject@QHistoryState@@UBEPBUQMetaObject@@XZ @4015
?metaObject@QIODevice@@UBEPBUQMetaObject@@XZ @4016
?metaObject@QIdentityProxyModel@@UBEPBUQMetaObject@@XZ @4017
?metaObject@QItemSelectionModel@@UBEPBUQMetaObject@@XZ @4018
?metaObject@QLibrary@@UBEPBUQMetaObject@@XZ @4019
?metaObject@QMetaType@@QBEPBUQMetaObject@@XZ @4020
?metaObject@QMimeData@@UBEPBUQMetaObject@@XZ @4021
?metaObject@QNonContiguousByteDevice@@UBEPBUQMetaObject@@XZ @4022
?metaObject@QObject@@UBEPBUQMetaObject@@XZ @4023
?metaObject@QObjectCleanupHandler@@UBEPBUQMetaObject@@XZ @4024
?metaObject@QParallelAnimationGroup@@UBEPBUQMetaObject@@XZ @4025
?metaObject@QPauseAnimation@@UBEPBUQMetaObject@@XZ @4026
?metaObject@QPluginLoader@@UBEPBUQMetaObject@@XZ @4027
?metaObject@QProcess@@UBEPBUQMetaObject@@XZ @4028
?metaObject@QPropertyAnimation@@UBEPBUQMetaObject@@XZ @4029
?metaObject@QSaveFile@@UBEPBUQMetaObject@@XZ @4030
?metaObject@QSequentialAnimationGroup@@UBEPBUQMetaObject@@XZ @4031
?metaObject@QSettings@@UBEPBUQMetaObject@@XZ @4032
?metaObject@QSharedMemory@@UBEPBUQMetaObject@@XZ @4033
?metaObject@QSignalMapper@@UBEPBUQMetaObject@@XZ @4034
?metaObject@QSignalTransition@@UBEPBUQMetaObject@@XZ @4035
?metaObject@QSocketNotifier@@UBEPBUQMetaObject@@XZ @4036
?metaObject@QSortFilterProxyModel@@UBEPBUQMetaObject@@XZ @4037
?metaObject@QState@@UBEPBUQMetaObject@@XZ @4038
?metaObject@QStateMachine@@UBEPBUQMetaObject@@XZ @4039
?metaObject@QStringListModel@@UBEPBUQMetaObject@@XZ @4040
?metaObject@QTemporaryFile@@UBEPBUQMetaObject@@XZ @4041
?metaObject@QThread@@UBEPBUQMetaObject@@XZ @4042
?metaObject@QThreadPool@@UBEPBUQMetaObject@@XZ @4043
?metaObject@QTimeLine@@UBEPBUQMetaObject@@XZ @4044
?metaObject@QTimer@@UBEPBUQMetaObject@@XZ @4045
?metaObject@QTranslator@@UBEPBUQMetaObject@@XZ @4046
?metaObject@QUnifiedTimer@@UBEPBUQMetaObject@@XZ @4047
?metaObject@QVariantAnimation@@UBEPBUQMetaObject@@XZ @4048
?metaObject@QWinEventNotifier@@UBEPBUQMetaObject@@XZ @4049
?metaObject@QWinOverlappedIoNotifier@@UBEPBUQMetaObject@@XZ @4050
?metaObject@QWindowsPipeReader@@UBEPBUQMetaObject@@XZ @4051
?metaObject@QWindowsPipeWriter@@UBEPBUQMetaObject@@XZ @4052
?metaObjectExtended@QMetaType@@ABEPBUQMetaObject@@XZ @4053
?metaObjectForType@QMetaType@@SAPBUQMetaObject@@H@Z @4054
?metacall@QMetaObject@@SAHPAVQObject@@W4Call@1@HPAPAX@Z @4055
?method@QMetaObject@@QBE?AVQMetaMethod@@H@Z @4056
?method@QMetaObjectBuilder@@QBE?AVQMetaMethodBuilder@@H@Z @4057
?methodCount@QMetaObject@@QBEHXZ @4058
?methodCount@QMetaObjectBuilder@@QBEHXZ @4059
?methodIndex@QMetaMethod@@QBEHXZ @4060
?methodOffset@QMetaObject@@QBEHXZ @4061
?methodSignature@QMetaMethod@@QBE?AVQByteArray@@XZ @4062
?methodType@QMetaMethod@@QBE?AW4MethodType@1@XZ @4063
?methodType@QMetaMethodBuilder@@QBE?AW4MethodType@QMetaMethod@@XZ @4064
?microVersion@QVersionNumber@@QBEHXZ @4065
?microstep@QStateMachinePrivate@@QAEXPAVQEvent@@ABV?$QList@PAVQAbstractTransition@@@@@Z @4066
?mid@?$QList@VQItemSelectionRange@@@@QBE?AV1@HH@Z @4067
?mid@?$QVector@VQPoint@@@@QBE?AV1@HH@Z @4068
?mid@?$QVector@VQPointF@@@@QBE?AV1@HH@Z @4069
?mid@?$QVector@VQXmlStreamAttribute@@@@QBE?AV1@HH@Z @4070
?mid@QByteArray@@QBE?AV1@HH@Z @4071
?mid@QContainerImplHelper@QtPrivate@@SA?AW4CutResult@12@HPAH0@Z @4072
?mid@QString@@QBE?AV1@HH@Z @4073
?mid@QStringRef@@QBE?AV1@HH@Z @4074
?midRef@QString@@QBE?AVQStringRef@@HH@Z @4075
?mimeData@QAbstractItemModel@@UBEPAVQMimeData@@ABV?$QList@VQModelIndex@@@@@Z @4076
?mimeData@QAbstractProxyModel@@UBEPAVQMimeData@@ABV?$QList@VQModelIndex@@@@@Z @4077
?mimeData@QSortFilterProxyModel@@UBEPAVQMimeData@@ABV?$QList@VQModelIndex@@@@@Z @4078
?mimeTypeForData@QMimeDatabase@@QBE?AVQMimeType@@ABVQByteArray@@@Z @4079
?mimeTypeForData@QMimeDatabase@@QBE?AVQMimeType@@PAVQIODevice@@@Z @4080
?mimeTypeForFile@QMimeDatabase@@QBE?AVQMimeType@@ABVQFileInfo@@W4MatchMode@1@@Z @4081
?mimeTypeForFile@QMimeDatabase@@QBE?AVQMimeType@@ABVQString@@W4MatchMode@1@@Z @4082
?mimeTypeForFileNameAndData@QMimeDatabase@@QBE?AVQMimeType@@ABVQString@@ABVQByteArray@@@Z @4083
?mimeTypeForFileNameAndData@QMimeDatabase@@QBE?AVQMimeType@@ABVQString@@PAVQIODevice@@@Z @4084
?mimeTypeForName@QMimeDatabase@@QBE?AVQMimeType@@ABVQString@@@Z @4085
?mimeTypeForUrl@QMimeDatabase@@QBE?AVQMimeType@@ABVQUrl@@@Z @4086
?mimeTypes@QAbstractItemModel@@UBE?AVQStringList@@XZ @4087
?mimeTypes@QAbstractProxyModel@@UBE?AVQStringList@@XZ @4088
?mimeTypes@QSortFilterProxyModel@@UBE?AVQStringList@@XZ @4089
?mimeTypesForFileName@QMimeDatabase@@QBE?AV?$QList@VQMimeType@@@@ABVQString@@@Z @4090
?minJd@QDate@@CA_JXZ @4091
?minMSecs@QTimeZonePrivate@@SA_JXZ @4092
?minorVersion@QVersionNumber@@QBEHXZ @4093
?minus@QLocalePrivate@@QBE?AVQChar@@XZ @4094
?minute@QTime@@QBEHXZ @4095
?mirroredChar@QChar@@QBE?AV1@XZ @4096
?mirroredChar@QChar@@SIII@Z @4097
?mirroredChar@QCharRef@@QBE?AVQChar@@XZ @4098
?mkdir@QAbstractFileEngine@@UBE_NABVQString@@_N@Z @4099
?mkdir@QDir@@QBE_NABVQString@@@Z @4100
?mkdir@QFSFileEngine@@UBE_NABVQString@@_N@Z @4101
?mkpath@QDir@@QBE_NABVQString@@@Z @4102
?model@QItemSelectionModel@@QBEPBVQAbstractItemModel@@XZ @4103
?model@QItemSelectionRange@@QBEPBVQAbstractItemModel@@XZ @4104
?model@QModelIndex@@QBEPBVQAbstractItemModel@@XZ @4105
?model@QPersistentModelIndex@@QBEPBVQAbstractItemModel@@XZ @4106
?modelAboutToBeReset@QAbstractItemModel@@QAEXUQPrivateSignal@1@@Z @4107
?modelReset@QAbstractItemModel@@QAEXUQPrivateSignal@1@@Z @4108
?month@QDate@@QBEHXZ @4109
?monthName@QLocale@@QBE?AVQString@@HW4FormatType@1@@Z @4110
?mountedVolumes@QStorageInfo@@SA?AV?$QList@VQStorageInfo@@@@XZ @4111
?move@?$QList@VQItemSelectionRange@@@@QAEXHH@Z @4112
?move@QListData@@QAEXHH@Z @4113
?moveBottom@QRect@@QAEXH@Z @4114
?moveBottom@QRectF@@QAEXN@Z @4115
?moveBottomLeft@QRect@@QAEXABVQPoint@@@Z @4116
?moveBottomLeft@QRectF@@QAEXABVQPointF@@@Z @4117
?moveBottomRight@QRect@@QAEXABVQPoint@@@Z @4118
?moveBottomRight@QRectF@@QAEXABVQPointF@@@Z @4119
?moveCenter@QRect@@QAEXABVQPoint@@@Z @4120
?moveCenter@QRectF@@QAEXABVQPointF@@@Z @4121
?moveColumn@QAbstractItemModel@@QAE_NABVQModelIndex@@H0H@Z @4122
?moveColumns@QAbstractItemModel@@UAE_NABVQModelIndex@@HH0H@Z @4123
?moveLeft@QRect@@QAEXH@Z @4124
?moveLeft@QRectF@@QAEXN@Z @4125
?movePersistentIndexes@QAbstractItemModelPrivate@@QAEXV?$QVector@PAVQPersistentModelIndexData@@@@HABVQModelIndex@@W4Orientation@Qt@@@Z @4126
?moveRight@QRect@@QAEXH@Z @4127
?moveRight@QRectF@@QAEXN@Z @4128
?moveRow@QAbstractItemModel@@QAE_NABVQModelIndex@@H0H@Z @4129
?moveRows@QAbstractItemModel@@UAE_NABVQModelIndex@@HH0H@Z @4130
?moveTo@QRect@@QAEXABVQPoint@@@Z @4131
?moveTo@QRect@@QAEXHH@Z @4132
?moveTo@QRectF@@QAEXABVQPointF@@@Z @4133
?moveTo@QRectF@@QAEXNN@Z @4134
?moveToThread@QObject@@QAEXPAVQThread@@@Z @4135
?moveToThread_helper@QObjectPrivate@@QAEXXZ @4136
?moveTop@QRect@@QAEXH@Z @4137
?moveTop@QRectF@@QAEXN@Z @4138
?moveTopLeft@QRect@@QAEXABVQPoint@@@Z @4139
?moveTopLeft@QRectF@@QAEXABVQPointF@@@Z @4140
?moveTopRight@QRect@@QAEXABVQPoint@@@Z @4141
?moveTopRight@QRectF@@QAEXABVQPointF@@@Z @4142
?msec@QTime@@QBEHXZ @4143
?msecsSinceReference@QElapsedTimer@@QBE_JXZ @4144
?msecsSinceStartOfDay@QTime@@QBEHXZ @4145
?msecsTo@QDateTime@@QBE_JABV1@@Z @4146
?msecsTo@QElapsedTimer@@QBE_JABV1@@Z @4147
?msecsTo@QTime@@QBEHABV1@@Z @4148
?msleep@QThread@@SAXK@Z @4149
?multiArg@QString@@ABE?AV1@HPAPBV1@@Z @4150
?mutex@QFutureInterfaceBase@@QBEPAVQMutex@@XZ @4151
?mutex@QMutexLocker@@QBEPAVQMutex@@XZ @4152
?name@QGenericArgument@@QBEPBDXZ @4153
?name@QLocale@@QBE?AVQString@@XZ @4154
?name@QMetaClassInfo@@QBEPBDXZ @4155
?name@QMetaEnum@@QBEPBDXZ @4156
?name@QMetaEnumBuilder@@QBE?AVQByteArray@@XZ @4157
?name@QMetaMethod@@QBE?AVQByteArray@@XZ @4158
?name@QMetaProperty@@QBEPBDXZ @4159
?name@QMetaPropertyBuilder@@QBE?AVQByteArray@@XZ @4160
?name@QMimeType@@QBE?AVQString@@XZ @4161
?name@QStorageInfo@@QBE?AVQString@@XZ @4162
?name@QXmlStreamAttribute@@QBE?AVQStringRef@@XZ @4163
?name@QXmlStreamEntityDeclaration@@QBE?AVQStringRef@@XZ @4164
?name@QXmlStreamNotationDeclaration@@QBE?AVQStringRef@@XZ @4165
?name@QXmlStreamReader@@QBE?AVQStringRef@@XZ @4166
?nameFilters@QAbstractFileEngineIterator@@QBE?AVQStringList@@XZ @4167
?nameFilters@QDir@@QBE?AVQStringList@@XZ @4168
?nameFiltersFromString@QDir@@SA?AVQStringList@@ABVQString@@@Z @4169
?nameToType@QVariant@@SA?AW4Type@1@PBD@Z @4170
?namedCaptureGroups@QRegularExpression@@QBE?AVQStringList@@XZ @4171
?names@QCommandLineOption@@QBE?AVQStringList@@XZ @4172
?namespaceDeclarations@QXmlStreamReader@@QBE?AV?$QVector@VQXmlStreamNamespaceDeclaration@@@@XZ @4173
?namespaceProcessing@QXmlStreamReader@@QBE_NXZ @4174
?namespaceUri@QXmlStreamAttribute@@QBE?AVQStringRef@@XZ @4175
?namespaceUri@QXmlStreamNamespaceDeclaration@@QBE?AVQStringRef@@XZ @4176
?namespaceUri@QXmlStreamReader@@QBE?AVQStringRef@@XZ @4177
?nativeArguments@QProcess@@QBE?AVQString@@XZ @4178
?nativeCountryName@QLocale@@QBE?AVQString@@XZ @4179
?nativeKey@QSharedMemory@@QBE?AVQString@@XZ @4180
?nativeLanguageName@QLocale@@QBE?AVQString@@XZ @4181
?negativeSign@QLocale@@QBE?AVQChar@@XZ @4182
?newInstance@QMetaObject@@QBEPAVQObject@@VQGenericArgument@@000000000@Z @4183
?next@QDirIterator@@QAE?AVQString@@XZ @4184
?next@QRegularExpressionMatchIterator@@QAE?AVQRegularExpressionMatch@@XZ @4185
?nextNode@QHashData@@SAPAUNode@1@PAU21@@Z @4186
?nextNode@QMapNodeBase@@QAEPAU1@XZ @4187
?nextNode@QMapNodeBase@@QBEPBU1@XZ @4188
?nextTransition@QTimeZone@@QBE?AUOffsetData@1@ABVQDateTime@@@Z @4189
?nextTransition@QTimeZonePrivate@@UBE?AUData@1@_J@Z @4190
?noDebug@QMessageLogger@@QBAXPBDZZ @4191
?noDebug@QMessageLogger@@QBE?AVQNoDebug@@XZ @4192
?node_construct@?$QList@VQItemSelectionRange@@@@AAEXPAUNode@1@ABVQItemSelectionRange@@@Z @4193
?node_copy@?$QList@VQItemSelectionRange@@@@AAEXPAUNode@1@00@Z @4194
?node_destruct@?$QList@VQItemSelectionRange@@@@AAEXPAUNode@1@0@Z @4195
?node_destruct@?$QList@VQItemSelectionRange@@@@AAEXPAUNode@1@@Z @4196
?noforcepoint@@YAAAVQTextStream@@AAV1@@Z @4197
?noforcesign@@YAAAVQTextStream@@AAV1@@Z @4198
?noquote@QDebug@@QAEAAV1@XZ @4199
?normalVector@QLineF@@QBE?AV1@XZ @4200
?normalized@QRect@@QBE?AV1@XZ @4201
?normalized@QRectF@@QBE?AV1@XZ @4202
?normalized@QString@@QBE?AV1@W4NormalizationForm@1@W4UnicodeVersion@QChar@@@Z @4203
?normalized@QVersionNumber@@QBE?AV1@XZ @4204
?normalizedImpl@QVersionNumber@@CA?AV1@AAV?$QVector@H@@@Z @4205
?normalizedSignature@QMetaObject@@SA?AVQByteArray@@PBD@Z @4206
?normalizedType@QMetaObject@@SA?AVQByteArray@@PBD@Z @4207
?noshowbase@@YAAAVQTextStream@@AAV1@@Z @4208
?nospace@QDebug@@QAEAAV1@XZ @4209
?notationDeclarations@QXmlStreamReader@@QBE?AV?$QVector@VQXmlStreamNotationDeclaration@@@@XZ @4210
?notationName@QXmlStreamEntityDeclaration@@QBE?AVQStringRef@@XZ @4211
?notified@QWinOverlappedIoNotifier@@QAEXIIPAU_OVERLAPPED@@@Z @4212
?notified@QWindowsPipeReader@@AAEXIIPAU_OVERLAPPED@@@Z @4213
?notify@QCoreApplication@@UAE_NPAVQObject@@PAVQEvent@@@Z @4214
?notifyInternal@QCoreApplication@@AAE_NPAVQObject@@PAVQEvent@@@Z @4215
?notifySignal@QMetaProperty@@QBE?AVQMetaMethod@@XZ @4216
?notifySignal@QMetaPropertyBuilder@@QBE?AVQMetaMethodBuilder@@XZ @4217
?notifySignalIndex@QMetaProperty@@QBEHXZ @4218
?notify_helper@QCoreApplicationPrivate@@QAE_NPAVQObject@@PAVQEvent@@@Z @4219
?nsecsElapsed@QElapsedTimer@@QBE_JXZ @4220
?nulTerminated@QByteArray@@ABE?AV1@XZ @4221
?null@QString@@2UNull@1@B @4222
?nullDevice@QProcess@@SA?AVQString@@XZ @4223
?nullJd@QDate@@CA_JXZ @4224
?number@QByteArray@@SA?AV1@HH@Z @4225
?number@QByteArray@@SA?AV1@IH@Z @4226
?number@QByteArray@@SA?AV1@NDH@Z @4227
?number@QByteArray@@SA?AV1@_JH@Z @4228
?number@QByteArray@@SA?AV1@_KH@Z @4229
?number@QString@@SA?AV1@HH@Z @4230
?number@QString@@SA?AV1@IH@Z @4231
?number@QString@@SA?AV1@JH@Z @4232
?number@QString@@SA?AV1@KH@Z @4233
?number@QString@@SA?AV1@NDH@Z @4234
?number@QString@@SA?AV1@_JH@Z @4235
?number@QString@@SA?AV1@_KH@Z @4236
?numberFlags@QTextStream@@QBE?AV?$QFlags@W4NumberFlag@QTextStream@@@@XZ @4237
?numberOptions@QLocale@@QBE?AV?$QFlags@W4NumberOption@QLocale@@@@XZ @4238
?numericMode@QCollator@@QBE_NXZ @4239
?object@QJsonDocument@@QBE?AVQJsonObject@@XZ @4240
?object@WrappedEvent@QStateMachine@@QBEPAVQObject@@XZ @4241
?objectDestroyed@QDynamicMetaObjectData@@UAEXPAVQObject@@@Z @4242
?objectDestroyed@QObjectCleanupHandler@@AAEXPAVQObject@@@Z @4243
?objectName@QObject@@QBE?AVQString@@XZ @4244
?objectNameChanged@QObject@@QAEXABVQString@@UQPrivateSignal@1@@Z @4245
?oct@@YAAAVQTextStream@@AAV1@@Z @4246
?offsetData@QTimeZone@@QBE?AUOffsetData@1@ABVQDateTime@@@Z @4247
?offsetFromUtc@QDateTime@@QBEHXZ @4248
?offsetFromUtc@QTimeZone@@QBEHABVQDateTime@@@Z @4249
?offsetFromUtc@QTimeZonePrivate@@UBEH_J@Z @4250
?onEntry@QFinalState@@MAEXPAVQEvent@@@Z @4251
?onEntry@QHistoryState@@MAEXPAVQEvent@@@Z @4252
?onEntry@QState@@MAEXPAVQEvent@@@Z @4253
?onEntry@QStateMachine@@MAEXPAVQEvent@@@Z @4254
?onExit@QFinalState@@MAEXPAVQEvent@@@Z @4255
?onExit@QHistoryState@@MAEXPAVQEvent@@@Z @4256
?onExit@QState@@MAEXPAVQEvent@@@Z @4257
?onExit@QStateMachine@@MAEXPAVQEvent@@@Z @4258
?onTransition@QEventTransition@@MAEXPAVQEvent@@@Z @4259
?onTransition@QSignalTransition@@MAEXPAVQEvent@@@Z @4260
?open@QAbstractFileEngine@@UAE_NV?$QFlags@W4OpenModeFlag@QIODevice@@@@@Z @4261
?open@QBuffer@@UAE_NV?$QFlags@W4OpenModeFlag@QIODevice@@@@@Z @4262
?open@QFSFileEngine@@QAE_NV?$QFlags@W4OpenModeFlag@QIODevice@@@@H@Z @4263
?open@QFSFileEngine@@QAE_NV?$QFlags@W4OpenModeFlag@QIODevice@@@@HV?$QFlags@W4FileHandleFlag@QFileDevice@@@@@Z @4264
?open@QFSFileEngine@@QAE_NV?$QFlags@W4OpenModeFlag@QIODevice@@@@PAU_iobuf@@@Z @4265
?open@QFSFileEngine@@QAE_NV?$QFlags@W4OpenModeFlag@QIODevice@@@@PAU_iobuf@@V?$QFlags@W4FileHandleFlag@QFileDevice@@@@@Z @4266
?open@QFSFileEngine@@UAE_NV?$QFlags@W4OpenModeFlag@QIODevice@@@@@Z @4267
?open@QFile@@QAE_NHV?$QFlags@W4OpenModeFlag@QIODevice@@@@V?$QFlags@W4FileHandleFlag@QFileDevice@@@@@Z @4268
?open@QFile@@QAE_NPAU_iobuf@@V?$QFlags@W4OpenModeFlag@QIODevice@@@@V?$QFlags@W4FileHandleFlag@QFileDevice@@@@@Z @4269
?open@QFile@@UAE_NV?$QFlags@W4OpenModeFlag@QIODevice@@@@@Z @4270
?open@QIODevice@@UAE_NV?$QFlags@W4OpenModeFlag@QIODevice@@@@@Z @4271
?open@QProcess@@UAE_NV?$QFlags@W4OpenModeFlag@QIODevice@@@@@Z @4272
?open@QSaveFile@@UAE_NV?$QFlags@W4OpenModeFlag@QIODevice@@@@@Z @4273
?open@QTemporaryFile@@MAE_NV?$QFlags@W4OpenModeFlag@QIODevice@@@@@Z @4274
?open@QTemporaryFile@@QAE_NXZ @4275
?openMode@QIODevice@@QBE?AV?$QFlags@W4OpenModeFlag@QIODevice@@@@XZ @4276
?optimize@QRegularExpression@@QBEXXZ @4277
?optionNames@QCommandLineParser@@QBE?AVQStringList@@XZ @4278
?organizationDomain@QCoreApplication@@SA?AVQString@@XZ @4279
?organizationDomainChanged@QCoreApplication@@QAEXXZ @4280
?organizationName@QCoreApplication@@SA?AVQString@@XZ @4281
?organizationName@QSettings@@QBE?AVQString@@XZ @4282
?organizationNameChanged@QCoreApplication@@QAEXXZ @4283
?overshoot@QEasingCurve@@QBENXZ @4284
?owner@QAbstractFileEngine@@UBE?AVQString@@W4FileOwner@1@@Z @4285
?owner@QFSFileEngine@@UBE?AVQString@@W4FileOwner@QAbstractFileEngine@@@Z @4286
?owner@QFileInfo@@QBE?AVQString@@XZ @4287
?ownerId@QAbstractFileEngine@@UBEIW4FileOwner@1@@Z @4288
?ownerId@QFSFileEngine@@UBEIW4FileOwner@QAbstractFileEngine@@@Z @4289
?ownerId@QFileInfo@@QBEIXZ @4290
?p1@QLine@@QBE?AVQPoint@@XZ @4291
?p1@QLineF@@QBE?AVQPointF@@XZ @4292
?p2@QLine@@QBE?AVQPoint@@XZ @4293
?p2@QLineF@@QBE?AVQPointF@@XZ @4294
?padChar@QTextStream@@QBE?AVQChar@@XZ @4295
?parameterCount@QMetaMethod@@QBEHXZ @4296
?parameterNames@QMetaMethod@@QBE?AV?$QList@VQByteArray@@@@XZ @4297
?parameterNames@QMetaMethodBuilder@@QBE?AV?$QList@VQByteArray@@@@XZ @4298
?parameterType@QMetaMethod@@QBEHH@Z @4299
?parameterTypes@QMetaMethod@@QBE?AV?$QList@VQByteArray@@@@XZ @4300
?parameterTypes@QMetaMethodBuilder@@QBE?AV?$QList@VQByteArray@@@@XZ @4301
?parent@QAbstractListModel@@EBE?AVQModelIndex@@ABV2@@Z @4302
?parent@QAbstractTableModel@@EBE?AVQModelIndex@@ABV2@@Z @4303
?parent@QIdentityProxyModel@@UBE?AVQModelIndex@@ABV2@@Z @4304
?parent@QItemSelectionRange@@QBE?AVQModelIndex@@XZ @4305
?parent@QMapNodeBase@@QBEPAU1@XZ @4306
?parent@QModelIndex@@QBE?AV1@XZ @4307
?parent@QObject@@QBEPAV1@XZ @4308
?parent@QPersistentModelIndex@@QBE?AVQModelIndex@@XZ @4309
?parent@QSortFilterProxyModel@@UBE?AVQModelIndex@@ABV2@@Z @4310
?parentChanged@QAbstractDeclarativeData@@2P6AXPAV1@PAVQObject@@1@ZA @4311
?parentMimeTypes@QMimeType@@QBE?AVQStringList@@XZ @4312
?parentState@QAbstractState@@QBEPAVQState@@XZ @4313
?parse@QCommandLineParser@@QAE_NABVQStringList@@@Z @4314
?parse@QDateTimeParser@@QBE?AUStateNode@1@AAVQString@@AAHABVQDateTime@@_N@Z @4315
?parseFormat@QDateTimeParser@@QAE_NABVQString@@@Z @4316
?parseIp4@QIPAddressUtils@@YA_NAAIPBVQChar@@1@Z @4317
?parseIp6@QIPAddressUtils@@YAPBVQChar@@AAY0BA@EPBV2@1@Z @4318
?parseSection@QDateTimeParser@@QBEHABVQDateTime@@HAAVQString@@AAHHAAW4State@1@PAH@Z @4319
?password@QUrl@@QBE?AVQString@@V?$QFlags@W4ComponentFormattingOption@QUrl@@@@@Z @4320
?path@QAbstractFileEngineIterator@@QBE?AVQString@@XZ @4321
?path@QDir@@QBE?AVQString@@XZ @4322
?path@QDirIterator@@QBE?AVQString@@XZ @4323
?path@QFileInfo@@QBE?AVQString@@XZ @4324
?path@QTemporaryDir@@QBE?AVQString@@XZ @4325
?path@QUrl@@QBE?AVQString@@V?$QFlags@W4ComponentFormattingOption@QUrl@@@@@Z @4326
?pattern@QByteArrayMatcher@@QBE?AVQByteArray@@XZ @4327
?pattern@QRegExp@@QBE?AVQString@@XZ @4328
?pattern@QRegularExpression@@QBE?AVQString@@XZ @4329
?pattern@QStringMatcher@@QBE?AVQString@@XZ @4330
?patternErrorOffset@QRegularExpression@@QBEHXZ @4331
?patternOptions@QRegularExpression@@QBE?AV?$QFlags@W4PatternOption@QRegularExpression@@@@XZ @4332
?patternSyntax@QRegExp@@QBE?AW4PatternSyntax@1@XZ @4333
?pause@QAbstractAnimation@@QAEXXZ @4334
?pause@QFutureWatcherBase@@QAEXXZ @4335
?pauseAnimationTimer@QUnifiedTimer@@SAXPAVQAbstractAnimationTimer@@H@Z @4336
?paused@QFutureWatcherBase@@QAEXXZ @4337
?peek@QIODevice@@QAE?AVQByteArray@@_J@Z @4338
?peek@QIODevice@@QAE_JPAD_J@Z @4339
?peek@QIODevicePrivate@@UAE?AVQByteArray@@_J@Z @4340
?peek@QIODevicePrivate@@UAE_JPAD_J@Z @4341
?peekNext@QRegularExpressionMatchIterator@@QBE?AVQRegularExpressionMatch@@XZ @4342
?percent@QLocale@@QBE?AVQChar@@XZ @4343
?percent@QLocalePrivate@@QBE?AVQChar@@XZ @4344
?period@QEasingCurve@@QBENXZ @4345
?permission@QFileInfo@@QBE_NV?$QFlags@W4Permission@QFileDevice@@@@@Z @4346
?permissions@QFile@@SA?AV?$QFlags@W4Permission@QFileDevice@@@@ABVQString@@@Z @4347
?permissions@QFile@@UBE?AV?$QFlags@W4Permission@QFileDevice@@@@XZ @4348
?permissions@QFileDevice@@UBE?AV?$QFlags@W4Permission@QFileDevice@@@@XZ @4349
?permissions@QFileInfo@@QBE?AV?$QFlags@W4Permission@QFileDevice@@@@XZ @4350
?persistentIndexList@QAbstractItemModel@@IBE?AV?$QList@VQModelIndex@@@@XZ @4351
?pid@QProcess@@QBEPAU_PROCESS_INFORMATION@@XZ @4352
?pipeClosed@QWindowsPipeReader@@QAEXXZ @4353
?placeMetaCall@QMetaCallEvent@@UAEXPAVQObject@@@Z @4354
?platformPluginArguments@QLibraryInfo@@SA?AVQStringList@@ABVQString@@@Z @4355
?platformSelectors@QFileSelectorPrivate@@SA?AVQStringList@@XZ @4356
?plus@QLocalePrivate@@QBE?AVQChar@@XZ @4357
?pmText@QLocale@@QBE?AVQString@@XZ @4358
?pointAt@QLineF@@QBE?AVQPointF@@N@Z @4359
?polished@QChildEvent@@QBE_NXZ @4360
?pop_back@?$QList@VQItemSelectionRange@@@@QAEXXZ @4361
?pop_back@?$QVector@VQPoint@@@@QAEXXZ @4362
?pop_back@?$QVector@VQPointF@@@@QAEXXZ @4363
?pop_back@?$QVector@VQXmlStreamAttribute@@@@QAEXXZ @4364
?pop_back@QJsonArray@@QAEXXZ @4365
?pop_front@?$QList@VQItemSelectionRange@@@@QAEXXZ @4366
?pop_front@?$QVector@VQPoint@@@@QAEXXZ @4367
?pop_front@?$QVector@VQPointF@@@@QAEXXZ @4368
?pop_front@?$QVector@VQXmlStreamAttribute@@@@QAEXXZ @4369
?pop_front@QJsonArray@@QAEXXZ @4370
?port@QUrl@@QBEHH@Z @4371
?pos@QAbstractFileEngine@@UBE_JXZ @4372
?pos@QBuffer@@UBE_JXZ @4373
?pos@QFSFileEngine@@UBE_JXZ @4374
?pos@QFileDevice@@UBE_JXZ @4375
?pos@QIODevice@@UBE_JXZ @4376
?pos@QRegExp@@QAEHH@Z @4377
?pos@QRegExp@@QBEHH@Z @4378
?pos@QTextStream@@QBE_JXZ @4379
?position@QStringRef@@QBEHXZ @4380
?position@QTextBoundaryFinder@@QBEHXZ @4381
?position@QXmlStreamStringRef@@QBEHXZ @4382
?positionalArguments@QCommandLineParser@@QBE?AVQStringList@@XZ @4383
?positiveSign@QLocale@@QBE?AVQChar@@XZ @4384
?postDelayedEvent@QStateMachine@@QAEHPAVQEvent@@H@Z @4385
?postEvent@QCoreApplication@@SAXPAVQObject@@PAVQEvent@@H@Z @4386
?postEvent@QStateMachine@@QAEXPAVQEvent@@W4EventPriority@1@@Z @4387
?postExternalEvent@QStateMachinePrivate@@QAEXPAVQEvent@@@Z @4388
?postInternalEvent@QStateMachinePrivate@@QAEXPAVQEvent@@@Z @4389
?potentialValue@QDateTimeParser@@QBE_NABVQString@@HHHABVQDateTime@@H@Z @4390
?preferredAlignment@QMetaStringTable@@SAHXZ @4391
?preferredSuffix@QMimeType@@QBE?AVQString@@XZ @4392
?prefix@QXmlStreamAttribute@@QBE?AVQStringRef@@XZ @4393
?prefix@QXmlStreamNamespaceDeclaration@@QBE?AVQStringRef@@XZ @4394
?prefix@QXmlStreamReader@@QBE?AVQStringRef@@XZ @4395
?prepend@?$QList@VQItemSelectionRange@@@@QAEXABVQItemSelectionRange@@@Z @4396
?prepend@?$QVector@VQPoint@@@@QAEXABVQPoint@@@Z @4397
?prepend@?$QVector@VQPointF@@@@QAEXABVQPointF@@@Z @4398
?prepend@?$QVector@VQXmlStreamAttribute@@@@QAEXABVQXmlStreamAttribute@@@Z @4399
?prepend@QByteArray@@QAEAAV1@ABV1@@Z @4400
?prepend@QByteArray@@QAEAAV1@D@Z @4401
?prepend@QByteArray@@QAEAAV1@PBD@Z @4402
?prepend@QByteArray@@QAEAAV1@PBDH@Z @4403
?prepend@QJsonArray@@QAEXABVQJsonValue@@@Z @4404
?prepend@QListData@@QAEPAPAXXZ @4405
?prepend@QString@@QAEAAV1@ABV1@@Z @4406
?prepend@QString@@QAEAAV1@ABVQByteArray@@@Z @4407
?prepend@QString@@QAEAAV1@PBD@Z @4408
?prepend@QString@@QAEAAV1@VQChar@@@Z @4409
?prepend@QString@@QAEAAV1@VQLatin1String@@@Z @4410
?prettyProductName@QSysInfo@@SA?AVQString@@XZ @4411
?previousNode@QHashData@@SAPAUNode@1@PAU21@@Z @4412
?previousNode@QMapNodeBase@@QAEPAU1@XZ @4413
?previousNode@QMapNodeBase@@QBEPBU1@XZ @4414
?previousTransition@QTimeZone@@QBE?AUOffsetData@1@ABVQDateTime@@@Z @4415
?previousTransition@QTimeZonePrivate@@UBE?AUData@1@_J@Z @4416
?priority@QThread@@QBE?AW4Priority@1@XZ @4417
?process@QCommandLineParser@@QAEXABVQCoreApplication@@@Z @4418
?process@QCommandLineParser@@QAEXABVQStringList@@@Z @4419
?processChannelMode@QProcess@@QBE?AW4ProcessChannelMode@1@XZ @4420
?processCommandLineArguments@QCoreApplicationPrivate@@QAEXXZ @4421
?processEnvironment@QProcess@@QBE?AVQProcessEnvironment@@XZ @4422
?processEvents@QCoreApplication@@SAXV?$QFlags@W4ProcessEventsFlag@QEventLoop@@@@@Z @4423
?processEvents@QCoreApplication@@SAXV?$QFlags@W4ProcessEventsFlag@QEventLoop@@@@H@Z @4424
?processEvents@QEventDispatcherWin32@@UAE_NV?$QFlags@W4ProcessEventsFlag@QEventLoop@@@@@Z @4425
?processEvents@QEventLoop@@QAEXV?$QFlags@W4ProcessEventsFlag@QEventLoop@@@@H@Z @4426
?processEvents@QEventLoop@@QAE_NV?$QFlags@W4ProcessEventsFlag@QEventLoop@@@@@Z @4427
?processEvents@QStateMachinePrivate@@QAEXW4EventProcessingMode@1@@Z @4428
?processId@QProcess@@QBE_JXZ @4429
?processingInstructionData@QXmlStreamReader@@QBE?AVQStringRef@@XZ @4430
?processingInstructionTarget@QXmlStreamReader@@QBE?AVQStringRef@@XZ @4431
?productType@QSysInfo@@SA?AVQString@@XZ @4432
?productVersion@QSysInfo@@SA?AVQString@@XZ @4433
?program@QProcess@@QBE?AVQString@@XZ @4434
?progressMaximum@QFutureInterfaceBase@@QBEHXZ @4435
?progressMaximum@QFutureWatcherBase@@QBEHXZ @4436
?progressMinimum@QFutureInterfaceBase@@QBEHXZ @4437
?progressMinimum@QFutureWatcherBase@@QBEHXZ @4438
?progressRangeChanged@QFutureWatcherBase@@QAEXHH@Z @4439
?progressText@QFutureInterfaceBase@@QBE?AVQString@@XZ @4440
?progressText@QFutureWatcherBase@@QBE?AVQString@@XZ @4441
?progressTextChanged@QFutureWatcherBase@@QAEXABVQString@@@Z @4442
?progressValue@QFutureInterfaceBase@@QBEHXZ @4443
?progressValue@QFutureWatcherBase@@QBEHXZ @4444
?progressValueChanged@QFutureWatcherBase@@QAEXH@Z @4445
?properAncestors@QStateMachinePrivate@@SA?AV?$QList@PAVQState@@@@PBVQAbstractState@@PBVQState@@@Z @4446
?properties@QUnicodeTables@@YIPBUProperties@1@G@Z @4447
?properties@QUnicodeTables@@YIPBUProperties@1@I@Z @4448
?propertiesAssigned@QState@@QAEXUQPrivateSignal@1@@Z @4449
?property@QMetaObject@@QBE?AVQMetaProperty@@H@Z @4450
?property@QMetaObjectBuilder@@QBE?AVQMetaPropertyBuilder@@H@Z @4451
?property@QObject@@QBE?AVQVariant@@PBD@Z @4452
?propertyCount@QMetaObject@@QBEHXZ @4453
?propertyCount@QMetaObjectBuilder@@QBEHXZ @4454
?propertyIndex@QMetaProperty@@QBEHXZ @4455
?propertyName@QDynamicPropertyChangeEvent@@QBE?AVQByteArray@@XZ @4456
?propertyName@QPropertyAnimation@@QBE?AVQByteArray@@XZ @4457
?propertyOffset@QMetaObject@@QBEHXZ @4458
?publicId@QXmlStreamEntityDeclaration@@QBE?AVQStringRef@@XZ @4459
?publicId@QXmlStreamNotationDeclaration@@QBE?AVQStringRef@@XZ @4460
?push_back@?$QList@VQItemSelectionRange@@@@QAEXABVQItemSelectionRange@@@Z @4461
?push_back@?$QVector@VQPoint@@@@QAEXABVQPoint@@@Z @4462
?push_back@?$QVector@VQPointF@@@@QAEXABVQPointF@@@Z @4463
?push_back@?$QVector@VQXmlStreamAttribute@@@@QAEXABVQXmlStreamAttribute@@@Z @4464
?push_back@QByteArray@@QAEXABV1@@Z @4465
?push_back@QByteArray@@QAEXD@Z @4466
?push_back@QByteArray@@QAEXPBD@Z @4467
?push_back@QJsonArray@@QAEXABVQJsonValue@@@Z @4468
?push_back@QString@@QAEXABV1@@Z @4469
?push_back@QString@@QAEXVQChar@@@Z @4470
?push_front@?$QList@VQItemSelectionRange@@@@QAEXABVQItemSelectionRange@@@Z @4471
?push_front@?$QVector@VQPoint@@@@QAEXABVQPoint@@@Z @4472
?push_front@?$QVector@VQPointF@@@@QAEXABVQPointF@@@Z @4473
?push_front@?$QVector@VQXmlStreamAttribute@@@@QAEXABVQXmlStreamAttribute@@@Z @4474
?push_front@QByteArray@@QAEXABV1@@Z @4475
?push_front@QByteArray@@QAEXD@Z @4476
?push_front@QByteArray@@QAEXPBD@Z @4477
?push_front@QJsonArray@@QAEXABVQJsonValue@@@Z @4478
?push_front@QString@@QAEXABV1@@Z @4479
?push_front@QString@@QAEXVQChar@@@Z @4480
?putChar@QIODevice@@QAE_ND@Z @4481
?putCharHelper@QIODevicePrivate@@UAE_ND@Z @4482
?qAddPostRoutine@@YAXP6AXXZ@Z @4483
?qAddPreRoutine@@YAXP6AXXZ@Z @4484
?qAllocMore@@YAHHH@Z @4485
?qAppFileName@@YA?AVQString@@XZ @4486
?qAppName@@YA?AVQString@@XZ @4487
?qBadAlloc@@YAXXZ @4488
?qChecksum@@YAGPBDI@Z @4489
?qCompress@@YA?AVQByteArray@@PBEHH@Z @4490
?qDecodeDataUrl@@YA_NABVQUrl@@AAVQString@@AAVQByteArray@@@Z @4491
?qDeleteInEventHandler@@YAXPAVQObject@@@Z @4492
?qDetectCpuFeatures@@YAXXZ @4493
?qEnvironmentVariableIsEmpty@@YA_NPBD@Z @4494
?qEnvironmentVariableIsSet@@YA_NPBD@Z @4495
?qErrnoWarning@@YAXHPBDZZ @4496
?qErrnoWarning@@YAXPBDZZ @4497
?qFlagLocation@@YAPBDPBD@Z @4498
?qFloatDistance@@YAIMM@Z @4499
?qFloatDistance@@YA_KNN@Z @4500
?qFormatLogMessage@@YA?AVQString@@W4QtMsgType@@ABVQMessageLogContext@@ABV1@@Z @4501
?qFree@@YAXPAX@Z @4502
?qFreeAligned@@YAXPAX@Z @4503
?qGlobalPostedEventsCount@@YAIXZ @4504
?qHBFreeFace@@YAXPAUHB_FaceRec_@@@Z @4505
?qHBLoadFace@@YAPAUHB_FaceRec_@@PAU1@@Z @4506
?qHBNewFace@@YAPAUHB_FaceRec_@@PAXP6A?AW4HB_Error@@0IPAEPAI@Z@Z @4507
?qHash@@YAIABVQBitArray@@I@Z @4508
?qHash@@YAIABVQByteArray@@I@Z @4509
?qHash@@YAIABVQDate@@I@Z @4510
?qHash@@YAIABVQDateTime@@I@Z @4511
?qHash@@YAIABVQString@@I@Z @4512
?qHash@@YAIABVQStringRef@@I@Z @4513
?qHash@@YAIABVQTime@@I@Z @4514
?qHash@@YAIABVQUrl@@I@Z @4515
?qHash@@YAIABVQUuid@@I@Z @4516
?qHash@@YAIABVQVersionNumber@@I@Z @4517
?qHash@@YAIMI@Z @4518
?qHash@@YAINI@Z @4519
?qHash@@YAIOI@Z @4520
?qHash@@YAIVQLatin1String@@I@Z @4521
?qHashBits@@YAIPBXII@Z @4522
?qInf@@YANXZ @4523
?qInstallMessageHandler@@YAP6AXW4QtMsgType@@ABVQMessageLogContext@@ABVQString@@@ZP6AX012@Z@Z @4524
?qInstallMsgHandler@@YAP6AXW4QtMsgType@@PBD@ZP6AX01@Z@Z @4525
?qIsEffectiveTLD@@YA_NABVQString@@@Z @4526
?qIsFinite@@YA_NM@Z @4527
?qIsFinite@@YA_NN@Z @4528
?qIsInf@@YA_NM@Z @4529
?qIsInf@@YA_NN@Z @4530
?qIsNaN@@YA_NM@Z @4531
?qIsNaN@@YA_NN@Z @4532
?qMalloc@@YAPAXI@Z @4533
?qMallocAligned@@YAPAXII@Z @4534
?qMemCopy@@YAPAXPAXPBXI@Z @4535
?qMemSet@@YAPAXPAXHI@Z @4536
?qMetaObjectWidgetsHelper@@3PBUQMetaObject@@B @4537
?qMetaTypeGuiHelper@@3PBVQMetaTypeInterface@@B @4538
?qMetaTypeWidgetsHelper@@3PBVQMetaTypeInterface@@B @4539
?qQNaN@@YANXZ @4540
?qRealloc@@YAPAXPAXI@Z @4541
?qReallocAligned@@YAPAXPAXIII@Z @4542
?qRegisterResourceData@@YA_NHPBE00@Z @4543
?qRegisterStaticPluginFunction@@YAXUQStaticPlugin@@@Z @4544
?qRemovePostRoutine@@YAXP6AXXZ@Z @4545
?qSNaN@@YANXZ @4546
?qSetMessagePattern@@YAXABVQString@@@Z @4547
?qShapeItem@@YAEPAUHB_ShaperItem_@@@Z @4548
?qSharedBuild@@YA_NXZ @4549
?qTerminate@@YAXXZ @4550
?qTopLevelDomain@@YA?AVQString@@ABV1@@Z @4551
?qUncompress@@YA?AVQByteArray@@PBEH@Z @4552
?qUnregisterResourceData@@YA_NHPBE00@Z @4553
?qWinAppCmdShow@@YAHXZ @4554
?qWinAppInst@@YAPAUHINSTANCE__@@XZ @4555
?qWinAppPrevInst@@YAPAUHINSTANCE__@@XZ @4556
?qWinMain@@YAXPAUHINSTANCE__@@0PADHAAHAAV?$QVector@PAD@@@Z @4557
?q_func@QAbstractEventDispatcherPrivate@@AAEPAVQAbstractEventDispatcher@@XZ @4558
?q_func@QAbstractEventDispatcherPrivate@@ABEPBVQAbstractEventDispatcher@@XZ @4559
?q_func@QAbstractItemModelPrivate@@AAEPAVQAbstractItemModel@@XZ @4560
?q_func@QAbstractItemModelPrivate@@ABEPBVQAbstractItemModel@@XZ @4561
?q_func@QAbstractProxyModelPrivate@@AAEPAVQAbstractProxyModel@@XZ @4562
?q_func@QAbstractProxyModelPrivate@@ABEPBVQAbstractProxyModel@@XZ @4563
?q_func@QAbstractTransitionPrivate@@AAEPAVQAbstractTransition@@XZ @4564
?q_func@QAbstractTransitionPrivate@@ABEPBVQAbstractTransition@@XZ @4565
?q_func@QCoreApplicationPrivate@@AAEPAVQCoreApplication@@XZ @4566
?q_func@QCoreApplicationPrivate@@ABEPBVQCoreApplication@@XZ @4567
?q_func@QEventDispatcherWin32Private@@AAEPAVQEventDispatcherWin32@@XZ @4568
?q_func@QEventDispatcherWin32Private@@ABEPBVQEventDispatcherWin32@@XZ @4569
?q_func@QEventTransitionPrivate@@AAEPAVQEventTransition@@XZ @4570
?q_func@QEventTransitionPrivate@@ABEPBVQEventTransition@@XZ @4571
?q_func@QFileSelectorPrivate@@AAEPAVQFileSelector@@XZ @4572
?q_func@QFileSelectorPrivate@@ABEPBVQFileSelector@@XZ @4573
?q_func@QIODevicePrivate@@AAEPAVQIODevice@@XZ @4574
?q_func@QIODevicePrivate@@ABEPBVQIODevice@@XZ @4575
?q_func@QObjectPrivate@@AAEPAVQObject@@XZ @4576
?q_func@QObjectPrivate@@ABEPBVQObject@@XZ @4577
?q_func@QStateMachinePrivate@@AAEPAVQStateMachine@@XZ @4578
?q_func@QStateMachinePrivate@@ABEPBVQStateMachine@@XZ @4579
?q_func@QThreadPoolPrivate@@AAEPAVQThreadPool@@XZ @4580
?q_func@QThreadPoolPrivate@@ABEPBVQThreadPool@@XZ @4581
?qcoreStateMachineHandler@@YAPBUHandler@QStateMachinePrivate@@XZ @4582
?qcoreVariantHandler@@YAPBUHandler@QVariant@@XZ @4583
?qdtoa@@YAPADNHHPAH0PAPAD1@Z @4584
?qgetenv@@YA?AVQByteArray@@PBD@Z @4585
?qmime_secondsBetweenChecks@@3HA @4586
?qmljsDebugArgumentsString@QCoreApplicationPrivate@@QAE?AVQString@@XZ @4587
?qputenv@@YA_NPBDABVQByteArray@@@Z @4588
?qrand@@YAHXZ @4589
?qsnprintf@@YAHPADIPBDZZ @4590
?qsrand@@YAXI@Z @4591
?qstrcmp@@YAHABVQByteArray@@0@Z @4592
?qstrcmp@@YAHABVQByteArray@@PBD@Z @4593
?qstrcmp@@YAHPBD0@Z @4594
?qstrcpy@@YAPADPADPBD@Z @4595
?qstrdup@@YAPADPBD@Z @4596
?qstricmp@@YAHPBD0@Z @4597
?qstrncpy@@YAPADPADPBDI@Z @4598
?qstrnicmp@@YAHPBD0I@Z @4599
?qstrtod@@YANPBDPAPBDPA_N@Z @4600
?qtHookData@@3PAIA @4601
?qtTrId@@YA?AVQString@@PBDH@Z @4602
?qt_applicationName_noFallback@@YA?AVQString@@XZ @4603
?qt_assert@@YAXPBD0H@Z @4604
?qt_assert_x@@YAXPBD00H@Z @4605
?qt_call_post_routines@@YAXXZ @4606
?qt_check_pointer@@YAXPBDH@Z @4607
?qt_cpu_features@@3V?$QBasicAtomicInteger@H@@A @4608
?qt_error_string@@YA?AVQString@@H@Z @4609
?qt_hash@@YAIABVQString@@@Z @4610
?qt_hash@@YAIABVQStringRef@@@Z @4611
?qt_int_sqrt@@YAII@Z @4612
?qt_localeFromLCID@@YA?AVQLocale@@K@Z @4613
?qt_logging_to_console@@YA_NXZ @4614
?qt_message_output@@YAXW4QtMsgType@@ABVQMessageLogContext@@ABVQString@@@Z @4615
?qt_metacall@QAbstractAnimation@@UAEHW4Call@QMetaObject@@HPAPAX@Z @4616
?qt_metacall@QAbstractAnimationTimer@@UAEHW4Call@QMetaObject@@HPAPAX@Z @4617
?qt_metacall@QAbstractEventDispatcher@@UAEHW4Call@QMetaObject@@HPAPAX@Z @4618
?qt_metacall@QAbstractItemModel@@UAEHW4Call@QMetaObject@@HPAPAX@Z @4619
?qt_metacall@QAbstractListModel@@UAEHW4Call@QMetaObject@@HPAPAX@Z @4620
?qt_metacall@QAbstractProxyModel@@UAEHW4Call@QMetaObject@@HPAPAX@Z @4621
?qt_metacall@QAbstractState@@UAEHW4Call@QMetaObject@@HPAPAX@Z @4622
?qt_metacall@QAbstractTableModel@@UAEHW4Call@QMetaObject@@HPAPAX@Z @4623
?qt_metacall@QAbstractTransition@@UAEHW4Call@QMetaObject@@HPAPAX@Z @4624
?qt_metacall@QAnimationDriver@@UAEHW4Call@QMetaObject@@HPAPAX@Z @4625
?qt_metacall@QAnimationGroup@@UAEHW4Call@QMetaObject@@HPAPAX@Z @4626
?qt_metacall@QBuffer@@UAEHW4Call@QMetaObject@@HPAPAX@Z @4627
?qt_metacall@QCoreApplication@@UAEHW4Call@QMetaObject@@HPAPAX@Z @4628
?qt_metacall@QEventDispatcherWin32@@UAEHW4Call@QMetaObject@@HPAPAX@Z @4629
?qt_metacall@QEventLoop@@UAEHW4Call@QMetaObject@@HPAPAX@Z @4630
?qt_metacall@QEventTransition@@UAEHW4Call@QMetaObject@@HPAPAX@Z @4631
?qt_metacall@QFactoryLoader@@UAEHW4Call@QMetaObject@@HPAPAX@Z @4632
?qt_metacall@QFile@@UAEHW4Call@QMetaObject@@HPAPAX@Z @4633
?qt_metacall@QFileDevice@@UAEHW4Call@QMetaObject@@HPAPAX@Z @4634
?qt_metacall@QFileSelector@@UAEHW4Call@QMetaObject@@HPAPAX@Z @4635
?qt_metacall@QFileSystemWatcher@@UAEHW4Call@QMetaObject@@HPAPAX@Z @4636
?qt_metacall@QFinalState@@UAEHW4Call@QMetaObject@@HPAPAX@Z @4637
?qt_metacall@QFutureWatcherBase@@UAEHW4Call@QMetaObject@@HPAPAX@Z @4638
?qt_metacall@QHistoryState@@UAEHW4Call@QMetaObject@@HPAPAX@Z @4639
?qt_metacall@QIODevice@@UAEHW4Call@QMetaObject@@HPAPAX@Z @4640
?qt_metacall@QIdentityProxyModel@@UAEHW4Call@QMetaObject@@HPAPAX@Z @4641
?qt_metacall@QItemSelectionModel@@UAEHW4Call@QMetaObject@@HPAPAX@Z @4642
?qt_metacall@QLibrary@@UAEHW4Call@QMetaObject@@HPAPAX@Z @4643
?qt_metacall@QMimeData@@UAEHW4Call@QMetaObject@@HPAPAX@Z @4644
?qt_metacall@QNonContiguousByteDevice@@UAEHW4Call@QMetaObject@@HPAPAX@Z @4645
?qt_metacall@QObject@@UAEHW4Call@QMetaObject@@HPAPAX@Z @4646
?qt_metacall@QObjectCleanupHandler@@UAEHW4Call@QMetaObject@@HPAPAX@Z @4647
?qt_metacall@QParallelAnimationGroup@@UAEHW4Call@QMetaObject@@HPAPAX@Z @4648
?qt_metacall@QPauseAnimation@@UAEHW4Call@QMetaObject@@HPAPAX@Z @4649
?qt_metacall@QPluginLoader@@UAEHW4Call@QMetaObject@@HPAPAX@Z @4650
?qt_metacall@QProcess@@UAEHW4Call@QMetaObject@@HPAPAX@Z @4651
?qt_metacall@QPropertyAnimation@@UAEHW4Call@QMetaObject@@HPAPAX@Z @4652
?qt_metacall@QSaveFile@@UAEHW4Call@QMetaObject@@HPAPAX@Z @4653
?qt_metacall@QSequentialAnimationGroup@@UAEHW4Call@QMetaObject@@HPAPAX@Z @4654
?qt_metacall@QSettings@@UAEHW4Call@QMetaObject@@HPAPAX@Z @4655
?qt_metacall@QSharedMemory@@UAEHW4Call@QMetaObject@@HPAPAX@Z @4656
?qt_metacall@QSignalMapper@@UAEHW4Call@QMetaObject@@HPAPAX@Z @4657
?qt_metacall@QSignalTransition@@UAEHW4Call@QMetaObject@@HPAPAX@Z @4658
?qt_metacall@QSocketNotifier@@UAEHW4Call@QMetaObject@@HPAPAX@Z @4659
?qt_metacall@QSortFilterProxyModel@@UAEHW4Call@QMetaObject@@HPAPAX@Z @4660
?qt_metacall@QState@@UAEHW4Call@QMetaObject@@HPAPAX@Z @4661
?qt_metacall@QStateMachine@@UAEHW4Call@QMetaObject@@HPAPAX@Z @4662
?qt_metacall@QStringListModel@@UAEHW4Call@QMetaObject@@HPAPAX@Z @4663
?qt_metacall@QTemporaryFile@@UAEHW4Call@QMetaObject@@HPAPAX@Z @4664
?qt_metacall@QThread@@UAEHW4Call@QMetaObject@@HPAPAX@Z @4665
?qt_metacall@QThreadPool@@UAEHW4Call@QMetaObject@@HPAPAX@Z @4666
?qt_metacall@QTimeLine@@UAEHW4Call@QMetaObject@@HPAPAX@Z @4667
?qt_metacall@QTimer@@UAEHW4Call@QMetaObject@@HPAPAX@Z @4668
?qt_metacall@QTranslator@@UAEHW4Call@QMetaObject@@HPAPAX@Z @4669
?qt_metacall@QUnifiedTimer@@UAEHW4Call@QMetaObject@@HPAPAX@Z @4670
?qt_metacall@QVariantAnimation@@UAEHW4Call@QMetaObject@@HPAPAX@Z @4671
?qt_metacall@QWinEventNotifier@@UAEHW4Call@QMetaObject@@HPAPAX@Z @4672
?qt_metacall@QWinOverlappedIoNotifier@@UAEHW4Call@QMetaObject@@HPAPAX@Z @4673
?qt_metacall@QWindowsPipeReader@@UAEHW4Call@QMetaObject@@HPAPAX@Z @4674
?qt_metacall@QWindowsPipeWriter@@UAEHW4Call@QMetaObject@@HPAPAX@Z @4675
?qt_metacast@QAbstractAnimation@@UAEPAXPBD@Z @4676
?qt_metacast@QAbstractAnimationTimer@@UAEPAXPBD@Z @4677
?qt_metacast@QAbstractEventDispatcher@@UAEPAXPBD@Z @4678
?qt_metacast@QAbstractItemModel@@UAEPAXPBD@Z @4679
?qt_metacast@QAbstractListModel@@UAEPAXPBD@Z @4680
?qt_metacast@QAbstractProxyModel@@UAEPAXPBD@Z @4681
?qt_metacast@QAbstractState@@UAEPAXPBD@Z @4682
?qt_metacast@QAbstractTableModel@@UAEPAXPBD@Z @4683
?qt_metacast@QAbstractTransition@@UAEPAXPBD@Z @4684
?qt_metacast@QAnimationDriver@@UAEPAXPBD@Z @4685
?qt_metacast@QAnimationGroup@@UAEPAXPBD@Z @4686
?qt_metacast@QBuffer@@UAEPAXPBD@Z @4687
?qt_metacast@QCoreApplication@@UAEPAXPBD@Z @4688
?qt_metacast@QEventDispatcherWin32@@UAEPAXPBD@Z @4689
?qt_metacast@QEventLoop@@UAEPAXPBD@Z @4690
?qt_metacast@QEventTransition@@UAEPAXPBD@Z @4691
?qt_metacast@QFactoryLoader@@UAEPAXPBD@Z @4692
?qt_metacast@QFile@@UAEPAXPBD@Z @4693
?qt_metacast@QFileDevice@@UAEPAXPBD@Z @4694
?qt_metacast@QFileSelector@@UAEPAXPBD@Z @4695
?qt_metacast@QFileSystemWatcher@@UAEPAXPBD@Z @4696
?qt_metacast@QFinalState@@UAEPAXPBD@Z @4697
?qt_metacast@QFutureWatcherBase@@UAEPAXPBD@Z @4698
?qt_metacast@QHistoryState@@UAEPAXPBD@Z @4699
?qt_metacast@QIODevice@@UAEPAXPBD@Z @4700
?qt_metacast@QIdentityProxyModel@@UAEPAXPBD@Z @4701
?qt_metacast@QItemSelectionModel@@UAEPAXPBD@Z @4702
?qt_metacast@QLibrary@@UAEPAXPBD@Z @4703
?qt_metacast@QMimeData@@UAEPAXPBD@Z @4704
?qt_metacast@QNonContiguousByteDevice@@UAEPAXPBD@Z @4705
?qt_metacast@QObject@@UAEPAXPBD@Z @4706
?qt_metacast@QObjectCleanupHandler@@UAEPAXPBD@Z @4707
?qt_metacast@QParallelAnimationGroup@@UAEPAXPBD@Z @4708
?qt_metacast@QPauseAnimation@@UAEPAXPBD@Z @4709
?qt_metacast@QPluginLoader@@UAEPAXPBD@Z @4710
?qt_metacast@QProcess@@UAEPAXPBD@Z @4711
?qt_metacast@QPropertyAnimation@@UAEPAXPBD@Z @4712
?qt_metacast@QSaveFile@@UAEPAXPBD@Z @4713
?qt_metacast@QSequentialAnimationGroup@@UAEPAXPBD@Z @4714
?qt_metacast@QSettings@@UAEPAXPBD@Z @4715
?qt_metacast@QSharedMemory@@UAEPAXPBD@Z @4716
?qt_metacast@QSignalMapper@@UAEPAXPBD@Z @4717
?qt_metacast@QSignalTransition@@UAEPAXPBD@Z @4718
?qt_metacast@QSocketNotifier@@UAEPAXPBD@Z @4719
?qt_metacast@QSortFilterProxyModel@@UAEPAXPBD@Z @4720
?qt_metacast@QState@@UAEPAXPBD@Z @4721
?qt_metacast@QStateMachine@@UAEPAXPBD@Z @4722
?qt_metacast@QStringListModel@@UAEPAXPBD@Z @4723
?qt_metacast@QTemporaryFile@@UAEPAXPBD@Z @4724
?qt_metacast@QThread@@UAEPAXPBD@Z @4725
?qt_metacast@QThreadPool@@UAEPAXPBD@Z @4726
?qt_metacast@QTimeLine@@UAEPAXPBD@Z @4727
?qt_metacast@QTimer@@UAEPAXPBD@Z @4728
?qt_metacast@QTranslator@@UAEPAXPBD@Z @4729
?qt_metacast@QUnifiedTimer@@UAEPAXPBD@Z @4730
?qt_metacast@QVariantAnimation@@UAEPAXPBD@Z @4731
?qt_metacast@QWinEventNotifier@@UAEPAXPBD@Z @4732
?qt_metacast@QWinOverlappedIoNotifier@@UAEPAXPBD@Z @4733
?qt_metacast@QWindowsPipeReader@@UAEPAXPBD@Z @4734
?qt_metacast@QWindowsPipeWriter@@UAEPAXPBD@Z @4735
?qt_ntfs_permission_lookup@@3HA @4736
?qt_qFindChild_helper@@YAPAVQObject@@PBV1@ABVQString@@ABUQMetaObject@@V?$QFlags@W4FindChildOption@Qt@@@@@Z @4737
?qt_qFindChildren_helper@@YAXPBVQObject@@ABVQRegExp@@ABUQMetaObject@@PAV?$QList@PAX@@V?$QFlags@W4FindChildOption@Qt@@@@@Z @4738
?qt_qFindChildren_helper@@YAXPBVQObject@@ABVQRegularExpression@@ABUQMetaObject@@PAV?$QList@PAX@@V?$QFlags@W4FindChildOption@Qt@@@@@Z @4739
?qt_qFindChildren_helper@@YAXPBVQObject@@ABVQString@@ABUQMetaObject@@PAV?$QList@PAX@@V?$QFlags@W4FindChildOption@Qt@@@@@Z @4740
?qt_qhash_seed@@3V?$QBasicAtomicInteger@H@@A @4741
?qt_regexp_toCanonical@@YA?AVQString@@ABV1@W4PatternSyntax@QRegExp@@@Z @4742
?qt_register_signal_spy_callbacks@@YAXABUQSignalSpyCallbackSet@@@Z @4743
?qt_signal_spy_callback_set@@3UQSignalSpyCallbackSet@@A @4744
?qt_sine_table@@3QBNB @4745
?qt_static_metacall@QAbstractAnimation@@CAXPAVQObject@@W4Call@QMetaObject@@HPAPAX@Z @4746
?qt_static_metacall@QAbstractAnimationTimer@@CAXPAVQObject@@W4Call@QMetaObject@@HPAPAX@Z @4747
?qt_static_metacall@QAbstractEventDispatcher@@CAXPAVQObject@@W4Call@QMetaObject@@HPAPAX@Z @4748
?qt_static_metacall@QAbstractItemModel@@CAXPAVQObject@@W4Call@QMetaObject@@HPAPAX@Z @4749
?qt_static_metacall@QAbstractListModel@@CAXPAVQObject@@W4Call@QMetaObject@@HPAPAX@Z @4750
?qt_static_metacall@QAbstractProxyModel@@CAXPAVQObject@@W4Call@QMetaObject@@HPAPAX@Z @4751
?qt_static_metacall@QAbstractState@@CAXPAVQObject@@W4Call@QMetaObject@@HPAPAX@Z @4752
?qt_static_metacall@QAbstractTableModel@@CAXPAVQObject@@W4Call@QMetaObject@@HPAPAX@Z @4753
?qt_static_metacall@QAbstractTransition@@CAXPAVQObject@@W4Call@QMetaObject@@HPAPAX@Z @4754
?qt_static_metacall@QAnimationDriver@@CAXPAVQObject@@W4Call@QMetaObject@@HPAPAX@Z @4755
?qt_static_metacall@QAnimationGroup@@CAXPAVQObject@@W4Call@QMetaObject@@HPAPAX@Z @4756
?qt_static_metacall@QBuffer@@CAXPAVQObject@@W4Call@QMetaObject@@HPAPAX@Z @4757
?qt_static_metacall@QCoreApplication@@CAXPAVQObject@@W4Call@QMetaObject@@HPAPAX@Z @4758
?qt_static_metacall@QEventDispatcherWin32@@CAXPAVQObject@@W4Call@QMetaObject@@HPAPAX@Z @4759
?qt_static_metacall@QEventLoop@@CAXPAVQObject@@W4Call@QMetaObject@@HPAPAX@Z @4760
?qt_static_metacall@QEventTransition@@CAXPAVQObject@@W4Call@QMetaObject@@HPAPAX@Z @4761
?qt_static_metacall@QFactoryLoader@@CAXPAVQObject@@W4Call@QMetaObject@@HPAPAX@Z @4762
?qt_static_metacall@QFile@@CAXPAVQObject@@W4Call@QMetaObject@@HPAPAX@Z @4763
?qt_static_metacall@QFileDevice@@CAXPAVQObject@@W4Call@QMetaObject@@HPAPAX@Z @4764
?qt_static_metacall@QFileSelector@@CAXPAVQObject@@W4Call@QMetaObject@@HPAPAX@Z @4765
?qt_static_metacall@QFileSystemWatcher@@CAXPAVQObject@@W4Call@QMetaObject@@HPAPAX@Z @4766
?qt_static_metacall@QFinalState@@CAXPAVQObject@@W4Call@QMetaObject@@HPAPAX@Z @4767
?qt_static_metacall@QFutureWatcherBase@@CAXPAVQObject@@W4Call@QMetaObject@@HPAPAX@Z @4768
?qt_static_metacall@QHistoryState@@CAXPAVQObject@@W4Call@QMetaObject@@HPAPAX@Z @4769
?qt_static_metacall@QIODevice@@CAXPAVQObject@@W4Call@QMetaObject@@HPAPAX@Z @4770
?qt_static_metacall@QIdentityProxyModel@@CAXPAVQObject@@W4Call@QMetaObject@@HPAPAX@Z @4771
?qt_static_metacall@QItemSelectionModel@@CAXPAVQObject@@W4Call@QMetaObject@@HPAPAX@Z @4772
?qt_static_metacall@QLibrary@@CAXPAVQObject@@W4Call@QMetaObject@@HPAPAX@Z @4773
?qt_static_metacall@QMimeData@@CAXPAVQObject@@W4Call@QMetaObject@@HPAPAX@Z @4774
?qt_static_metacall@QNonContiguousByteDevice@@CAXPAVQObject@@W4Call@QMetaObject@@HPAPAX@Z @4775
?qt_static_metacall@QObject@@CAXPAV1@W4Call@QMetaObject@@HPAPAX@Z @4776
?qt_static_metacall@QObjectCleanupHandler@@CAXPAVQObject@@W4Call@QMetaObject@@HPAPAX@Z @4777
?qt_static_metacall@QParallelAnimationGroup@@CAXPAVQObject@@W4Call@QMetaObject@@HPAPAX@Z @4778
?qt_static_metacall@QPauseAnimation@@CAXPAVQObject@@W4Call@QMetaObject@@HPAPAX@Z @4779
?qt_static_metacall@QPluginLoader@@CAXPAVQObject@@W4Call@QMetaObject@@HPAPAX@Z @4780
?qt_static_metacall@QProcess@@CAXPAVQObject@@W4Call@QMetaObject@@HPAPAX@Z @4781
?qt_static_metacall@QPropertyAnimation@@CAXPAVQObject@@W4Call@QMetaObject@@HPAPAX@Z @4782
?qt_static_metacall@QSaveFile@@CAXPAVQObject@@W4Call@QMetaObject@@HPAPAX@Z @4783
?qt_static_metacall@QSequentialAnimationGroup@@CAXPAVQObject@@W4Call@QMetaObject@@HPAPAX@Z @4784
?qt_static_metacall@QSettings@@CAXPAVQObject@@W4Call@QMetaObject@@HPAPAX@Z @4785
?qt_static_metacall@QSharedMemory@@CAXPAVQObject@@W4Call@QMetaObject@@HPAPAX@Z @4786
?qt_static_metacall@QSignalMapper@@CAXPAVQObject@@W4Call@QMetaObject@@HPAPAX@Z @4787
?qt_static_metacall@QSignalTransition@@CAXPAVQObject@@W4Call@QMetaObject@@HPAPAX@Z @4788
?qt_static_metacall@QSocketNotifier@@CAXPAVQObject@@W4Call@QMetaObject@@HPAPAX@Z @4789
?qt_static_metacall@QSortFilterProxyModel@@CAXPAVQObject@@W4Call@QMetaObject@@HPAPAX@Z @4790
?qt_static_metacall@QState@@CAXPAVQObject@@W4Call@QMetaObject@@HPAPAX@Z @4791
?qt_static_metacall@QStateMachine@@CAXPAVQObject@@W4Call@QMetaObject@@HPAPAX@Z @4792
?qt_static_metacall@QStringListModel@@CAXPAVQObject@@W4Call@QMetaObject@@HPAPAX@Z @4793
?qt_static_metacall@QTemporaryFile@@CAXPAVQObject@@W4Call@QMetaObject@@HPAPAX@Z @4794
?qt_static_metacall@QThread@@CAXPAVQObject@@W4Call@QMetaObject@@HPAPAX@Z @4795
?qt_static_metacall@QThreadPool@@CAXPAVQObject@@W4Call@QMetaObject@@HPAPAX@Z @4796
?qt_static_metacall@QTimeLine@@CAXPAVQObject@@W4Call@QMetaObject@@HPAPAX@Z @4797
?qt_static_metacall@QTimer@@CAXPAVQObject@@W4Call@QMetaObject@@HPAPAX@Z @4798
?qt_static_metacall@QTranslator@@CAXPAVQObject@@W4Call@QMetaObject@@HPAPAX@Z @4799
?qt_static_metacall@QUnifiedTimer@@CAXPAVQObject@@W4Call@QMetaObject@@HPAPAX@Z @4800
?qt_static_metacall@QVariantAnimation@@CAXPAVQObject@@W4Call@QMetaObject@@HPAPAX@Z @4801
?qt_static_metacall@QWinEventNotifier@@CAXPAVQObject@@W4Call@QMetaObject@@HPAPAX@Z @4802
?qt_static_metacall@QWinOverlappedIoNotifier@@CAXPAVQObject@@W4Call@QMetaObject@@HPAPAX@Z @4803
?qt_static_metacall@QWindowsPipeReader@@CAXPAVQObject@@W4Call@QMetaObject@@HPAPAX@Z @4804
?qt_static_metacall@QWindowsPipeWriter@@CAXPAVQObject@@W4Call@QMetaObject@@HPAPAX@Z @4805
?qualifiedName@QXmlStreamAttribute@@QBE?AVQStringRef@@XZ @4806
?qualifiedName@QXmlStreamReader@@QBE?AVQStringRef@@XZ @4807
?query@QSystemLocale@@UBE?AVQVariant@@W4QueryType@1@V2@@Z @4808
?query@QUrl@@QBE?AVQString@@V?$QFlags@W4ComponentFormattingOption@QUrl@@@@@Z @4809
?query@QUrlQuery@@QBE?AVQString@@V?$QFlags@W4ComponentFormattingOption@QUrl@@@@@Z @4810
?queryItemValue@QUrl@@QBE?AVQString@@ABV2@@Z @4811
?queryItemValue@QUrlQuery@@QBE?AVQString@@ABV2@V?$QFlags@W4ComponentFormattingOption@QUrl@@@@@Z @4812
?queryItems@QUrl@@QBE?AV?$QList@U?$QPair@VQString@@V1@@@@@XZ @4813
?queryItems@QUrlQuery@@QBE?AV?$QList@U?$QPair@VQString@@V1@@@@@V?$QFlags@W4ComponentFormattingOption@QUrl@@@@@Z @4814
?queryPairDelimiter@QUrlQuery@@QBE?AVQChar@@XZ @4815
?queryState@QFutureInterfaceBase@@QBE_NW4State@1@@Z @4816
?queryValueDelimiter@QUrlQuery@@QBE?AVQChar@@XZ @4817
?quit@QCoreApplication@@SAXXZ @4818
?quit@QEventLoop@@QAEXXZ @4819
?quit@QThread@@QAEXXZ @4820
?qunsetenv@@YA_NPBD@Z @4821
?quote@QDebug@@QAEAAV1@XZ @4822
?quoteString@QLocale@@QBE?AVQString@@ABV2@W4QuotationStyle@1@@Z @4823
?quoteString@QLocale@@QBE?AVQString@@ABVQStringRef@@W4QuotationStyle@1@@Z @4824
?qvsnprintf@@YAHPADIPBD0@Z @4825
?raise@QException@@UBEXXZ @4826
?raise@QUnhandledException@@UBEXXZ @4827
?raiseError@QXmlStreamReader@@QAEXABVQString@@@Z @4828
?rangeContains@QXmlUtils@@CA_NPBVQXmlCharRange@@0VQChar@@@Z @4829
?rawData@QJsonDocument@@QBEPBDPAH@Z @4830
?read@QAbstractFileEngine@@UAE_JPAD_J@Z @4831
?read@QFSFileEngine@@UAE_JPAD_J@Z @4832
?read@QIODevice@@QAE?AVQByteArray@@_J@Z @4833
?read@QIODevice@@QAE_JPAD_J@Z @4834
?read@QMetaProperty@@QBE?AVQVariant@@PBVQObject@@@Z @4835
?read@QTextStream@@QAE?AVQString@@_J@Z @4836
?read@QWindowsPipeReader@@QAE_JPAD_J@Z @4837
?readAll@QIODevice@@QAE?AVQByteArray@@XZ @4838
?readAll@QTextStream@@QAE?AVQString@@XZ @4839
?readAllStandardError@QProcess@@QAE?AVQByteArray@@XZ @4840
?readAllStandardOutput@QProcess@@QAE?AVQByteArray@@XZ @4841
?readBytes@QDataStream@@QAEAAV1@AAPADAAI@Z @4842
?readChannel@QProcess@@QBE?AW4ProcessChannel@1@XZ @4843
?readChannelFinished@QIODevice@@QAEXXZ @4844
?readChannelMode@QProcess@@QBE?AW4ProcessChannelMode@1@XZ @4845
?readData@QBuffer@@MAE_JPAD_J@Z @4846
?readData@QFileDevice@@MAE_JPAD_J@Z @4847
?readData@QProcess@@MAE_JPAD_J@Z @4848
?readElementText@QXmlStreamReader@@QAE?AVQString@@W4ReadElementTextBehaviour@1@@Z @4849
?readLine@QAbstractFileEngine@@UAE_JPAD_J@Z @4850
?readLine@QFSFileEngine@@UAE_JPAD_J@Z @4851
?readLine@QIODevice@@QAE?AVQByteArray@@_J@Z @4852
?readLine@QIODevice@@QAE_JPAD_J@Z @4853
?readLine@QTextStream@@QAE?AVQString@@_J@Z @4854
?readLineData@QFileDevice@@MAE_JPAD_J@Z @4855
?readLineData@QIODevice@@MAE_JPAD_J@Z @4856
?readLink@QFile@@QBE?AVQString@@XZ @4857
?readLink@QFile@@SA?AVQString@@ABV2@@Z @4858
?readLink@QFileInfo@@QBE?AVQString@@XZ @4859
?readNext@QXmlStreamReader@@QAE?AW4TokenType@1@XZ @4860
?readNextStartElement@QXmlStreamReader@@QAE_NXZ @4861
?readProgress@QNonContiguousByteDevice@@QAEX_J0@Z @4862
?readRawData@QDataStream@@QAEHPADH@Z @4863
?readWriteLock@QReadLocker@@QBEPAVQReadWriteLock@@XZ @4864
?readWriteLock@QWriteLocker@@QBEPAVQReadWriteLock@@XZ @4865
?readyRead@QIODevice@@QAEXXZ @4866
?readyRead@QNonContiguousByteDevice@@QAEXXZ @4867
?readyRead@QWindowsPipeReader@@QAEXXZ @4868
?readyReadStandardError@QProcess@@QAEXUQPrivateSignal@1@@Z @4869
?readyReadStandardOutput@QProcess@@QAEXUQPrivateSignal@1@@Z @4870
?realNumberNotation@QTextStream@@QBE?AW4RealNumberNotation@1@XZ @4871
?realNumberPrecision@QTextStream@@QBEHXZ @4872
?realloc@QListData@@QAEXH@Z @4873
?reallocData@?$QVector@VQPoint@@@@AAEXH@Z @4874
?reallocData@?$QVector@VQPoint@@@@AAEXHHV?$QFlags@W4AllocationOption@QArrayData@@@@@Z @4875
?reallocData@?$QVector@VQPointF@@@@AAEXH@Z @4876
?reallocData@?$QVector@VQPointF@@@@AAEXHHV?$QFlags@W4AllocationOption@QArrayData@@@@@Z @4877
?reallocData@?$QVector@VQXmlStreamAttribute@@@@AAEXH@Z @4878
?reallocData@?$QVector@VQXmlStreamAttribute@@@@AAEXHHV?$QFlags@W4AllocationOption@QArrayData@@@@@Z @4879
?reallocData@QByteArray@@AAEXIV?$QFlags@W4AllocationOption@QArrayData@@@@@Z @4880
?reallocData@QString@@AAEXI_N@Z @4881
?rebalance@QMapDataBase@@QAEXPAUQMapNodeBase@@@Z @4882
?recalcMostLeftNode@QMapDataBase@@QAEXXZ @4883
?receiverList@QObjectPrivate@@QBE?AV?$QList@PAVQObject@@@@PBD@Z @4884
?receivers@QAbstractDeclarativeData@@2P6AHPAV1@PBVQObject@@H@ZA @4885
?receivers@QObject@@IBEHPBD@Z @4886
?ref@QCoreApplicationPrivate@@QAEXXZ @4887
?refT@QFutureInterfaceBase@@IBE_NXZ @4888
?refresh@QDir@@QBEXXZ @4889
?refresh@QFileInfo@@QAEXXZ @4890
?refresh@QStorageInfo@@QAEXXZ @4891
?refreshAll@QFactoryLoader@@SAXXZ @4892
?registerCallback@QInternal@@SA_NW4Callback@1@P6A_NPAPAX@Z@Z @4893
?registerComparatorFunction@QMetaType@@CA_NPBUAbstractComparatorFunction@QtPrivate@@H@Z @4894
?registerConverterFunction@QMetaType@@SA_NPBUAbstractConverterFunction@QtPrivate@@HH@Z @4895
?registerDebugStreamOperatorFunction@QMetaType@@CA_NPBUAbstractDebugStreamFunction@QtPrivate@@H@Z @4896
?registerEventNotifier@QEventDispatcherWin32@@UAE_NPAVQWinEventNotifier@@@Z @4897
?registerEventTransition@QStateMachinePrivate@@QAEXPAVQEventTransition@@@Z @4898
?registerEventType@QEvent@@SAHH@Z @4899
?registerFormat@QSettings@@SA?AW4Format@1@ABVQString@@P6A_NAAVQIODevice@@AAV?$QMap@VQString@@VQVariant@@@@@ZP6A_N1ABV5@@ZW4CaseSensitivity@Qt@@@Z @4900
?registerHandler@QVariantPrivate@@YAXHPBUHandler@QVariant@@@Z @4901
?registerInterpolator@QVariantAnimation@@CAXP6A?AVQVariant@@PBX0N@ZH@Z @4902
?registerMultiThreadedSignalTransitions@QStateMachinePrivate@@QAEXXZ @4903
?registerNormalizedType@QMetaType@@SAHABVQByteArray@@P6AXPAX@ZP6APAXPBX@Z2P6APAX13@ZHV?$QFlags@W4TypeFlag@QMetaType@@@@PBUQMetaObject@@@Z @4904
?registerNormalizedTypedef@QMetaType@@SAHABVQByteArray@@H@Z @4905
?registerProfilerCallback@QUnifiedTimer@@QAEXP6AX_J@Z@Z @4906
?registerResource@QResource@@SA_NABVQString@@0@Z @4907
?registerResource@QResource@@SA_NPBEABVQString@@@Z @4908
?registerRestorable@QStateMachinePrivate@@QAEXPAVQAbstractState@@PAVQObject@@ABVQByteArray@@ABVQVariant@@@Z @4909
?registerSignalTransition@QStateMachinePrivate@@QAEXPAVQSignalTransition@@@Z @4910
?registerSocketNotifier@QEventDispatcherWin32@@UAEXPAVQSocketNotifier@@@Z @4911
?registerStreamOperators@QMetaType@@SAXHP6AXAAVQDataStream@@PBX@ZP6AX0PAX@Z@Z @4912
?registerStreamOperators@QMetaType@@SAXPBDP6AXAAVQDataStream@@PBX@ZP6AX1PAX@Z@Z @4913
?registerTimer@QAbstractEventDispatcher@@QAEHHPAVQObject@@@Z @4914
?registerTimer@QAbstractEventDispatcher@@QAEHHW4TimerType@Qt@@PAVQObject@@@Z @4915
?registerTimer@QAbstractEventDispatcher@@QAEXHHPAVQObject@@@Z @4916
?registerTimer@QEventDispatcherWin32@@UAEXHHW4TimerType@Qt@@PAVQObject@@@Z @4917
?registerTimer@QEventDispatcherWin32Private@@QAEXPAUWinTimerInfo@@@Z @4918
?registerTransition@QStateMachinePrivate@@QAEXPAVQAbstractTransition@@@Z @4919
?registerTransitions@QStateMachinePrivate@@QAEXPAVQAbstractState@@@Z @4920
?registerType@QMetaType@@SAHPBDP6AXPAX@ZP6APAXPBX@Z2P6APAX13@ZHV?$QFlags@W4TypeFlag@QMetaType@@@@PBUQMetaObject@@@Z @4921
?registerType@QMetaType@@SAHPBDP6AXPAX@ZP6APAXPBX@Z@Z @4922
?registerTypedef@QMetaType@@SAHPBDH@Z @4923
?registerUserData@QObject@@SAIXZ @4924
?registeredTimers@QEventDispatcherWin32@@UBE?AV?$QList@UTimerInfo@QAbstractEventDispatcher@@@@PAVQObject@@@Z @4925
?regularExpression@QRegularExpressionMatch@@QBE?AVQRegularExpression@@XZ @4926
?regularExpression@QRegularExpressionMatchIterator@@QBE?AVQRegularExpression@@XZ @4927
?rehash@QHashData@@QAEXH@Z @4928
?relatedMetaObject@QMetaObjectBuilder@@QBEPBUQMetaObject@@H@Z @4929
?relatedMetaObjectCount@QMetaObjectBuilder@@QBEHXZ @4930
?relativeFilePath@QDir@@QBE?AVQString@@ABV2@@Z @4931
?release@QSemaphore@@QAEXH@Z @4932
?release@QSystemSemaphore@@QAE_NH@Z @4933
?releaseThread@QThreadPool@@QAEXXZ @4934
?releaseTimerId@QAbstractEventDispatcherPrivate@@SAXH@Z @4935
?relock@QMutexLocker@@QAEXXZ @4936
?relock@QReadLocker@@QAEXXZ @4937
?relock@QWriteLocker@@QAEXXZ @4938
?remainingTime@QEventDispatcherWin32@@UAEHH@Z @4939
?remainingTime@QTimer@@QBEHXZ @4940
?remove@?$QVector@VQPoint@@@@QAEXH@Z @4941
?remove@?$QVector@VQPoint@@@@QAEXHH@Z @4942
?remove@?$QVector@VQPointF@@@@QAEXH@Z @4943
?remove@?$QVector@VQPointF@@@@QAEXHH@Z @4944
?remove@?$QVector@VQXmlStreamAttribute@@@@QAEXH@Z @4945
?remove@?$QVector@VQXmlStreamAttribute@@@@QAEXHH@Z @4946
?remove@QAbstractFileEngine@@UAE_NXZ @4947
?remove@QByteArray@@QAEAAV1@HH@Z @4948
?remove@QDir@@QAE_NABVQString@@@Z @4949
?remove@QFSFileEngine@@UAE_NXZ @4950
?remove@QFile@@QAE_NXZ @4951
?remove@QFile@@SA_NABVQString@@@Z @4952
?remove@QJsonObject@@QAEXABVQString@@@Z @4953
?remove@QListData@@QAEXH@Z @4954
?remove@QListData@@QAEXHH@Z @4955
?remove@QObjectCleanupHandler@@QAEXPAVQObject@@@Z @4956
?remove@QProcessEnvironment@@QAEXABVQString@@@Z @4957
?remove@QSettings@@QAEXABVQString@@@Z @4958
?remove@QString@@QAEAAV1@ABV1@W4CaseSensitivity@Qt@@@Z @4959
?remove@QString@@QAEAAV1@ABVQRegExp@@@Z @4960
?remove@QString@@QAEAAV1@ABVQRegularExpression@@@Z @4961
?remove@QString@@QAEAAV1@HH@Z @4962
?remove@QString@@QAEAAV1@VQChar@@W4CaseSensitivity@Qt@@@Z @4963
?remove@QTemporaryDir@@QAE_NXZ @4964
?removeAll@?$QList@VQItemSelectionRange@@@@QAEHABVQItemSelectionRange@@@Z @4965
?removeAll@?$QVector@VQPoint@@@@QAEHABVQPoint@@@Z @4966
?removeAll@?$QVector@VQPointF@@@@QAEHABVQPointF@@@Z @4967
?removeAll@?$QVector@VQXmlStreamAttribute@@@@QAEHABVQXmlStreamAttribute@@@Z @4968
?removeAllEncodedQueryItems@QUrl@@QAEXABVQByteArray@@@Z @4969
?removeAllQueryItems@QUrl@@QAEXABVQString@@@Z @4970
?removeAllQueryItems@QUrlQuery@@QAEXABVQString@@@Z @4971
?removeAnimation@QAbstractTransition@@QAEXPAVQAbstractAnimation@@@Z @4972
?removeAnimation@QAnimationGroup@@QAEXPAVQAbstractAnimation@@@Z @4973
?removeAt@?$QList@VQItemSelectionRange@@@@QAEXH@Z @4974
?removeAt@?$QVector@VQPoint@@@@QAEXH@Z @4975
?removeAt@?$QVector@VQPointF@@@@QAEXH@Z @4976
?removeAt@?$QVector@VQXmlStreamAttribute@@@@QAEXH@Z @4977
?removeAt@QJsonArray@@QAEXH@Z @4978
?removeClassInfo@QMetaObjectBuilder@@QAEXH@Z @4979
?removeColumn@QAbstractItemModel@@QAE_NHABVQModelIndex@@@Z @4980
?removeColumns@QAbstractItemModel@@UAE_NHHABVQModelIndex@@@Z @4981
?removeColumns@QIdentityProxyModel@@UAE_NHHABVQModelIndex@@@Z @4982
?removeColumns@QSortFilterProxyModel@@UAE_NHHABVQModelIndex@@@Z @4983
?removeConstructor@QMetaObjectBuilder@@QAEXH@Z @4984
?removeDefaultAnimation@QStateMachine@@QAEXPAVQAbstractAnimation@@@Z @4985
?removeEncodedQueryItem@QUrl@@QAEXABVQByteArray@@@Z @4986
?removeEnumerator@QMetaObjectBuilder@@QAEXH@Z @4987
?removeEventFilter@QObject@@QAEXPAV1@@Z @4988
?removeFirst@?$QList@VQItemSelectionRange@@@@QAEXXZ @4989
?removeFirst@?$QVector@VQPoint@@@@QAEXXZ @4990
?removeFirst@?$QVector@VQPointF@@@@QAEXXZ @4991
?removeFirst@?$QVector@VQXmlStreamAttribute@@@@QAEXXZ @4992
?removeFirst@QJsonArray@@QAEXXZ @4993
?removeFormat@QMimeData@@QAEXABVQString@@@Z @4994
?removeKey@QMetaEnumBuilder@@QAEXH@Z @4995
?removeLast@?$QList@VQItemSelectionRange@@@@QAEXXZ @4996
?removeLast@?$QVector@VQPoint@@@@QAEXXZ @4997
?removeLast@?$QVector@VQPointF@@@@QAEXXZ @4998
?removeLast@?$QVector@VQXmlStreamAttribute@@@@QAEXXZ @4999
?removeLast@QJsonArray@@QAEXXZ @5000
?removeLibraryPath@QCoreApplication@@SAXABVQString@@@Z @5001
?removeMappings@QSignalMapper@@QAEXPAVQObject@@@Z @5002
?removeMethod@QMetaObjectBuilder@@QAEXH@Z @5003
?removeNativeEventFilter@QAbstractEventDispatcher@@QAEXPAVQAbstractNativeEventFilter@@@Z @5004
?removeNativeEventFilter@QCoreApplication@@QAEXPAVQAbstractNativeEventFilter@@@Z @5005
?removeNotifySignal@QMetaPropertyBuilder@@QAEXXZ @5006
?removeOne@?$QList@VQItemSelectionRange@@@@QAE_NABVQItemSelectionRange@@@Z @5007
?removeOne@?$QVector@VQPoint@@@@QAE_NABVQPoint@@@Z @5008
?removeOne@?$QVector@VQPointF@@@@QAE_NABVQPointF@@@Z @5009
?removeOne@?$QVector@VQXmlStreamAttribute@@@@QAE_NABVQXmlStreamAttribute@@@Z @5010
?removePath@QFileSystemWatcher@@QAE_NABVQString@@@Z @5011
?removePaths@QFileSystemWatcher@@QAE?AVQStringList@@ABV2@@Z @5012
?removePersistentIndexData@QAbstractItemModelPrivate@@QAEXPAVQPersistentModelIndexData@@@Z @5013
?removePostedEvent@QCoreApplicationPrivate@@SAXPAVQEvent@@@Z @5014
?removePostedEvents@QCoreApplication@@SAXPAVQObject@@H@Z @5015
?removePostedTimerEvent@QCoreApplicationPrivate@@SAXPAVQObject@@H@Z @5016
?removeProperty@QMetaObjectBuilder@@QAEXH@Z @5017
?removeQueryItem@QUrl@@QAEXABVQString@@@Z @5018
?removeQueryItem@QUrlQuery@@QAEXABVQString@@@Z @5019
?removeRecursively@QDir@@QAE_NXZ @5020
?removeRelatedMetaObject@QMetaObjectBuilder@@QAEXH@Z @5021
?removeRow@QAbstractItemModel@@QAE_NHABVQModelIndex@@@Z @5022
?removeRows@QAbstractItemModel@@UAE_NHHABVQModelIndex@@@Z @5023
?removeRows@QIdentityProxyModel@@UAE_NHHABVQModelIndex@@@Z @5024
?removeRows@QSortFilterProxyModel@@UAE_NHHABVQModelIndex@@@Z @5025
?removeRows@QStringListModel@@UAE_NHHABVQModelIndex@@@Z @5026
?removeStaleLockFile@QLockFile@@QAE_NXZ @5027
?removeState@QStateMachine@@QAEXPAVQAbstractState@@@Z @5028
?removeTransition@QState@@QAEXPAVQAbstractTransition@@@Z @5029
?removeTranslator@QCoreApplication@@SA_NPAVQTranslator@@@Z @5030
?removed@QChildEvent@@QBE_NXZ @5031
?rename@QAbstractFileEngine@@UAE_NABVQString@@@Z @5032
?rename@QDir@@QAE_NABVQString@@0@Z @5033
?rename@QFSFileEngine@@UAE_NABVQString@@@Z @5034
?rename@QFile@@QAE_NABVQString@@@Z @5035
?rename@QFile@@SA_NABVQString@@0@Z @5036
?renameOverwrite@QAbstractFileEngine@@UAE_NABVQString@@@Z @5037
?renameOverwrite@QFSFileEngine@@UAE_NABVQString@@@Z @5038
?repeated@QByteArray@@QBE?AV1@H@Z @5039
?repeated@QString@@QBE?AV1@H@Z @5040
?replace@?$QList@VQItemSelectionRange@@@@QAEXHABVQItemSelectionRange@@@Z @5041
?replace@?$QVector@VQPoint@@@@QAEXHABVQPoint@@@Z @5042
?replace@?$QVector@VQPointF@@@@QAEXHABVQPointF@@@Z @5043
?replace@?$QVector@VQXmlStreamAttribute@@@@QAEXHABVQXmlStreamAttribute@@@Z @5044
?replace@QByteArray@@QAEAAV1@ABV1@0@Z @5045
?replace@QByteArray@@QAEAAV1@ABV1@PBD@Z @5046
?replace@QByteArray@@QAEAAV1@ABVQString@@ABV1@@Z @5047
?replace@QByteArray@@QAEAAV1@ABVQString@@PBD@Z @5048
?replace@QByteArray@@QAEAAV1@DABV1@@Z @5049
?replace@QByteArray@@QAEAAV1@DABVQString@@@Z @5050
?replace@QByteArray@@QAEAAV1@DD@Z @5051
?replace@QByteArray@@QAEAAV1@DPBD@Z @5052
?replace@QByteArray@@QAEAAV1@HHABV1@@Z @5053
?replace@QByteArray@@QAEAAV1@HHPBD@Z @5054
?replace@QByteArray@@QAEAAV1@HHPBDH@Z @5055
?replace@QByteArray@@QAEAAV1@PBD0@Z @5056
?replace@QByteArray@@QAEAAV1@PBDABV1@@Z @5057
?replace@QByteArray@@QAEAAV1@PBDH0H@Z @5058
?replace@QJsonArray@@QAEXHABVQJsonValue@@@Z @5059
?replace@QString@@QAEAAV1@ABV1@0W4CaseSensitivity@Qt@@@Z @5060
?replace@QString@@QAEAAV1@ABV1@VQLatin1String@@W4CaseSensitivity@Qt@@@Z @5061
?replace@QString@@QAEAAV1@ABVQRegExp@@ABV1@@Z @5062
?replace@QString@@QAEAAV1@ABVQRegularExpression@@ABV1@@Z @5063
?replace@QString@@QAEAAV1@HHABV1@@Z @5064
?replace@QString@@QAEAAV1@HHPBVQChar@@H@Z @5065
?replace@QString@@QAEAAV1@HHVQChar@@@Z @5066
?replace@QString@@QAEAAV1@PBVQChar@@H0HW4CaseSensitivity@Qt@@@Z @5067
?replace@QString@@QAEAAV1@VQChar@@0W4CaseSensitivity@Qt@@@Z @5068
?replace@QString@@QAEAAV1@VQChar@@ABV1@W4CaseSensitivity@Qt@@@Z @5069
?replace@QString@@QAEAAV1@VQChar@@VQLatin1String@@W4CaseSensitivity@Qt@@@Z @5070
?replace@QString@@QAEAAV1@VQLatin1String@@0W4CaseSensitivity@Qt@@@Z @5071
?replace@QString@@QAEAAV1@VQLatin1String@@ABV1@W4CaseSensitivity@Qt@@@Z @5072
?replace_helper@QString@@AAEXPAIHHPBVQChar@@H@Z @5073
?reportCanceled@QFutureInterfaceBase@@QAEXXZ @5074
?reportException@QFutureInterfaceBase@@QAEXABVQException@@@Z @5075
?reportFinished@QFutureInterfaceBase@@QAEXXZ @5076
?reportResultsReady@QFutureInterfaceBase@@QAEXHH@Z @5077
?reportStarted@QFutureInterfaceBase@@QAEXXZ @5078
?requestInterruption@QThread@@QAEXXZ @5079
?requiresSurrogates@QChar@@SA_NI@Z @5080
?reserve@?$QList@VQItemSelectionRange@@@@QAEXH@Z @5081
?reserve@?$QVector@VQPoint@@@@QAEXH@Z @5082
?reserve@?$QVector@VQPointF@@@@QAEXH@Z @5083
?reserve@?$QVector@VQXmlStreamAttribute@@@@QAEXH@Z @5084
?reserve@QByteArray@@QAEXH@Z @5085
?reserve@QString@@QAEXH@Z @5086
?reserveThread@QThreadPool@@QAEXXZ @5087
?reset@@YAAAVQTextStream@@AAV1@@Z @5088
?reset@QAbstractItemModel@@IAEXXZ @5089
?reset@QCryptographicHash@@QAEXXZ @5090
?reset@QIODevice@@UAE_NXZ @5091
?reset@QItemSelectionModel@@UAEXXZ @5092
?reset@QMessageAuthenticationCode@@QAEXXZ @5093
?reset@QMetaProperty@@QBE_NPAVQObject@@@Z @5094
?reset@QTextStream@@QAEXXZ @5095
?reset@QThreadPoolPrivate@@QAEXXZ @5096
?resetCurrentSender@QObjectPrivate@@SAXPAVQObject@@PAUSender@1@1@Z @5097
?resetFormat@QDebug@@QAEAAV1@XZ @5098
?resetInternalData@QAbstractItemModel@@IAEXXZ @5099
?resetInternalData@QAbstractProxyModel@@IAEXXZ @5100
?resetStatus@QDataStream@@QAEXXZ @5101
?resetStatus@QTextStream@@QAEXXZ @5102
?resize@?$QVector@VQPoint@@@@QAEXH@Z @5103
?resize@?$QVector@VQPointF@@@@QAEXH@Z @5104
?resize@?$QVector@VQXmlStreamAttribute@@@@QAEXH@Z @5105
?resize@QBitArray@@QAEXH@Z @5106
?resize@QByteArray@@QAEXH@Z @5107
?resize@QFile@@SA_NABVQString@@_J@Z @5108
?resize@QFile@@UAE_N_J@Z @5109
?resize@QFileDevice@@UAE_N_J@Z @5110
?resize@QString@@QAEXH@Z @5111
?resolve@QLibrary@@QAEP6AXXZPBD@Z @5112
?resolve@QLibrary@@SAP6AXXZABVQString@@0PBD@Z @5113
?resolve@QLibrary@@SAP6AXXZABVQString@@HPBD@Z @5114
?resolve@QLibrary@@SAP6AXXZABVQString@@PBD@Z @5115
?resolveEntity@QXmlStreamEntityResolver@@UAE?AVQString@@ABV2@0@Z @5116
?resolveUndeclaredEntity@QXmlStreamEntityResolver@@UAE?AVQString@@ABV2@@Z @5117
?resolved@QUrl@@QBE?AV1@ABV1@@Z @5118
?restart@QElapsedTimer@@QAE_JXZ @5119
?restart@QTime@@QAEHXZ @5120
?restart@QUnifiedTimer@@QAEXXZ @5121
?restorablesToPropertyList@QStateMachinePrivate@@QBE?AV?$QList@UQPropertyAssignment@@@@ABV?$QHash@U?$QPair@V?$QPointer@VQObject@@@@VQByteArray@@@@VQVariant@@@@@Z @5122
?result@QCryptographicHash@@QBE?AVQByteArray@@XZ @5123
?result@QMessageAuthenticationCode@@QBE?AVQByteArray@@XZ @5124
?resultAt@ResultStoreBase@QtPrivate@@QBE?AVResultIteratorBase@2@H@Z @5125
?resultCount@QFutureInterfaceBase@@QBEHXZ @5126
?resultIndex@ResultIteratorBase@QtPrivate@@QBEHXZ @5127
?resultReadyAt@QFutureWatcherBase@@QAEXH@Z @5128
?resultStoreBase@QFutureInterfaceBase@@QAEAAVResultStoreBase@QtPrivate@@XZ @5129
?resultStoreBase@QFutureInterfaceBase@@QBEABVResultStoreBase@QtPrivate@@XZ @5130
?resultsReadyAt@QFutureWatcherBase@@QAEXHH@Z @5131
?resume@QAbstractAnimation@@QAEXXZ @5132
?resume@QFutureWatcherBase@@QAEXXZ @5133
?resume@QTimeLine@@QAEXXZ @5134
?resumeAnimationTimer@QUnifiedTimer@@SAXPAVQAbstractAnimationTimer@@@Z @5135
?resumed@QFutureWatcherBase@@QAEXXZ @5136
?retrieveData@QMimeData@@MBE?AVQVariant@@ABVQString@@W4Type@2@@Z @5137
?returnType@QMetaMethod@@QBEHXZ @5138
?returnType@QMetaMethodBuilder@@QBE?AVQByteArray@@XZ @5139
?revert@QAbstractItemModel@@UAEXXZ @5140
?revert@QAbstractProxyModel@@UAEXXZ @5141
?revision@QMetaMethod@@QBEHXZ @5142
?revision@QMetaMethodBuilder@@QBEHXZ @5143
?revision@QMetaProperty@@QBEHXZ @5144
?revision@QMetaPropertyBuilder@@QBEHXZ @5145
?rheight@QSize@@QAEAAHXZ @5146
?rheight@QSizeF@@QAEAANXZ @5147
?right@@YAAAVQTextStream@@AAV1@@Z @5148
?right@QByteArray@@QBE?AV1@H@Z @5149
?right@QItemSelectionRange@@QBEHXZ @5150
?right@QRect@@QBEHXZ @5151
?right@QRectF@@QBENXZ @5152
?right@QString@@QBE?AV1@H@Z @5153
?right@QStringRef@@QBE?AV1@H@Z @5154
?rightJustified@QByteArray@@QBE?AV1@HD_N@Z @5155
?rightJustified@QString@@QBE?AV1@HVQChar@@_N@Z @5156
?rightRef@QString@@QBE?AVQStringRef@@H@Z @5157
?rmdir@QAbstractFileEngine@@UBE_NABVQString@@_N@Z @5158
?rmdir@QDir@@QBE_NABVQString@@@Z @5159
?rmdir@QFSFileEngine@@UBE_NABVQString@@_N@Z @5160
?rmpath@QDir@@QBE_NABVQString@@@Z @5161
?roleNames@QAbstractItemModel@@UBE?AV?$QHash@HVQByteArray@@@@XZ @5162
?root@QDir@@SA?AV1@XZ @5163
?root@QStorageInfo@@SA?AV1@XZ @5164
?rootPath@QDir@@SA?AVQString@@XZ @5165
?rootPath@QFSFileEngine@@SA?AVQString@@XZ @5166
?rootPath@QStorageInfo@@QBE?AVQString@@XZ @5167
?rootState@QStateMachinePrivate@@QBEPAVQState@@XZ @5168
?rotateLeft@QMapDataBase@@QAEXPAUQMapNodeBase@@@Z @5169
?rotateRight@QMapDataBase@@QAEXPAUQMapNodeBase@@@Z @5170
?row@QChar@@QBEEXZ @5171
?row@QCharRef@@QBEEXZ @5172
?row@QModelIndex@@QBEHXZ @5173
?row@QPersistentModelIndex@@QBEHXZ @5174
?rowCount@QIdentityProxyModel@@UBEHABVQModelIndex@@@Z @5175
?rowCount@QSortFilterProxyModel@@UBEHABVQModelIndex@@@Z @5176
?rowCount@QStringListModel@@UBEHABVQModelIndex@@@Z @5177
?rowIntersectsSelection@QItemSelectionModel@@QBE_NHABVQModelIndex@@@Z @5178
?rowsAboutToBeInserted@QAbstractItemModel@@QAEXABVQModelIndex@@HHUQPrivateSignal@1@@Z @5179
?rowsAboutToBeInserted@QAbstractItemModelPrivate@@QAEXABVQModelIndex@@HH@Z @5180
?rowsAboutToBeMoved@QAbstractItemModel@@QAEXABVQModelIndex@@HH0HUQPrivateSignal@1@@Z @5181
?rowsAboutToBeRemoved@QAbstractItemModel@@QAEXABVQModelIndex@@HHUQPrivateSignal@1@@Z @5182
?rowsAboutToBeRemoved@QAbstractItemModelPrivate@@QAEXABVQModelIndex@@HH@Z @5183
?rowsInserted@QAbstractItemModel@@QAEXABVQModelIndex@@HHUQPrivateSignal@1@@Z @5184
?rowsInserted@QAbstractItemModelPrivate@@QAEXABVQModelIndex@@HH@Z @5185
?rowsMoved@QAbstractItemModel@@QAEXABVQModelIndex@@HH0HUQPrivateSignal@1@@Z @5186
?rowsRemoved@QAbstractItemModel@@QAEXABVQModelIndex@@HHUQPrivateSignal@1@@Z @5187
?rowsRemoved@QAbstractItemModelPrivate@@QAEXABVQModelIndex@@HH@Z @5188
?run@QThread@@MAEXXZ @5189
?run@QWindowsPipeWriter@@MAEXXZ @5190
?runningAnimationCount@QUnifiedTimer@@QAEHXZ @5191
?runningChanged@QStateMachine@@QAEX_N@Z @5192
?rwidth@QSize@@QAEAAHXZ @5193
?rwidth@QSizeF@@QAEAANXZ @5194
?rx@QPoint@@QAEAAHXZ @5195
?rx@QPointF@@QAEAANXZ @5196
?ry@QPoint@@QAEAAHXZ @5197
?ry@QPointF@@QAEAANXZ @5198
?save@QMetaType@@SA_NAAVQDataStream@@HPBX@Z @5199
?save@QVariant@@QBEXAAVQDataStream@@@Z @5200
?savedValueForRestorable@QStateMachinePrivate@@QBE?AVQVariant@@ABV?$QList@PAVQAbstractState@@@@PAVQObject@@ABVQByteArray@@@Z @5201
?scale@QSize@@QAEXABV1@W4AspectRatioMode@Qt@@@Z @5202
?scale@QSize@@QAEXHHW4AspectRatioMode@Qt@@@Z @5203
?scale@QSizeF@@QAEXABV1@W4AspectRatioMode@Qt@@@Z @5204
?scale@QSizeF@@QAEXNNW4AspectRatioMode@Qt@@@Z @5205
?scaled@QSize@@QBE?AV1@ABV1@W4AspectRatioMode@Qt@@@Z @5206
?scaled@QSize@@QBE?AV1@HHW4AspectRatioMode@Qt@@@Z @5207
?scaled@QSizeF@@QBE?AV1@ABV1@W4AspectRatioMode@Qt@@@Z @5208
?scaled@QSizeF@@QBE?AV1@NNW4AspectRatioMode@Qt@@@Z @5209
?scheme@QUrl@@QBE?AVQString@@XZ @5210
?scientific@@YAAAVQTextStream@@AAV1@@Z @5211
?scope@QMetaEnum@@QBEPBDXZ @5212
?scope@QSettings@@QBE?AW4Scope@1@XZ @5213
?scope@QSystemError@@QAE?AW4ErrorScope@1@XZ @5214
?script@QChar@@QBE?AW4Script@1@XZ @5215
?script@QChar@@SI?AW4Script@1@I@Z @5216
?script@QCharRef@@QBE?AW4Script@QChar@@XZ @5217
?script@QLocale@@QBE?AW4Script@1@XZ @5218
?scriptCode@QLocalePrivate@@QBE?AVQString@@XZ @5219
?scriptToCode@QLocalePrivate@@SA?AVQString@@W4Script@QLocale@@@Z @5220
?scriptToString@QLocale@@SA?AVQString@@W4Script@1@@Z @5221
?searchPaths@QDir@@SA?AVQStringList@@ABVQString@@@Z @5222
?searchPaths@QResource@@SA?AVQStringList@@XZ @5223
?second@QTime@@QBEHXZ @5224
?secsTo@QDateTime@@QBE_JABV1@@Z @5225
?secsTo@QElapsedTimer@@QBE_JABV1@@Z @5226
?secsTo@QTime@@QBEHABV1@@Z @5227
?section@QString@@QBE?AV1@ABV1@HHV?$QFlags@W4SectionFlag@QString@@@@@Z @5228
?section@QString@@QBE?AV1@ABVQRegExp@@HHV?$QFlags@W4SectionFlag@QString@@@@@Z @5229
?section@QString@@QBE?AV1@ABVQRegularExpression@@HHV?$QFlags@W4SectionFlag@QString@@@@@Z @5230
?section@QString@@QBE?AV1@VQChar@@HHV?$QFlags@W4SectionFlag@QString@@@@@Z @5231
?sectionFormat@QDateTimeParser@@QBE?AVQString@@H@Z @5232
?sectionFormat@QDateTimeParser@@QBE?AVQString@@W4Section@1@H@Z @5233
?sectionMaxSize@QDateTimeParser@@QBEHH@Z @5234
?sectionMaxSize@QDateTimeParser@@QBEHW4Section@1@H@Z @5235
?sectionName@QDateTimeParser@@QBE?AVQString@@H@Z @5236
?sectionNode@QDateTimeParser@@QBEABUSectionNode@1@H@Z @5237
?sectionPos@QDateTimeParser@@QBEHABUSectionNode@1@@Z @5238
?sectionPos@QDateTimeParser@@QBEHH@Z @5239
?sectionSize@QDateTimeParser@@QBEHH@Z @5240
?sectionText@QDateTimeParser@@QBE?AVQString@@ABV2@HH@Z @5241
?sectionText@QDateTimeParser@@QBE?AVQString@@H@Z @5242
?sectionType@QDateTimeParser@@QBE?AW4Section@1@H@Z @5243
?seek@QAbstractFileEngine@@UAE_N_J@Z @5244
?seek@QBuffer@@UAE_N_J@Z @5245
?seek@QFSFileEngine@@UAE_N_J@Z @5246
?seek@QFileDevice@@UAE_N_J@Z @5247
?seek@QIODevice@@UAE_N_J@Z @5248
?seek@QTextStream@@QAE_N_J@Z @5249
?segmentAt@QVersionNumber@@QBEHH@Z @5250
?segmentCount@QVersionNumber@@QBEHXZ @5251
?segments@QVersionNumber@@QBE?AV?$QVector@H@@XZ @5252
?select@QFileSelector@@QBE?AVQString@@ABV2@@Z @5253
?select@QFileSelector@@QBE?AVQUrl@@ABV2@@Z @5254
?select@QFileSelectorPrivate@@QBE?AVQString@@ABV2@@Z @5255
?select@QItemSelection@@QAEXABVQModelIndex@@0@Z @5256
?select@QItemSelectionModel@@UAEXABVQItemSelection@@V?$QFlags@W4SelectionFlag@QItemSelectionModel@@@@@Z @5257
?select@QItemSelectionModel@@UAEXABVQModelIndex@@V?$QFlags@W4SelectionFlag@QItemSelectionModel@@@@@Z @5258
?selectAnimations@QStateMachinePrivate@@QBE?AV?$QList@PAVQAbstractAnimation@@@@ABV?$QList@PAVQAbstractTransition@@@@@Z @5259
?selectTransitions@QStateMachinePrivate@@QBE?AV?$QSet@PAVQAbstractTransition@@@@PAVQEvent@@@Z @5260
?selectedColumns@QItemSelectionModel@@QBE?AV?$QList@VQModelIndex@@@@H@Z @5261
?selectedIndexes@QItemSelectionModel@@QBE?AV?$QList@VQModelIndex@@@@XZ @5262
?selectedRows@QItemSelectionModel@@QBE?AV?$QList@VQModelIndex@@@@H@Z @5263
?selection@QItemSelectionModel@@QBE?BVQItemSelection@@XZ @5264
?selectionChanged@QItemSelectionModel@@QAEXABVQItemSelection@@0@Z @5265
?self@QCoreApplication@@0PAV1@A @5266
?sendEvent@QCoreApplication@@SA_NPAVQObject@@PAVQEvent@@@Z @5267
?sendPostedEvents@QCoreApplication@@SAXPAVQObject@@H@Z @5268
?sendPostedEvents@QCoreApplicationPrivate@@SAXPAVQObject@@HPAVQThreadData@@@Z @5269
?sendPostedEvents@QEventDispatcherWin32@@MAEXXZ @5270
?sendSpontaneousEvent@QCoreApplication@@CA_NPAVQObject@@PAVQEvent@@@Z @5271
?sendThroughApplicationEventFilters@QCoreApplicationPrivate@@QAE_NPAVQObject@@PAVQEvent@@@Z @5272
?sendThroughObjectEventFilters@QCoreApplicationPrivate@@QAE_NPAVQObject@@PAVQEvent@@@Z @5273
?sendTimerEvent@QEventDispatcherWin32Private@@QAEXH@Z @5274
?sender@QMetaCallEvent@@QBEPBVQObject@@XZ @5275
?sender@QObject@@IBEPAV1@XZ @5276
?sender@SignalEvent@QStateMachine@@QBEPAVQObject@@XZ @5277
?senderList@QObjectPrivate@@QBE?AV?$QList@PAVQObject@@@@XZ @5278
?senderObject@QSignalTransition@@QBEPAVQObject@@XZ @5279
?senderObjectChanged@QSignalTransition@@QAEXUQPrivateSignal@1@@Z @5280
?senderSignalIndex@QObject@@IBEHXZ @5281
?sentenceBreakClass@QUnicodeTables@@YI?AW4SentenceBreakClass@1@I@Z @5282
?separator@QDir@@SA?AVQChar@@XZ @5283
?serialize@QMetaObjectBuilder@@QBEXAAVQDataStream@@@Z @5284
?serialize@QTimeZonePrivate@@UBEXAAVQDataStream@@@Z @5285
?set@QThreadStorageData@@QAEPAPAXPAX@Z @5286
?setAccepted@QEvent@@QAEX_N@Z @5287
?setAccess@QMetaMethodBuilder@@QAEXW4Access@QMetaMethod@@@Z @5288
?setAmplitude@QEasingCurve@@QAEXN@Z @5289
?setAngle@QLineF@@QAEXN@Z @5290
?setAnimated@QStateMachine@@QAEX_N@Z @5291
?setApplicationDescription@QCommandLineParser@@QAEXABVQString@@@Z @5292
?setApplicationFilePath@QCoreApplicationPrivate@@SAXABVQString@@@Z @5293
?setApplicationName@QCoreApplication@@SAXABVQString@@@Z @5294
?setApplicationVersion@QCoreApplication@@SAXABVQString@@@Z @5295
?setArguments@QProcess@@QAEXABVQStringList@@@Z @5296
?setArray@QJsonDocument@@QAEXABVQJsonArray@@@Z @5297
?setArrayIndex@QSettings@@QAEXH@Z @5298
?setAttribute@QCoreApplication@@SAXW4ApplicationAttribute@Qt@@_N@Z @5299
?setAttributes@QMetaMethodBuilder@@QAEXH@Z @5300
?setAuthority@QUrl@@QAEXABVQString@@W4ParsingMode@1@@Z @5301
?setAutoDetectUnicode@QTextStream@@QAEX_N@Z @5302
?setAutoFormatting@QXmlStreamWriter@@QAEX_N@Z @5303
?setAutoFormattingIndent@QXmlStreamWriter@@QAEXH@Z @5304
?setAutoInsertSpaces@QDebug@@QAEX_N@Z @5305
?setAutoRemove@QTemporaryDir@@QAEX_N@Z @5306
?setAutoRemove@QTemporaryFile@@QAEX_N@Z @5307
?setBit@QBitArray@@QAEXH@Z @5308
?setBit@QBitArray@@QAEXH_N@Z @5309
?setBottom@QRect@@QAEXH@Z @5310
?setBottom@QRectF@@QAEXN@Z @5311
?setBottomLeft@QRect@@QAEXABVQPoint@@@Z @5312
?setBottomLeft@QRectF@@QAEXABVQPointF@@@Z @5313
?setBottomRight@QRect@@QAEXABVQPoint@@@Z @5314
?setBottomRight@QRectF@@QAEXABVQPointF@@@Z @5315
?setBuffer@QBuffer@@QAEXPAVQByteArray@@@Z @5316
?setByteOrder@QDataStream@@QAEXW4ByteOrder@1@@Z @5317
?setCaching@QFileInfo@@QAEX_N@Z @5318
?setCaseSensitivity@QCollator@@QAEXW4CaseSensitivity@Qt@@@Z @5319
?setCaseSensitivity@QRegExp@@QAEXW4CaseSensitivity@Qt@@@Z @5320
?setCaseSensitivity@QStringMatcher@@QAEXW4CaseSensitivity@Qt@@@Z @5321
?setCell@QChar@@QAEXE@Z @5322
?setCell@QCharRef@@QAEXE@Z @5323
?setChildMode@QState@@QAEXW4ChildMode@1@@Z @5324
?setClassName@QMetaObjectBuilder@@QAEXABVQByteArray@@@Z @5325
?setCodec@QTextStream@@QAEXPAVQTextCodec@@@Z @5326
?setCodec@QTextStream@@QAEXPBD@Z @5327
?setCodec@QXmlStreamWriter@@QAEXPAVQTextCodec@@@Z @5328
?setCodec@QXmlStreamWriter@@QAEXPBD@Z @5329
?setCodecForLocale@QTextCodec@@SAXPAV1@@Z @5330
?setColor@QMapNodeBase@@QAEXW4Color@1@@Z @5331
?setColorData@QMimeData@@QAEXABVQVariant@@@Z @5332
?setConsistentTiming@QUnifiedTimer@@QAEX_N@Z @5333
?setConstant@QMetaPropertyBuilder@@QAEX_N@Z @5334
?setCoords@QRect@@QAEXHHHH@Z @5335
?setCoords@QRectF@@QAEXNNNN@Z @5336
?setCurrent@QDir@@SA_NABVQString@@@Z @5337
?setCurrentIndex@QItemSelectionModel@@UAEXABVQModelIndex@@V?$QFlags@W4SelectionFlag@QItemSelectionModel@@@@@Z @5338
?setCurrentPath@QFSFileEngine@@SA_NABVQString@@@Z @5339
?setCurrentSender@QObjectPrivate@@SAPAUSender@1@PAVQObject@@PAU21@@Z @5340
?setCurrentTime@QAbstractAnimation@@QAEXH@Z @5341
?setCurrentTime@QTimeLine@@QAEXH@Z @5342
?setCurveShape@QTimeLine@@QAEXW4CurveShape@1@@Z @5343
?setCustomType@QEasingCurve@@QAEXP6ANN@Z@Z @5344
?setData@QAbstractItemModel@@UAE_NABVQModelIndex@@ABVQVariant@@H@Z @5345
?setData@QAbstractProxyModel@@UAE_NABVQModelIndex@@ABVQVariant@@H@Z @5346
?setData@QBuffer@@QAEXABVQByteArray@@@Z @5347
?setData@QBuffer@@QAEXPBDH@Z @5348
?setData@QMimeData@@QAEXABVQString@@ABVQByteArray@@@Z @5349
?setData@QSortFilterProxyModel@@UAE_NABVQModelIndex@@ABVQVariant@@H@Z @5350
?setData@QStringListModel@@UAE_NABVQModelIndex@@ABVQVariant@@H@Z @5351
?setDate@QDate@@QAE_NHHH@Z @5352
?setDate@QDateTime@@QAEXABVQDate@@@Z @5353
?setDecodingFunction@QFile@@SAXP6A?AVQString@@ABVQByteArray@@@Z@Z @5354
?setDefault@QLocale@@SAXABV1@@Z @5355
?setDefaultFormat@QSettings@@SAXW4Format@1@@Z @5356
?setDefaultState@QHistoryState@@QAEXPAVQAbstractState@@@Z @5357
?setDefaultValue@QCommandLineOption@@QAEXABVQString@@@Z @5358
?setDefaultValues@QCommandLineOption@@QAEXABVQStringList@@@Z @5359
?setDescription@QCommandLineOption@@QAEXABVQString@@@Z @5360
?setDesignable@QMetaPropertyBuilder@@QAEX_N@Z @5361
?setDevice@QDataStream@@QAEXPAVQIODevice@@@Z @5362
?setDevice@QTextStream@@QAEXPAVQIODevice@@@Z @5363
?setDevice@QXmlStreamReader@@QAEXPAVQIODevice@@@Z @5364
?setDevice@QXmlStreamWriter@@QAEXPAVQIODevice@@@Z @5365
?setDigit@QDateTimeParser@@QBE_NAAVQDateTime@@HH@Z @5366
?setDirectWriteFallback@QSaveFile@@QAEX_N@Z @5367
?setDirection@QAbstractAnimation@@QAEXW4Direction@1@@Z @5368
?setDirection@QTimeLine@@QAEXW4Direction@1@@Z @5369
?setDuration@QPauseAnimation@@QAEXH@Z @5370
?setDuration@QTimeLine@@QAEXH@Z @5371
?setDuration@QVariantAnimation@@QAEXH@Z @5372
?setDynamicSortFilter@QSortFilterProxyModel@@QAEX_N@Z @5373
?setEasingCurve@QTimeLine@@QAEXABVQEasingCurve@@@Z @5374
?setEasingCurve@QVariantAnimation@@QAEXABVQEasingCurve@@@Z @5375
?setEditable@QMetaPropertyBuilder@@QAEX_N@Z @5376
?setEnabled@QLoggingCategory@@QAEXW4QtMsgType@@_N@Z @5377
?setEnabled@QSocketNotifier@@QAEX_N@Z @5378
?setEnabled@QWinEventNotifier@@QAEX_N@Z @5379
?setEnabled@QWinOverlappedIoNotifier@@QAEX_N@Z @5380
?setEncodedFragment@QUrl@@QAEXABVQByteArray@@@Z @5381
?setEncodedHost@QUrl@@QAEXABVQByteArray@@@Z @5382
?setEncodedPassword@QUrl@@QAEXABVQByteArray@@@Z @5383
?setEncodedPath@QUrl@@QAEXABVQByteArray@@@Z @5384
?setEncodedQuery@QUrl@@QAEXABVQByteArray@@@Z @5385
?setEncodedQueryItems@QUrl@@QAEXABV?$QList@U?$QPair@VQByteArray@@V1@@@@@@Z @5386
?setEncodedUrl@QUrl@@QAEXABVQByteArray@@W4ParsingMode@1@@Z @5387
?setEncodedUserName@QUrl@@QAEXABVQByteArray@@@Z @5388
?setEncodingFunction@QFile@@SAXP6A?AVQByteArray@@ABVQString@@@Z@Z @5389
?setEndFrame@QTimeLine@@QAEXH@Z @5390
?setEndValue@QVariantAnimation@@QAEXABVQVariant@@@Z @5391
?setEntityResolver@QXmlStreamReader@@QAEXPAVQXmlStreamEntityResolver@@@Z @5392
?setEnumOrFlag@QMetaPropertyBuilder@@QAEX_N@Z @5393
?setEnvironment@QProcess@@QAEXABVQStringList@@@Z @5394
?setError@QAbstractFileEngine@@IAEXW4FileError@QFileDevice@@ABVQString@@@Z @5395
?setError@QStateMachinePrivate@@QAEXW4Error@QStateMachine@@PAVQAbstractState@@@Z @5396
?setErrorState@QState@@QAEXPAVQAbstractState@@@Z @5397
?setErrorString@QIODevice@@IAEXABVQString@@@Z @5398
?setEventDispatcher@QCoreApplication@@SAXPAVQAbstractEventDispatcher@@@Z @5399
?setEventDispatcher@QThread@@QAEXPAVQAbstractEventDispatcher@@@Z @5400
?setEventSource@QEventTransition@@QAEXPAVQObject@@@Z @5401
?setEventSpontaneous@QCoreApplicationPrivate@@SAXPAVQEvent@@_N@Z @5402
?setEventType@QEventTransition@@QAEXW4Type@QEvent@@@Z @5403
?setException@ExceptionStore@QtPrivate@@QAEXABVQException@@@Z @5404
?setExpectedResultCount@QFutureInterfaceBase@@QAEXH@Z @5405
?setExpiryTimeout@QThreadPool@@QAEXH@Z @5406
?setExtraSelectors@QFileSelector@@QAEXABVQStringList@@@Z @5407
?setFallbacksEnabled@QSettings@@QAEX_N@Z @5408
?setFieldAlignment@QTextStream@@QAEXW4FieldAlignment@1@@Z @5409
?setFieldWidth@QTextStream@@QAEXH@Z @5410
?setFile@QFileInfo@@QAEXABVQDir@@ABVQString@@@Z @5411
?setFile@QFileInfo@@QAEXABVQFile@@@Z @5412
?setFile@QFileInfo@@QAEXABVQString@@@Z @5413
?setFileName@QAbstractFileEngine@@UAEXABVQString@@@Z @5414
?setFileName@QFSFileEngine@@UAEXABVQString@@@Z @5415
?setFileName@QFile@@QAEXABVQString@@@Z @5416
?setFileName@QLibrary@@QAEXABVQString@@@Z @5417
?setFileName@QPluginLoader@@QAEXABVQString@@@Z @5418
?setFileName@QResource@@QAEXABVQString@@@Z @5419
?setFileName@QSaveFile@@QAEXABVQString@@@Z @5420
?setFileNameAndVersion@QLibrary@@QAEXABVQString@@0@Z @5421
?setFileNameAndVersion@QLibrary@@QAEXABVQString@@H@Z @5422
?setFileTemplate@QTemporaryFile@@QAEXABVQString@@@Z @5423
?setFilter@QDir@@QAEXV?$QFlags@W4Filter@QDir@@@@@Z @5424
?setFilterCaseSensitivity@QSortFilterProxyModel@@QAEXW4CaseSensitivity@Qt@@@Z @5425
?setFilterFixedString@QSortFilterProxyModel@@QAEXABVQString@@@Z @5426
?setFilterKeyColumn@QSortFilterProxyModel@@QAEXH@Z @5427
?setFilterMode@QFutureInterfaceBase@@QAEX_N@Z @5428
?setFilterMode@ResultStoreBase@QtPrivate@@QAEX_N@Z @5429
?setFilterRegExp@QSortFilterProxyModel@@QAEXABVQRegExp@@@Z @5430
?setFilterRegExp@QSortFilterProxyModel@@QAEXABVQString@@@Z @5431
?setFilterRole@QSortFilterProxyModel@@QAEXH@Z @5432
?setFilterRules@QLoggingCategory@@SAXABVQString@@@Z @5433
?setFilterWildcard@QSortFilterProxyModel@@QAEXABVQString@@@Z @5434
?setFinal@QMetaPropertyBuilder@@QAEX_N@Z @5435
?setFlags@QMetaObjectBuilder@@QAEXV?$QFlags@W4MetaObjectFlag@QMetaObjectBuilder@@@@@Z @5436
?setFloatingPointPrecision@QDataStream@@QAEXW4FloatingPointPrecision@1@@Z @5437
?setFragment@QUrl@@QAEXABVQString@@W4ParsingMode@1@@Z @5438
?setFrameRange@QTimeLine@@QAEXHH@Z @5439
?setGenerateByteOrderMark@QTextStream@@QAEX_N@Z @5440
?setGlobalRestorePolicy@QStateMachine@@QAEXW4RestorePolicy@QState@@@Z @5441
?setHMS@QTime@@QAE_NHHHH@Z @5442
?setHandle@QWinEventNotifier@@QAEXPAX@Z @5443
?setHandle@QWinOverlappedIoNotifier@@QAEXPAX@Z @5444
?setHandle@QWindowsPipeReader@@QAEXPAX@Z @5445
?setHeaderData@QAbstractItemModel@@UAE_NHW4Orientation@Qt@@ABVQVariant@@H@Z @5446
?setHeaderData@QAbstractProxyModel@@UAE_NHW4Orientation@Qt@@ABVQVariant@@H@Z @5447
?setHeaderData@QSortFilterProxyModel@@UAE_NHW4Orientation@Qt@@ABVQVariant@@H@Z @5448
?setHeight@QRect@@QAEXH@Z @5449
?setHeight@QRectF@@QAEXN@Z @5450
?setHeight@QSize@@QAEXH@Z @5451
?setHeight@QSizeF@@QAEXN@Z @5452
?setHistoryType@QHistoryState@@QAEXW4HistoryType@1@@Z @5453
?setHost@QUrl@@QAEXABVQString@@W4ParsingMode@1@@Z @5454
?setHtml@QMimeData@@QAEXABVQString@@@Z @5455
?setIdnWhitelist@QUrl@@SAXABVQStringList@@@Z @5456
?setIgnorePunctuation@QCollator@@QAEX_N@Z @5457
?setImageData@QMimeData@@QAEXABVQVariant@@@Z @5458
?setIniCodec@QSettings@@QAEXPAVQTextCodec@@@Z @5459
?setIniCodec@QSettings@@QAEXPBD@Z @5460
?setInitialState@QState@@QAEXPAVQAbstractState@@@Z @5461
?setInputChannelMode@QProcess@@QAEXW4InputChannelMode@1@@Z @5462
?setIntegerBase@QTextStream@@QAEXH@Z @5463
?setInterval@QTimer@@QAEXH@Z @5464
?setIsFlag@QMetaEnumBuilder@@QAEX_N@Z @5465
?setItemData@QAbstractItemModel@@UAE_NABVQModelIndex@@ABV?$QMap@HVQVariant@@@@@Z @5466
?setItemData@QAbstractProxyModel@@UAE_NABVQModelIndex@@ABV?$QMap@HVQVariant@@@@@Z @5467
?setKey@QMessageAuthenticationCode@@QAEXABVQByteArray@@@Z @5468
?setKey@QSharedMemory@@QAEXABVQString@@@Z @5469
?setKey@QSystemSemaphore@@QAEXABVQString@@HW4AccessMode@1@@Z @5470
?setKeyValueAt@QVariantAnimation@@QAEXNABVQVariant@@@Z @5471
?setKeyValues@QVariantAnimation@@QAEXABV?$QVector@U?$QPair@NVQVariant@@@@@@@Z @5472
?setLeft@QRect@@QAEXH@Z @5473
?setLeft@QRectF@@QAEXN@Z @5474
?setLength@QLineF@@QAEXN@Z @5475
?setLibraryPaths@QCoreApplication@@SAXABVQStringList@@@Z @5476
?setLine@QLine@@QAEXHHHH@Z @5477
?setLine@QLineF@@QAEXNNNN@Z @5478
?setLoadHints@QLibrary@@QAEXV?$QFlags@W4LoadHint@QLibrary@@@@@Z @5479
?setLoadHints@QPluginLoader@@QAEXV?$QFlags@W4LoadHint@QLibrary@@@@@Z @5480
?setLocale@QCollator@@QAEXABVQLocale@@@Z @5481
?setLocale@QResource@@QAEXABVQLocale@@@Z @5482
?setLocale@QTextStream@@QAEXABVQLocale@@@Z @5483
?setLoopCount@QAbstractAnimation@@QAEXH@Z @5484
?setLoopCount@QTimeLine@@QAEXH@Z @5485
?setMSecsSinceEpoch@QDateTime@@QAEX_J@Z @5486
?setMapping@QSignalMapper@@QAEXPAVQObject@@0@Z @5487
?setMapping@QSignalMapper@@QAEXPAVQObject@@ABVQString@@@Z @5488
?setMapping@QSignalMapper@@QAEXPAVQObject@@H@Z @5489
?setMapping@QSignalMapper@@QAEXPAVQObject@@PAVQWidget@@@Z @5490
?setMaxReadBufferSize@QWindowsPipeReader@@QAEX_J@Z @5491
?setMaxThreadCount@QThreadPool@@QAEXH@Z @5492
?setMinimal@QRegExp@@QAEX_N@Z @5493
?setNameFilters@QDir@@QAEXABVQStringList@@@Z @5494
?setNamespaceProcessing@QXmlStreamReader@@QAEX_N@Z @5495
?setNativeArguments@QProcess@@QAEXABVQString@@@Z @5496
?setNativeKey@QSharedMemory@@QAEXABVQString@@@Z @5497
?setNotifySignal@QMetaPropertyBuilder@@QAEXABVQMetaMethodBuilder@@@Z @5498
?setNum@QByteArray@@QAEAAV1@FH@Z @5499
?setNum@QByteArray@@QAEAAV1@GH@Z @5500
?setNum@QByteArray@@QAEAAV1@HH@Z @5501
?setNum@QByteArray@@QAEAAV1@IH@Z @5502
?setNum@QByteArray@@QAEAAV1@MDH@Z @5503
?setNum@QByteArray@@QAEAAV1@NDH@Z @5504
?setNum@QByteArray@@QAEAAV1@_JH@Z @5505
?setNum@QByteArray@@QAEAAV1@_KH@Z @5506
?setNum@QString@@QAEAAV1@FH@Z @5507
?setNum@QString@@QAEAAV1@GH@Z @5508
?setNum@QString@@QAEAAV1@HH@Z @5509
?setNum@QString@@QAEAAV1@IH@Z @5510
?setNum@QString@@QAEAAV1@JH@Z @5511
?setNum@QString@@QAEAAV1@KH@Z @5512
?setNum@QString@@QAEAAV1@MDH@Z @5513
?setNum@QString@@QAEAAV1@NDH@Z @5514
?setNum@QString@@QAEAAV1@_JH@Z @5515
?setNum@QString@@QAEAAV1@_KH@Z @5516
?setNumberFlags@QTextStream@@QAEXV?$QFlags@W4NumberFlag@QTextStream@@@@@Z @5517
?setNumberOptions@QLocale@@QAEXV?$QFlags@W4NumberOption@QLocale@@@@@Z @5518
?setNumericMode@QCollator@@QAEX_N@Z @5519
?setObject@QJsonDocument@@QAEXABVQJsonObject@@@Z @5520
?setObjectName@QObject@@QAEXABVQString@@@Z @5521
?setOffsetFromUtc@QDateTime@@QAEXH@Z @5522
?setOpenMode@QIODevice@@IAEXV?$QFlags@W4OpenModeFlag@QIODevice@@@@@Z @5523
?setOrganizationDomain@QCoreApplication@@SAXABVQString@@@Z @5524
?setOrganizationName@QCoreApplication@@SAXABVQString@@@Z @5525
?setOvershoot@QEasingCurve@@QAEXN@Z @5526
?setP1@QLine@@QAEXABVQPoint@@@Z @5527
?setP1@QLineF@@QAEXABVQPointF@@@Z @5528
?setP2@QLine@@QAEXABVQPoint@@@Z @5529
?setP2@QLineF@@QAEXABVQPointF@@@Z @5530
?setPadChar@QTextStream@@QAEXVQChar@@@Z @5531
?setParameterNames@QMetaMethodBuilder@@QAEXABV?$QList@VQByteArray@@@@@Z @5532
?setParent@QMapNodeBase@@QAEXPAU1@@Z @5533
?setParent@QObject@@QAEXPAV1@@Z @5534
?setParent_helper@QObjectPrivate@@QAEXPAVQObject@@@Z @5535
?setPassword@QUrl@@QAEXABVQString@@W4ParsingMode@1@@Z @5536
?setPath@QAbstractFileEngineIterator@@AAEXABVQString@@@Z @5537
?setPath@QDir@@QAEXABVQString@@@Z @5538
?setPath@QSettings@@SAXW4Format@1@W4Scope@1@ABVQString@@@Z @5539
?setPath@QStorageInfo@@QAEXABVQString@@@Z @5540
?setPath@QUrl@@QAEXABVQString@@W4ParsingMode@1@@Z @5541
?setPattern@QByteArrayMatcher@@QAEXABVQByteArray@@@Z @5542
?setPattern@QRegExp@@QAEXABVQString@@@Z @5543
?setPattern@QRegularExpression@@QAEXABVQString@@@Z @5544
?setPattern@QStringMatcher@@QAEXABVQString@@@Z @5545
?setPatternOptions@QRegularExpression@@QAEXV?$QFlags@W4PatternOption@QRegularExpression@@@@@Z @5546
?setPatternSyntax@QRegExp@@QAEXW4PatternSyntax@1@@Z @5547
?setPaused@QAbstractAnimation@@QAEX_N@Z @5548
?setPaused@QFutureInterfaceBase@@QAEX_N@Z @5549
?setPaused@QFutureWatcherBase@@QAEX_N@Z @5550
?setPaused@QTimeLine@@QAEX_N@Z @5551
?setPendingResultsLimit@QFutureWatcherBase@@QAEXH@Z @5552
?setPeriod@QEasingCurve@@QAEXN@Z @5553
?setPermissions@QAbstractFileEngine@@UAE_NI@Z @5554
?setPermissions@QFSFileEngine@@UAE_NI@Z @5555
?setPermissions@QFile@@SA_NABVQString@@V?$QFlags@W4Permission@QFileDevice@@@@@Z @5556
?setPermissions@QFile@@UAE_NV?$QFlags@W4Permission@QFileDevice@@@@@Z @5557
?setPermissions@QFileDevice@@UAE_NV?$QFlags@W4Permission@QFileDevice@@@@@Z @5558
?setPoints@QLine@@QAEXABVQPoint@@0@Z @5559
?setPoints@QLineF@@QAEXABVQPointF@@0@Z @5560
?setPort@QUrl@@QAEXH@Z @5561
?setPosition@QTextBoundaryFinder@@QAEXH@Z @5562
?setPriority@QThread@@QAEXW4Priority@1@@Z @5563
?setProcessChannelMode@QProcess@@QAEXW4ProcessChannelMode@1@@Z @5564
?setProcessEnvironment@QProcess@@QAEXABVQProcessEnvironment@@@Z @5565
?setProcessState@QProcess@@IAEXW4ProcessState@1@@Z @5566
?setProgram@QProcess@@QAEXABVQString@@@Z @5567
?setProgressRange@QFutureInterfaceBase@@QAEXHH@Z @5568
?setProgressValue@QFutureInterfaceBase@@QAEXH@Z @5569
?setProgressValueAndText@QFutureInterfaceBase@@QAEXHABVQString@@@Z @5570
?setProperty@QObject@@QAE_NPBDABVQVariant@@@Z @5571
?setPropertyName@QPropertyAnimation@@QAEXABVQByteArray@@@Z @5572
?setQObjectShared@ExternalRefCountData@QtSharedPointer@@QAEXPBVQObject@@_N@Z @5573
?setQuery@QUrl@@QAEXABVQString@@W4ParsingMode@1@@Z @5574
?setQuery@QUrl@@QAEXABVQUrlQuery@@@Z @5575
?setQuery@QUrlQuery@@QAEXABVQString@@@Z @5576
?setQueryDelimiters@QUrlQuery@@QAEXVQChar@@0@Z @5577
?setQueryItems@QUrl@@QAEXABV?$QList@U?$QPair@VQString@@V1@@@@@@Z @5578
?setQueryItems@QUrlQuery@@QAEXABV?$QList@U?$QPair@VQString@@V1@@@@@@Z @5579
?setQuitLockEnabled@QCoreApplication@@SAX_N@Z @5580
?setRawData@QByteArray@@QAEAAV1@PBDI@Z @5581
?setRawData@QString@@QAEAAV1@PBVQChar@@H@Z @5582
?setReadChannel@QProcess@@QAEXW4ProcessChannel@1@@Z @5583
?setReadChannelMode@QProcess@@QAEXW4ProcessChannelMode@1@@Z @5584
?setReadable@QMetaPropertyBuilder@@QAEX_N@Z @5585
?setRealNumberNotation@QTextStream@@QAEXW4RealNumberNotation@1@@Z @5586
?setRealNumberPrecision@QTextStream@@QAEXH@Z @5587
?setRect@QRect@@QAEXHHHH@Z @5588
?setRect@QRectF@@QAEXNNNN@Z @5589
?setResettable@QMetaPropertyBuilder@@QAEX_N@Z @5590
?setReturnType@QMetaMethodBuilder@@QAEXABVQByteArray@@@Z @5591
?setRevision@QMetaMethodBuilder@@QAEXH@Z @5592
?setRevision@QMetaPropertyBuilder@@QAEXH@Z @5593
?setRight@QRect@@QAEXH@Z @5594
?setRight@QRectF@@QAEXN@Z @5595
?setRoleNames@QAbstractItemModel@@IAEXABV?$QHash@HVQByteArray@@@@@Z @5596
?setRow@QChar@@QAEXE@Z @5597
?setRow@QCharRef@@QAEXE@Z @5598
?setRunnable@QFutureInterfaceBase@@QAEXPAVQRunnable@@@Z @5599
?setRunning@QStateMachine@@QAEX_N@Z @5600
?setScheme@QUrl@@QAEXABVQString@@@Z @5601
?setScriptable@QMetaPropertyBuilder@@QAEX_N@Z @5602
?setSearchPaths@QDir@@SAXABVQString@@ABVQStringList@@@Z @5603
?setSenderObject@QSignalTransition@@QAEXPBVQObject@@@Z @5604
?setSetuidAllowed@QCoreApplication@@SAX_N@Z @5605
?setSharable@?$QList@VQItemSelectionRange@@@@QAEX_N@Z @5606
?setSharable@?$QVector@VQPoint@@@@QAEX_N@Z @5607
?setSharable@?$QVector@VQPointF@@@@QAEX_N@Z @5608
?setSharable@?$QVector@VQXmlStreamAttribute@@@@QAEX_N@Z @5609
?setSignal@QSignalTransition@@QAEXABVQByteArray@@@Z @5610
?setSingleDashWordOptionMode@QCommandLineParser@@QAEXW4SingleDashWordOptionMode@1@@Z @5611
?setSingleShot@QTimer@@QAEX_N@Z @5612
?setSize@QAbstractFileEngine@@UAE_N_J@Z @5613
?setSize@QFSFileEngine@@UAE_N_J@Z @5614
?setSize@QRect@@QAEXABVQSize@@@Z @5615
?setSize@QRectF@@QAEXABVQSizeF@@@Z @5616
?setSlowModeEnabled@QUnifiedTimer@@QAEX_N@Z @5617
?setSlowdownFactor@QUnifiedTimer@@QAEXN@Z @5618
?setSortCaseSensitivity@QSortFilterProxyModel@@QAEXW4CaseSensitivity@Qt@@@Z @5619
?setSortLocaleAware@QSortFilterProxyModel@@QAEX_N@Z @5620
?setSortRole@QSortFilterProxyModel@@QAEXH@Z @5621
?setSorting@QDir@@QAEXV?$QFlags@W4SortFlag@QDir@@@@@Z @5622
?setSourceModel@QAbstractProxyModel@@UAEXPAVQAbstractItemModel@@@Z @5623
?setSourceModel@QIdentityProxyModel@@UAEXPAVQAbstractItemModel@@@Z @5624
?setSourceModel@QSortFilterProxyModel@@UAEXPAVQAbstractItemModel@@@Z @5625
?setStackSize@QThread@@QAEXI@Z @5626
?setStaleLockTime@QLockFile@@QAEXH@Z @5627
?setStandardErrorFile@QProcess@@QAEXABVQString@@V?$QFlags@W4OpenModeFlag@QIODevice@@@@@Z @5628
?setStandardInputFile@QProcess@@QAEXABVQString@@@Z @5629
?setStandardOutputFile@QProcess@@QAEXABVQString@@V?$QFlags@W4OpenModeFlag@QIODevice@@@@@Z @5630
?setStandardOutputProcess@QProcess@@QAEXPAV1@@Z @5631
?setStartFrame@QTimeLine@@QAEXH@Z @5632
?setStartTime@QAnimationDriver@@QAEX_J@Z @5633
?setStartValue@QVariantAnimation@@QAEXABVQVariant@@@Z @5634
?setStaticMetacallFunction@QMetaObjectBuilder@@QAEXP6AXPAVQObject@@W4Call@QMetaObject@@HPAPAX@Z@Z @5635
?setStatus@QDataStream@@QAEXW4Status@1@@Z @5636
?setStatus@QTextStream@@QAEXW4Status@1@@Z @5637
?setStdCppSet@QMetaPropertyBuilder@@QAEX_N@Z @5638
?setStored@QMetaPropertyBuilder@@QAEX_N@Z @5639
?setString@QTextStream@@QAEXPAVQString@@V?$QFlags@W4OpenModeFlag@QIODevice@@@@@Z @5640
?setStringList@QStringListModel@@QAEXABVQStringList@@@Z @5641
?setSuperClass@QMetaObjectBuilder@@QAEXPBUQMetaObject@@@Z @5642
?setSupportedDragActions@QAbstractItemModel@@QAEXV?$QFlags@W4DropAction@Qt@@@@@Z @5643
?setSystemIniPath@QSettings@@SAXABVQString@@@Z @5644
?setTag@QMetaMethodBuilder@@QAEXABVQByteArray@@@Z @5645
?setTargetObject@QPropertyAnimation@@QAEXPAVQObject@@@Z @5646
?setTargetState@QAbstractTransition@@QAEXPAVQAbstractState@@@Z @5647
?setTargetStates@QAbstractTransition@@QAEXABV?$QList@PAVQAbstractState@@@@@Z @5648
?setTerminationEnabled@QThread@@KAX_N@Z @5649
?setTestModeEnabled@QStandardPaths@@SAX_N@Z @5650
?setText@QMimeData@@QAEXABVQString@@@Z @5651
?setTextModeEnabled@QIODevice@@QAEX_N@Z @5652
?setThreadData_helper@QObjectPrivate@@QAEXPAVQThreadData@@0@Z @5653
?setThreadPool@QFutureInterfaceBase@@QAEXPAVQThreadPool@@@Z @5654
?setThrottled@QFutureInterfaceBase@@QAEX_N@Z @5655
?setTime@QDateTime@@QAEXABVQTime@@@Z @5656
?setTimeSpec@QDateTime@@QAEXW4TimeSpec@Qt@@@Z @5657
?setTimeZone@QDateTime@@QAEXABVQTimeZone@@@Z @5658
?setTime_t@QDateTime@@QAEXI@Z @5659
?setTimerType@QTimer@@QAEXW4TimerType@Qt@@@Z @5660
?setTimingInterval@QUnifiedTimer@@QAEXH@Z @5661
?setTop@QRect@@QAEXH@Z @5662
?setTop@QRectF@@QAEXN@Z @5663
?setTopLeft@QRect@@QAEXABVQPoint@@@Z @5664
?setTopLeft@QRectF@@QAEXABVQPointF@@@Z @5665
?setTopRight@QRect@@QAEXABVQPoint@@@Z @5666
?setTopRight@QRectF@@QAEXABVQPointF@@@Z @5667
?setType@QEasingCurve@@QAEXW4Type@1@@Z @5668
?setUnicode@QString@@QAEAAV1@PBVQChar@@H@Z @5669
?setUpdateInterval@QTimeLine@@QAEXH@Z @5670
?setUrl@QUrl@@QAEXABVQString@@W4ParsingMode@1@@Z @5671
?setUrls@QMimeData@@QAEXABV?$QList@VQUrl@@@@@Z @5672
?setUser@QMetaPropertyBuilder@@QAEX_N@Z @5673
?setUserData@QObject@@QAEXIPAVQObjectUserData@@@Z @5674
?setUserInfo@QUrl@@QAEXABVQString@@W4ParsingMode@1@@Z @5675
?setUserIniPath@QSettings@@SAXABVQString@@@Z @5676
?setUserName@QUrl@@QAEXABVQString@@W4ParsingMode@1@@Z @5677
?setUtcOffset@QDateTime@@QAEXH@Z @5678
?setUtf16@QString@@QAEAAV1@PBGH@Z @5679
?setValue@QSettings@@QAEXABVQString@@ABVQVariant@@@Z @5680
?setValueAt@QJsonObject@@AAEXHABVQJsonValue@@@Z @5681
?setValueName@QCommandLineOption@@QAEXABVQString@@@Z @5682
?setVersion@QDataStream@@QAEXH@Z @5683
?setWidth@QRect@@QAEXH@Z @5684
?setWidth@QRectF@@QAEXN@Z @5685
?setWidth@QSize@@QAEXH@Z @5686
?setWidth@QSizeF@@QAEXN@Z @5687
?setWorkingDirectory@QProcess@@QAEXABVQString@@@Z @5688
?setWritable@QMetaPropertyBuilder@@QAEX_N@Z @5689
?setX@QPoint@@QAEXH@Z @5690
?setX@QPointF@@QAEXN@Z @5691
?setX@QRect@@QAEXH@Z @5692
?setX@QRectF@@QAEXN@Z @5693
?setY@QPoint@@QAEXH@Z @5694
?setY@QPointF@@QAEXN@Z @5695
?setY@QRect@@QAEXH@Z @5696
?setY@QRectF@@QAEXN@Z @5697
?setYMD@QDate@@QAE_NHHH@Z @5698
?setuidAllowed@QCoreApplicationPrivate@@2_NA @5699
?setupChildProcess@QProcess@@MAEXXZ @5700
?sharedNull@QArrayData@@SAPAU1@XZ @5701
?sharedPointerFromVariant_internal@QtSharedPointer@@YA?AV?$QSharedPointer@VQObject@@@@ABVQVariant@@@Z @5702
?shared_null@QArrayData@@2QBU1@B @5703
?shared_null@QHashData@@2U1@B @5704
?shared_null@QLinkedListData@@2U1@B @5705
?shared_null@QListData@@2UData@1@B @5706
?shared_null@QMapDataBase@@2U1@B @5707
?shortDayName@QDate@@SA?AVQString@@HW4MonthNameType@1@@Z @5708
?shortMonthName@QDate@@SA?AVQString@@HW4MonthNameType@1@@Z @5709
?shouldQuit@QCoreApplicationPrivate@@UAE_NXZ @5710
?showHelp@QCommandLineParser@@QAEXH@Z @5711
?showVersion@QCommandLineParser@@QAEXXZ @5712
?showbase@@YAAAVQTextStream@@AAV1@@Z @5713
?sibling@QAbstractItemModel@@UBE?AVQModelIndex@@HHABV2@@Z @5714
?sibling@QAbstractProxyModel@@UBE?AVQModelIndex@@HHABV2@@Z @5715
?sibling@QIdentityProxyModel@@UBE?AVQModelIndex@@HHABV2@@Z @5716
?sibling@QModelIndex@@QBE?AV1@HH@Z @5717
?sibling@QPersistentModelIndex@@QBE?AVQModelIndex@@HH@Z @5718
?sibling@QSortFilterProxyModel@@UBE?AVQModelIndex@@HHABV2@@Z @5719
?sibling@QStringListModel@@UBE?AVQModelIndex@@HHABV2@@Z @5720
?signal@QMetaObjectPrivate@@SA?AVQMetaMethod@@PBUQMetaObject@@H@Z @5721
?signal@QSignalTransition@@QBE?AVQByteArray@@XZ @5722
?signalChanged@QSignalTransition@@QAEXUQPrivateSignal@1@@Z @5723
?signalEmitted@QAbstractDeclarativeData@@2P6AXPAV1@PAVQObject@@HPAPAX@ZA @5724
?signalId@QMetaCallEvent@@QBEHXZ @5725
?signalIndex@QMetaObjectPrivate@@SAHABVQMetaMethod@@@Z @5726
?signalIndex@QObjectPrivate@@QBEHPBDPAPBUQMetaObject@@@Z @5727
?signalIndex@SignalEvent@QStateMachine@@QBEHXZ @5728
?signalOffset@QMetaObjectPrivate@@SAHPBUQMetaObject@@@Z @5729
?signalsBlocked@QObject@@QBE_NXZ @5730
?signature@QMetaMethodBuilder@@QBE?AVQByteArray@@XZ @5731
?simplified@QByteArray@@QBE?AV1@XZ @5732
?simplified@QString@@QBE?AV1@XZ @5733
?singleShot@QTimer@@SAXHPBVQObject@@PBD@Z @5734
?singleShot@QTimer@@SAXHW4TimerType@Qt@@PBVQObject@@PBD@Z @5735
?singleShotImpl@QTimer@@CAXHW4TimerType@Qt@@PBVQObject@@PAVQSlotObjectBase@QtPrivate@@@Z @5736
?size@?$QList@VQItemSelectionRange@@@@QBEHXZ @5737
?size@?$QVector@VQPoint@@@@QBEHXZ @5738
?size@?$QVector@VQPointF@@@@QBEHXZ @5739
?size@?$QVector@VQXmlStreamAttribute@@@@QBEHXZ @5740
?size@QAbstractFileEngine@@UBE_JXZ @5741
?size@QAssociativeIterable@@QBEHXZ @5742
?size@QBitArray@@QBEHXZ @5743
?size@QBuffer@@UBE_JXZ @5744
?size@QByteArray@@QBEHXZ @5745
?size@QFSFileEngine@@UBE_JXZ @5746
?size@QFile@@UBE_JXZ @5747
?size@QFileDevice@@UBE_JXZ @5748
?size@QFileInfo@@QBE_JXZ @5749
?size@QIODevice@@UBE_JXZ @5750
?size@QJsonArray@@QBEHXZ @5751
?size@QJsonObject@@QBEHXZ @5752
?size@QListData@@QBEHXZ @5753
?size@QRect@@QBE?AVQSize@@XZ @5754
?size@QRectF@@QBE?AVQSizeF@@XZ @5755
?size@QResource@@QBE_JXZ @5756
?size@QSequentialIterable@@QBEHXZ @5757
?size@QSharedMemory@@QBEHXZ @5758
?size@QString@@QBEHXZ @5759
?size@QStringRef@@QBEHXZ @5760
?size@QXmlStreamStringRef@@QBEHXZ @5761
?sizeExtended@QMetaType@@ABEIXZ @5762
?sizeOf@QMetaType@@QBEHXZ @5763
?sizeOf@QMetaType@@SAHH@Z @5764
?skipCurrentElement@QXmlStreamReader@@QAEXXZ @5765
?skipRawData@QDataStream@@QAEHH@Z @5766
?skipToNextSection@QDateTimeParser@@QBE_NHABVQDateTime@@ABVQString@@@Z @5767
?skipWhiteSpace@QTextStream@@QAEXXZ @5768
?sleep@QThread@@SAXK@Z @5769
?socket@QSocketNotifier@@QBEHXZ @5770
?sort@QAbstractItemModel@@UAEXHW4SortOrder@Qt@@@Z @5771
?sort@QAbstractProxyModel@@UAEXHW4SortOrder@Qt@@@Z @5772
?sort@QSortFilterProxyModel@@UAEXHW4SortOrder@Qt@@@Z @5773
?sort@QStringListModel@@UAEXHW4SortOrder@Qt@@@Z @5774
?sortCaseSensitivity@QSortFilterProxyModel@@QBE?AW4CaseSensitivity@Qt@@XZ @5775
?sortColumn@QSortFilterProxyModel@@QBEHXZ @5776
?sortKey@QCollator@@QBE?AVQCollatorSortKey@@ABVQString@@@Z @5777
?sortOrder@QSortFilterProxyModel@@QBE?AW4SortOrder@Qt@@XZ @5778
?sortRole@QSortFilterProxyModel@@QBEHXZ @5779
?sorting@QDir@@QBE?AV?$QFlags@W4SortFlag@QDir@@@@XZ @5780
?sourceModel@QAbstractProxyModel@@QBEPAVQAbstractItemModel@@XZ @5781
?sourceModelChanged@QAbstractProxyModel@@QAEXUQPrivateSignal@1@@Z @5782
?sourceState@QAbstractTransition@@QBEPAVQState@@XZ @5783
?sourceState@QAbstractTransitionPrivate@@QBEPAVQState@@XZ @5784
?space@QDebug@@QAEAAV1@XZ @5785
?span@QAbstractItemModel@@UBE?AVQSize@@ABVQModelIndex@@@Z @5786
?span@QAbstractProxyModel@@UBE?AVQSize@@ABVQModelIndex@@@Z @5787
?span@QSortFilterProxyModel@@UBE?AVQSize@@ABVQModelIndex@@@Z @5788
?split@QByteArray@@QBE?AV?$QList@VQByteArray@@@@D@Z @5789
?split@QItemSelection@@SAXABVQItemSelectionRange@@0PAV1@@Z @5790
?split@QString@@QBE?AVQStringList@@ABV1@W4SplitBehavior@1@W4CaseSensitivity@Qt@@@Z @5791
?split@QString@@QBE?AVQStringList@@ABVQRegExp@@W4SplitBehavior@1@@Z @5792
?split@QString@@QBE?AVQStringList@@ABVQRegularExpression@@W4SplitBehavior@1@@Z @5793
?split@QString@@QBE?AVQStringList@@VQChar@@W4SplitBehavior@1@W4CaseSensitivity@Qt@@@Z @5794
?split@QStringRef@@QBE?AV?$QVector@VQStringRef@@@@ABVQString@@W4SplitBehavior@3@W4CaseSensitivity@Qt@@@Z @5795
?split@QStringRef@@QBE?AV?$QVector@VQStringRef@@@@VQChar@@W4SplitBehavior@QString@@W4CaseSensitivity@Qt@@@Z @5796
?splitRef@QString@@QBE?AV?$QVector@VQStringRef@@@@ABV1@W4SplitBehavior@1@W4CaseSensitivity@Qt@@@Z @5797
?splitRef@QString@@QBE?AV?$QVector@VQStringRef@@@@ABVQRegExp@@W4SplitBehavior@1@@Z @5798
?splitRef@QString@@QBE?AV?$QVector@VQStringRef@@@@ABVQRegularExpression@@W4SplitBehavior@1@@Z @5799
?splitRef@QString@@QBE?AV?$QVector@VQStringRef@@@@VQChar@@W4SplitBehavior@1@W4CaseSensitivity@Qt@@@Z @5800
?spontaneous@QEvent@@QBE_NXZ @5801
?sprintf@QString@@QAAAAV1@PBDZZ @5802
?squeeze@?$QVector@VQPoint@@@@QAEXXZ @5803
?squeeze@?$QVector@VQPointF@@@@QAEXXZ @5804
?squeeze@?$QVector@VQXmlStreamAttribute@@@@QAEXXZ @5805
?squeeze@QByteArray@@QAEXXZ @5806
?squeeze@QString@@QAEXXZ @5807
?stackSize@QThread@@QBEIXZ @5808
?staleLockTime@QLockFile@@QBEHXZ @5809
?standaloneDayName@QLocale@@QBE?AVQString@@HW4FormatType@1@@Z @5810
?standaloneMonthName@QLocale@@QBE?AVQString@@HW4FormatType@1@@Z @5811
?standardLocations@QStandardPaths@@SA?AVQStringList@@W4StandardLocation@1@@Z @5812
?standardTimeOffset@QTimeZone@@QBEHABVQDateTime@@@Z @5813
?standardTimeOffset@QTimeZonePrivate@@UBEH_J@Z @5814
?start@QAbstractAnimation@@QAEXW4DeletionPolicy@1@@Z @5815
?start@QAnimationDriver@@MAEXXZ @5816
?start@QBasicTimer@@QAEXHPAVQObject@@@Z @5817
?start@QBasicTimer@@QAEXHW4TimerType@Qt@@PAVQObject@@@Z @5818
?start@QElapsedTimer@@QAEXXZ @5819
?start@QProcess@@QAEXABVQString@@ABVQStringList@@V?$QFlags@W4OpenModeFlag@QIODevice@@@@@Z @5820
?start@QProcess@@QAEXABVQString@@V?$QFlags@W4OpenModeFlag@QIODevice@@@@@Z @5821
?start@QProcess@@QAEXV?$QFlags@W4OpenModeFlag@QIODevice@@@@@Z @5822
?start@QStateMachine@@QAEXXZ @5823
?start@QThread@@QAEXW4Priority@1@@Z @5824
?start@QThreadPool@@QAEXPAVQRunnable@@H@Z @5825
?start@QTime@@QAEXXZ @5826
?start@QTimeLine@@QAEXXZ @5827
?start@QTimer@@QAEXH@Z @5828
?start@QTimer@@QAEXXZ @5829
?startAnimationDriver@QUnifiedTimer@@QAEXXZ @5830
?startAnimationTimer@QUnifiedTimer@@SAXPAVQAbstractAnimationTimer@@@Z @5831
?startAsyncRead@QWindowsPipeReader@@QAEXXZ @5832
?startDetached@QProcess@@SA_NABVQString@@@Z @5833
?startDetached@QProcess@@SA_NABVQString@@ABVQStringList@@0PA_J@Z @5834
?startDetached@QProcess@@SA_NABVQString@@ABVQStringList@@@Z @5835
?startFrame@QTimeLine@@QBEHXZ @5836
?startThread@QThreadPoolPrivate@@QAEXPAVQRunnable@@@Z @5837
?startTime@QAnimationDriver@@QBE_JXZ @5838
?startTimer@QObject@@QAEHHW4TimerType@Qt@@@Z @5839
?startTimer@QTimer@@AAEHH@Z @5840
?startTimers@QUnifiedTimer@@AAEXXZ @5841
?startValue@QVariantAnimation@@QBE?AVQVariant@@XZ @5842
?started@QAnimationDriver@@QAEXXZ @5843
?started@QFutureWatcherBase@@QAEXXZ @5844
?started@QProcess@@QAEXUQPrivateSignal@1@@Z @5845
?started@QStateMachine@@QAEXUQPrivateSignal@1@@Z @5846
?started@QThread@@QAEXUQPrivateSignal@1@@Z @5847
?startingUp@QAbstractEventDispatcher@@UAEXXZ @5848
?startingUp@QCoreApplication@@SA_NXZ @5849
?startingUp@QEventDispatcherWin32@@UAEXXZ @5850
?startsWith@?$QList@VQItemSelectionRange@@@@QBE_NABVQItemSelectionRange@@@Z @5851
?startsWith@?$QVector@VQPoint@@@@QBE_NABVQPoint@@@Z @5852
?startsWith@?$QVector@VQPointF@@@@QBE_NABVQPointF@@@Z @5853
?startsWith@?$QVector@VQXmlStreamAttribute@@@@QBE_NABVQXmlStreamAttribute@@@Z @5854
?startsWith@QByteArray@@QBE_NABV1@@Z @5855
?startsWith@QByteArray@@QBE_ND@Z @5856
?startsWith@QByteArray@@QBE_NPBD@Z @5857
?startsWith@QString@@QBE_NABV1@W4CaseSensitivity@Qt@@@Z @5858
?startsWith@QString@@QBE_NABVQStringRef@@W4CaseSensitivity@Qt@@@Z @5859
?startsWith@QString@@QBE_NVQChar@@W4CaseSensitivity@Qt@@@Z @5860
?startsWith@QString@@QBE_NVQLatin1String@@W4CaseSensitivity@Qt@@@Z @5861
?startsWith@QStringRef@@QBE_NABV1@W4CaseSensitivity@Qt@@@Z @5862
?startsWith@QStringRef@@QBE_NABVQString@@W4CaseSensitivity@Qt@@@Z @5863
?startsWith@QStringRef@@QBE_NVQChar@@W4CaseSensitivity@Qt@@@Z @5864
?startsWith@QStringRef@@QBE_NVQLatin1String@@W4CaseSensitivity@Qt@@@Z @5865
?state@QAbstractAnimation@@QBE?AW4State@1@XZ @5866
?state@QProcess@@QBE?AW4ProcessState@1@XZ @5867
?state@QTimeLine@@QBE?AW4State@1@XZ @5868
?stateChanged@QAbstractAnimation@@QAEXW4State@1@0@Z @5869
?stateChanged@QProcess@@QAEXW4ProcessState@1@UQPrivateSignal@1@@Z @5870
?stateChanged@QTimeLine@@QAEXW4State@1@UQPrivateSignal@1@@Z @5871
?stateEntryLessThan@QStateMachinePrivate@@SA_NPAVQAbstractState@@0@Z @5872
?stateExitLessThan@QStateMachinePrivate@@SA_NPAVQAbstractState@@0@Z @5873
?stateName@QDateTimeParser@@QBE?AVQString@@H@Z @5874
?staticEmptyModel@QAbstractItemModelPrivate@@SAPAVQAbstractItemModel@@XZ @5875
?staticInstances@QPluginLoader@@SA?AV?$QList@PAVQObject@@@@XZ @5876
?staticMetaObject@QAbstractAnimation@@2UQMetaObject@@B @5877
?staticMetaObject@QAbstractAnimationTimer@@2UQMetaObject@@B @5878
?staticMetaObject@QAbstractEventDispatcher@@2UQMetaObject@@B @5879
?staticMetaObject@QAbstractItemModel@@2UQMetaObject@@B @5880
?staticMetaObject@QAbstractListModel@@2UQMetaObject@@B @5881
?staticMetaObject@QAbstractProxyModel@@2UQMetaObject@@B @5882
?staticMetaObject@QAbstractState@@2UQMetaObject@@B @5883
?staticMetaObject@QAbstractTableModel@@2UQMetaObject@@B @5884
?staticMetaObject@QAbstractTransition@@2UQMetaObject@@B @5885
?staticMetaObject@QAnimationDriver@@2UQMetaObject@@B @5886
?staticMetaObject@QAnimationGroup@@2UQMetaObject@@B @5887
?staticMetaObject@QBuffer@@2UQMetaObject@@B @5888
?staticMetaObject@QCoreApplication@@2UQMetaObject@@B @5889
?staticMetaObject@QEasingCurve@@2UQMetaObject@@B @5890
?staticMetaObject@QEvent@@2UQMetaObject@@B @5891
?staticMetaObject@QEventDispatcherWin32@@2UQMetaObject@@B @5892
?staticMetaObject@QEventLoop@@2UQMetaObject@@B @5893
?staticMetaObject@QEventTransition@@2UQMetaObject@@B @5894
?staticMetaObject@QFactoryLoader@@2UQMetaObject@@B @5895
?staticMetaObject@QFile@@2UQMetaObject@@B @5896
?staticMetaObject@QFileDevice@@2UQMetaObject@@B @5897
?staticMetaObject@QFileSelector@@2UQMetaObject@@B @5898
?staticMetaObject@QFileSystemWatcher@@2UQMetaObject@@B @5899
?staticMetaObject@QFinalState@@2UQMetaObject@@B @5900
?staticMetaObject@QFutureWatcherBase@@2UQMetaObject@@B @5901
?staticMetaObject@QHistoryState@@2UQMetaObject@@B @5902
?staticMetaObject@QIODevice@@2UQMetaObject@@B @5903
?staticMetaObject@QIdentityProxyModel@@2UQMetaObject@@B @5904
?staticMetaObject@QItemSelectionModel@@2UQMetaObject@@B @5905
?staticMetaObject@QLibrary@@2UQMetaObject@@B @5906
?staticMetaObject@QLocale@@2UQMetaObject@@B @5907
?staticMetaObject@QMimeData@@2UQMetaObject@@B @5908
?staticMetaObject@QNonContiguousByteDevice@@2UQMetaObject@@B @5909
?staticMetaObject@QObject@@2UQMetaObject@@B @5910
?staticMetaObject@QObjectCleanupHandler@@2UQMetaObject@@B @5911
?staticMetaObject@QParallelAnimationGroup@@2UQMetaObject@@B @5912
?staticMetaObject@QPauseAnimation@@2UQMetaObject@@B @5913
?staticMetaObject@QPluginLoader@@2UQMetaObject@@B @5914
?staticMetaObject@QProcess@@2UQMetaObject@@B @5915
?staticMetaObject@QPropertyAnimation@@2UQMetaObject@@B @5916
?staticMetaObject@QSaveFile@@2UQMetaObject@@B @5917
?staticMetaObject@QSequentialAnimationGroup@@2UQMetaObject@@B @5918
?staticMetaObject@QSettings@@2UQMetaObject@@B @5919
?staticMetaObject@QSharedMemory@@2UQMetaObject@@B @5920
?staticMetaObject@QSignalMapper@@2UQMetaObject@@B @5921
?staticMetaObject@QSignalTransition@@2UQMetaObject@@B @5922
?staticMetaObject@QSocketNotifier@@2UQMetaObject@@B @5923
?staticMetaObject@QSortFilterProxyModel@@2UQMetaObject@@B @5924
?staticMetaObject@QState@@2UQMetaObject@@B @5925
?staticMetaObject@QStateMachine@@2UQMetaObject@@B @5926
?staticMetaObject@QStringListModel@@2UQMetaObject@@B @5927
?staticMetaObject@QTemporaryFile@@2UQMetaObject@@B @5928
?staticMetaObject@QThread@@2UQMetaObject@@B @5929
?staticMetaObject@QThreadPool@@2UQMetaObject@@B @5930
?staticMetaObject@QTimeLine@@2UQMetaObject@@B @5931
?staticMetaObject@QTimer@@2UQMetaObject@@B @5932
?staticMetaObject@QTranslator@@2UQMetaObject@@B @5933
?staticMetaObject@QUnifiedTimer@@2UQMetaObject@@B @5934
?staticMetaObject@QVariantAnimation@@2UQMetaObject@@B @5935
?staticMetaObject@QWinEventNotifier@@2UQMetaObject@@B @5936
?staticMetaObject@QWinOverlappedIoNotifier@@2UQMetaObject@@B @5937
?staticMetaObject@QWindowsPipeReader@@2UQMetaObject@@B @5938
?staticMetaObject@QWindowsPipeWriter@@2UQMetaObject@@B @5939
?staticMetacallFunction@QMetaObjectBuilder@@QBEP6AXPAVQObject@@W4Call@QMetaObject@@HPAPAX@ZXZ @5940
?staticPlugins@QPluginLoader@@SA?AV?$QVector@UQStaticPlugin@@@@XZ @5941
?staticQtMetaObject@QObject@@1UQMetaObject@@B @5942
?static_metacall@QMetaObject@@QBEHW4Call@1@HPAPAX@Z @5943
?status@QDataStream@@QBE?AW4Status@1@XZ @5944
?status@QSettings@@QBE?AW4Status@1@XZ @5945
?status@QTextStream@@QBE?AW4Status@1@XZ @5946
?stealRunnable@QThreadPoolPrivate@@QAEXPAVQRunnable@@@Z @5947
?stop@QAbstractAnimation@@QAEXXZ @5948
?stop@QAnimationDriver@@MAEXXZ @5949
?stop@QBasicTimer@@QAEXXZ @5950
?stop@QStateMachine@@QAEXXZ @5951
?stop@QTimeLine@@QAEXXZ @5952
?stop@QTimer@@QAEXXZ @5953
?stop@QWindowsPipeReader@@QAEXXZ @5954
?stopAnimationDriver@QUnifiedTimer@@QAEXXZ @5955
?stopAnimationTimer@QUnifiedTimer@@SAXPAVQAbstractAnimationTimer@@@Z @5956
?stopTimer@QUnifiedTimer@@AAEXXZ @5957
?stopped@QAnimationDriver@@QAEXXZ @5958
?stopped@QStateMachine@@QAEXUQPrivateSignal@1@@Z @5959
?string@QStringRef@@QBEPBVQString@@XZ @5960
?string@QTextBoundaryFinder@@QBE?AVQString@@XZ @5961
?string@QTextStream@@QBEPAVQString@@XZ @5962
?string@QXmlStreamStringRef@@QBEPBVQString@@XZ @5963
?stringDataFromQStringHelper@QJsonValue@@AAEXABVQString@@@Z @5964
?stringList@QStringListModel@@QBE?AVQStringList@@XZ @5965
?submit@QAbstractItemModel@@UAE_NXZ @5966
?submit@QAbstractProxyModel@@UAE_NXZ @5967
?suffix@QFileInfo@@QBE?AVQString@@XZ @5968
?suffixForFileName@QMimeDatabase@@QBE?AVQString@@ABV2@@Z @5969
?suffixes@QMimeType@@QBE?AVQStringList@@XZ @5970
?superClass@QMetaObject@@QBEPBU1@XZ @5971
?superClass@QMetaObjectBuilder@@QBEPBUQMetaObject@@XZ @5972
?supportedDragActions@QAbstractItemModel@@UBE?AV?$QFlags@W4DropAction@Qt@@@@XZ @5973
?supportedDragActions@QAbstractProxyModel@@UBE?AV?$QFlags@W4DropAction@Qt@@@@XZ @5974
?supportedDropActions@QAbstractItemModel@@UBE?AV?$QFlags@W4DropAction@Qt@@@@XZ @5975
?supportedDropActions@QAbstractProxyModel@@UBE?AV?$QFlags@W4DropAction@Qt@@@@XZ @5976
?supportedDropActions@QSortFilterProxyModel@@UBE?AV?$QFlags@W4DropAction@Qt@@@@XZ @5977
?supportedDropActions@QStringListModel@@UBE?AV?$QFlags@W4DropAction@Qt@@@@XZ @5978
?supportsExtension@QAbstractFileEngine@@UBE_NW4Extension@1@@Z @5979
?supportsExtension@QFSFileEngine@@UBE_NW4Extension@QAbstractFileEngine@@@Z @5980
?surrogateToUcs4@QChar@@SAIGG@Z @5981
?surrogateToUcs4@QChar@@SAIV1@0@Z @5982
?swap@?$QList@VQItemSelectionRange@@@@QAEXAAV1@@Z @5983
?swap@?$QList@VQItemSelectionRange@@@@QAEXHH@Z @5984
?swap@?$QVector@VQPoint@@@@QAEXAAV1@@Z @5985
?swap@?$QVector@VQPointF@@@@QAEXAAV1@@Z @5986
?swap@?$QVector@VQXmlStreamAttribute@@@@QAEXAAV1@@Z @5987
?swap@QBitArray@@QAEXAAV1@@Z @5988
?swap@QByteArray@@QAEXAAV1@@Z @5989
?swap@QCollator@@QAEXAAV1@@Z @5990
?swap@QCollatorSortKey@@QAEXAAV1@@Z @5991
?swap@QCommandLineOption@@QAEXAAV1@@Z @5992
?swap@QDateTime@@QAEXAAV1@@Z @5993
?swap@QDebug@@QAEXAAV1@@Z @5994
?swap@QDir@@QAEXAAV1@@Z @5995
?swap@QEasingCurve@@QAEXAAV1@@Z @5996
?swap@QFileInfo@@QAEXAAV1@@Z @5997
?swap@QMimeType@@QAEXAAV1@@Z @5998
?swap@QPersistentModelIndex@@QAEXAAV1@@Z @5999
?swap@QProcessEnvironment@@QAEXAAV1@@Z @6000
?swap@QRegExp@@QAEXAAV1@@Z @6001
?swap@QRegularExpression@@QAEXAAV1@@Z @6002
?swap@QRegularExpressionMatch@@QAEXAAV1@@Z @6003
?swap@QRegularExpressionMatchIterator@@QAEXAAV1@@Z @6004
?swap@QStorageInfo@@QAEXAAV1@@Z @6005
?swap@QString@@QAEXAAV1@@Z @6006
?swap@QTimeZone@@QAEXAAV1@@Z @6007
?swap@QUrl@@QAEXAAV1@@Z @6008
?swap@QUrlQuery@@QAEXAAV1@@Z @6009
?swap@QVariant@@QAEXAAV1@@Z @6010
?symLinkTarget@QFile@@QBE?AVQString@@XZ @6011
?symLinkTarget@QFile@@SA?AVQString@@ABV2@@Z @6012
?symLinkTarget@QFileInfo@@QBE?AVQString@@XZ @6013
?sync@QSettings@@QAEXXZ @6014
?syncPendingResults@ResultStoreBase@QtPrivate@@IAEXXZ @6015
?syncResultCount@ResultStoreBase@QtPrivate@@IAEXXZ @6016
?syncToDisk@QAbstractFileEngine@@UAE_NXZ @6017
?syncToDisk@QFSFileEngine@@UAE_NXZ @6018
?system@QLocale@@SA?AV1@XZ @6019
?systemEnvironment@QProcess@@SA?AVQStringList@@XZ @6020
?systemEnvironment@QProcessEnvironment@@SA?AV1@XZ @6021
?systemId@QXmlStreamEntityDeclaration@@QBE?AVQStringRef@@XZ @6022
?systemId@QXmlStreamNotationDeclaration@@QBE?AVQStringRef@@XZ @6023
?systemTimeZoneId@QTimeZone@@SA?AVQByteArray@@XZ @6024
?systemTimeZoneId@QTimeZonePrivate@@UBE?AVQByteArray@@XZ @6025
?tag@QMetaMethod@@QBEPBDXZ @6026
?tag@QMetaMethodBuilder@@QBE?AVQByteArray@@XZ @6027
?take@QJsonObject@@QAE?AVQJsonValue@@ABVQString@@@Z @6028
?takeAnimation@QAnimationGroup@@QAEPAVQAbstractAnimation@@H@Z @6029
?takeAt@?$QList@VQItemSelectionRange@@@@QAE?AVQItemSelectionRange@@H@Z @6030
?takeAt@?$QVector@VQPoint@@@@QAE?AVQPoint@@H@Z @6031
?takeAt@?$QVector@VQPointF@@@@QAE?AVQPointF@@H@Z @6032
?takeAt@?$QVector@VQXmlStreamAttribute@@@@QAE?AVQXmlStreamAttribute@@H@Z @6033
?takeAt@QJsonArray@@QAE?AVQJsonValue@@H@Z @6034
?takeFirst@?$QList@VQItemSelectionRange@@@@QAE?AVQItemSelectionRange@@XZ @6035
?takeFirst@?$QVector@VQPoint@@@@QAE?AVQPoint@@XZ @6036
?takeFirst@?$QVector@VQPointF@@@@QAE?AVQPointF@@XZ @6037
?takeFirst@?$QVector@VQXmlStreamAttribute@@@@QAE?AVQXmlStreamAttribute@@XZ @6038
?takeLast@?$QList@VQItemSelectionRange@@@@QAE?AVQItemSelectionRange@@XZ @6039
?takeLast@?$QVector@VQPoint@@@@QAE?AVQPoint@@XZ @6040
?takeLast@?$QVector@VQPointF@@@@QAE?AVQPointF@@XZ @6041
?takeLast@?$QVector@VQXmlStreamAttribute@@@@QAE?AVQXmlStreamAttribute@@XZ @6042
?targetObject@QPropertyAnimation@@QBEPAVQObject@@XZ @6043
?targetState@QAbstractTransition@@QBEPAVQAbstractState@@XZ @6044
?targetStateChanged@QAbstractTransition@@QAEXUQPrivateSignal@1@@Z @6045
?targetStates@QAbstractTransition@@QBE?AV?$QList@PAVQAbstractState@@@@XZ @6046
?targetStatesChanged@QAbstractTransition@@QAEXUQPrivateSignal@1@@Z @6047
?temp@QDir@@SA?AV1@XZ @6048
?tempPath@QDir@@SA?AVQString@@XZ @6049
?tempPath@QFSFileEngine@@SA?AVQString@@XZ @6050
?terminate@QProcess@@QAEXXZ @6051
?terminate@QThread@@QAEXXZ @6052
?terminateActiveAnimations@QStateMachinePrivate@@QAEXPAVQAbstractState@@ABV?$QHash@PAVQAbstractState@@V?$QList@UQPropertyAssignment@@@@@@@Z @6053
?testAttribute@QCoreApplication@@SA_NW4ApplicationAttribute@Qt@@@Z @6054
?testAttribute@QCoreApplicationPrivate@@SA_NI@Z @6055
?testBit@QBitArray@@QBE_NH@Z @6056
?text@QMimeData@@QBE?AVQString@@XZ @6057
?text@QXmlStreamReader@@QBE?AVQStringRef@@XZ @6058
?textDirection@QLocale@@QBE?AW4LayoutDirection@Qt@@XZ @6059
?theMainThread@QCoreApplicationPrivate@@2PAVQThread@@A @6060
?thread@QObject@@QBEPAVQThread@@XZ @6061
?throwPossibleException@ExceptionStore@QtPrivate@@QAEXXZ @6062
?time@QDateTime@@QBE?AVQTime@@XZ @6063
?timeFormat@QLocale@@QBE?AVQString@@W4FormatType@1@@Z @6064
?timeSpec@QDateTime@@QBE?AW4TimeSpec@Qt@@XZ @6065
?timeZone@QDateTime@@QBE?AVQTimeZone@@XZ @6066
?timeZoneAbbreviation@QDateTime@@QBE?AVQString@@XZ @6067
?timeout@QTimer@@QAEXUQPrivateSignal@1@@Z @6068
?timerEvent@QObject@@MAEXPAVQTimerEvent@@@Z @6069
?timerEvent@QTimeLine@@MAEXPAVQTimerEvent@@@Z @6070
?timerEvent@QTimer@@MAEXPAVQTimerEvent@@@Z @6071
?timerEvent@QUnifiedTimer@@MAEXPAVQTimerEvent@@@Z @6072
?timerId@QBasicTimer@@QBEHXZ @6073
?timerId@QTimer@@QBEHXZ @6074
?timerId@QTimerEvent@@QBEHXZ @6075
?timerType@QTimer@@QBE?AW4TimerType@Qt@@XZ @6076
?toAce@QUrl@@SA?AVQByteArray@@ABVQString@@@Z @6077
?toAlignedRect@QRectF@@QBE?AVQRect@@XZ @6078
?toArray@QJsonValue@@QBE?AVQJsonArray@@ABV2@@Z @6079
?toArray@QJsonValue@@QBE?AVQJsonArray@@XZ @6080
?toArray@QJsonValueRef@@QBE?AVQJsonArray@@XZ @6081
?toAscii@QChar@@QBEDXZ @6082
?toAscii@QCharRef@@QBEDXZ @6083
?toAscii@QString@@QBE?AVQByteArray@@XZ @6084
?toAscii@QStringRef@@QBE?AVQByteArray@@XZ @6085
?toBase64@QByteArray@@QBE?AV1@V?$QFlags@W4Base64Option@QByteArray@@@@@Z @6086
?toBase64@QByteArray@@QBE?AV1@XZ @6087
?toBinaryData@QJsonDocument@@QBE?AVQByteArray@@XZ @6088
?toBitArray@QVariant@@QBE?AVQBitArray@@XZ @6089
?toBool@QJsonValue@@QBE_N_N@Z @6090
?toBool@QJsonValueRef@@QBE_NXZ @6091
?toBool@QJsonValueRef@@QBE_N_N@Z @6092
?toBool@QVariant@@QBE_NXZ @6093
?toByteArray@QUuid@@QBE?AVQByteArray@@XZ @6094
?toByteArray@QVariant@@QBE?AVQByteArray@@XZ @6095
?toCaseFolded@QChar@@QBE?AV1@XZ @6096
?toCaseFolded@QChar@@SIII@Z @6097
?toCaseFolded@QString@@QBE?AV1@XZ @6098
?toChar@QVariant@@QBE?AVQChar@@XZ @6099
?toCubicSpline@QEasingCurve@@QBE?AV?$QVector@VQPointF@@@@XZ @6100
?toCurrencyString@QLocale@@QBE?AVQString@@FABV2@@Z @6101
?toCurrencyString@QLocale@@QBE?AVQString@@GABV2@@Z @6102
?toCurrencyString@QLocale@@QBE?AVQString@@HABV2@@Z @6103
?toCurrencyString@QLocale@@QBE?AVQString@@IABV2@@Z @6104
?toCurrencyString@QLocale@@QBE?AVQString@@MABV2@@Z @6105
?toCurrencyString@QLocale@@QBE?AVQString@@NABV2@@Z @6106
?toCurrencyString@QLocale@@QBE?AVQString@@_JABV2@@Z @6107
?toCurrencyString@QLocale@@QBE?AVQString@@_KABV2@@Z @6108
?toDate@QLocale@@QBE?AVQDate@@ABVQString@@0@Z @6109
?toDate@QLocale@@QBE?AVQDate@@ABVQString@@W4FormatType@1@@Z @6110
?toDate@QVariant@@QBE?AVQDate@@XZ @6111
?toDateTime@QLocale@@QBE?AVQDateTime@@ABVQString@@0@Z @6112
?toDateTime@QLocale@@QBE?AVQDateTime@@ABVQString@@W4FormatType@1@@Z @6113
?toDateTime@QVariant@@QBE?AVQDateTime@@XZ @6114
?toDisplayString@QUrl@@QBE?AVQString@@V?$QUrlTwoFlags@W4UrlFormattingOption@QUrl@@W4ComponentFormattingOption@2@@@@Z @6115
?toDouble@QByteArray@@QBENPA_N@Z @6116
?toDouble@QJsonValue@@QBENN@Z @6117
?toDouble@QJsonValueRef@@QBENN@Z @6118
?toDouble@QJsonValueRef@@QBENXZ @6119
?toDouble@QLocale@@QBENABVQString@@PA_N@Z @6120
?toDouble@QLocale@@QBENABVQStringRef@@PA_N@Z @6121
?toDouble@QString@@QBENPA_N@Z @6122
?toDouble@QStringRef@@QBENPA_N@Z @6123
?toDouble@QVariant@@QBENPA_N@Z @6124
?toDynamicMetaObject@QAbstractDynamicMetaObject@@UAEPAU1@PAVQObject@@@Z @6125
?toEasingCurve@QVariant@@QBE?AVQEasingCurve@@XZ @6126
?toEncoded@QUrl@@QBE?AVQByteArray@@V?$QUrlTwoFlags@W4UrlFormattingOption@QUrl@@W4ComponentFormattingOption@2@@@@Z @6127
?toEnd@QTextBoundaryFinder@@QAEXXZ @6128
?toFinalState@QStateMachinePrivate@@SAPAVQFinalState@@PAVQAbstractState@@@Z @6129
?toFloat@QByteArray@@QBEMPA_N@Z @6130
?toFloat@QLocale@@QBEMABVQString@@PA_N@Z @6131
?toFloat@QLocale@@QBEMABVQStringRef@@PA_N@Z @6132
?toFloat@QString@@QBEMPA_N@Z @6133
?toFloat@QStringRef@@QBEMPA_N@Z @6134
?toFloat@QVariant@@QBEMPA_N@Z @6135
?toHash@QVariant@@QBE?AV?$QHash@VQString@@VQVariant@@@@XZ @6136
?toHex@QByteArray@@QBE?AV1@XZ @6137
?toHistoryState@QStateMachinePrivate@@SAPAVQHistoryState@@PAVQAbstractState@@@Z @6138
?toHtmlEscaped@QString@@QBE?AV1@XZ @6139
?toInt@QByteArray@@QBEHPA_NH@Z @6140
?toInt@QJsonValue@@QBEHH@Z @6141
?toInt@QJsonValueRef@@QBEHH@Z @6142
?toInt@QJsonValueRef@@QBEHXZ @6143
?toInt@QLocale@@QBEHABVQString@@PA_N@Z @6144
?toInt@QLocale@@QBEHABVQStringRef@@PA_N@Z @6145
?toInt@QString@@QBEHPA_NH@Z @6146
?toInt@QStringRef@@QBEHPA_NH@Z @6147
?toInt@QVariant@@QBEHPA_N@Z @6148
?toIntegral_helper@QString@@CA_JPBVQChar@@HPA_NH@Z @6149
?toIntegral_helper@QString@@CA_KPBVQChar@@IPA_NH@Z @6150
?toJson@QJsonDocument@@QBE?AVQByteArray@@W4JsonFormat@1@@Z @6151
?toJson@QJsonDocument@@QBE?AVQByteArray@@XZ @6152
?toJsonArray@QVariant@@QBE?AVQJsonArray@@XZ @6153
?toJsonDocument@QVariant@@QBE?AVQJsonDocument@@XZ @6154
?toJsonObject@QVariant@@QBE?AVQJsonObject@@XZ @6155
?toJsonValue@QVariant@@QBE?AVQJsonValue@@XZ @6156
?toJulianDay@QDate@@QBE_JXZ @6157
?toLatin1@QChar@@QBEDXZ @6158
?toLatin1@QCharRef@@QBEDXZ @6159
?toLatin1@QString@@QBE?AVQByteArray@@XZ @6160
?toLatin1@QStringRef@@QBE?AVQByteArray@@XZ @6161
?toLatin1_helper@QString@@CA?AVQByteArray@@ABV1@@Z @6162
?toLatin1_helper@QString@@CA?AVQByteArray@@PBVQChar@@H@Z @6163
?toLatin1_helper@QUrl@@CA?AVQByteArray@@ABVQString@@@Z @6164
?toLatin1_helper_inplace@QString@@CA?AVQByteArray@@AAV1@@Z @6165
?toLine@QLineF@@QBE?AVQLine@@XZ @6166
?toLine@QVariant@@QBE?AVQLine@@XZ @6167
?toLineF@QVariant@@QBE?AVQLineF@@XZ @6168
?toList@?$QVector@VQPoint@@@@QBE?AV?$QList@VQPoint@@@@XZ @6169
?toList@?$QVector@VQPointF@@@@QBE?AV?$QList@VQPointF@@@@XZ @6170
?toList@?$QVector@VQXmlStreamAttribute@@@@QBE?AV?$QList@VQXmlStreamAttribute@@@@XZ @6171
?toList@QVariant@@QBE?AV?$QList@VQVariant@@@@XZ @6172
?toLocal8Bit@QString@@QBE?AVQByteArray@@XZ @6173
?toLocal8Bit@QStringRef@@QBE?AVQByteArray@@XZ @6174
?toLocal8Bit_helper@QString@@CA?AVQByteArray@@PBVQChar@@H@Z @6175
?toLocalFile@QUrl@@QBE?AVQString@@XZ @6176
?toLocalTime@QDateTime@@QBE?AV1@XZ @6177
?toLocale@QVariant@@QBE?AVQLocale@@XZ @6178
?toLong@QByteArray@@QBEJPA_NH@Z @6179
?toLong@QString@@QBEJPA_NH@Z @6180
?toLong@QStringRef@@QBEJPA_NH@Z @6181
?toLongLong@QByteArray@@QBE_JPA_NH@Z @6182
?toLongLong@QLocale@@QBE_JABVQString@@PA_N@Z @6183
?toLongLong@QLocale@@QBE_JABVQStringRef@@PA_N@Z @6184
?toLongLong@QString@@QBE_JPA_NH@Z @6185
?toLongLong@QStringRef@@QBE_JPA_NH@Z @6186
?toLongLong@QVariant@@QBE_JPA_N@Z @6187
?toLower@QByteArray@@QBE?AV1@XZ @6188
?toLower@QChar@@QBE?AV1@XZ @6189
?toLower@QChar@@SIII@Z @6190
?toLower@QCharRef@@QBE?AVQChar@@XZ @6191
?toLower@QLocale@@QBE?AVQString@@ABV2@@Z @6192
?toLower@QString@@QBE?AV1@XZ @6193
?toMSecsSinceEpoch@QDateTime@@QBE_JXZ @6194
?toMap@QVariant@@QBE?AV?$QMap@VQString@@VQVariant@@@@XZ @6195
?toMetaObject@QMetaObjectBuilder@@QBEPAUQMetaObject@@XZ @6196
?toModelIndex@QVariant@@QBE?AVQModelIndex@@XZ @6197
?toNativeSeparators@QDir@@SA?AVQString@@ABV2@@Z @6198
?toNextBoundary@QTextBoundaryFinder@@QAEHXZ @6199
?toObject@QJsonValue@@QBE?AVQJsonObject@@ABV2@@Z @6200
?toObject@QJsonValue@@QBE?AVQJsonObject@@XZ @6201
?toObject@QJsonValueRef@@QBE?AVQJsonObject@@XZ @6202
?toOffsetData@QTimeZonePrivate@@SA?AUOffsetData@QTimeZone@@ABUData@1@@Z @6203
?toOffsetFromUtc@QDateTime@@QBE?AV1@H@Z @6204
?toPercentEncoding@QByteArray@@QBE?AV1@ABV1@0D@Z @6205
?toPercentEncoding@QUrl@@SA?AVQByteArray@@ABVQString@@ABV2@1@Z @6206
?toPoint@QPointF@@QBE?AVQPoint@@XZ @6207
?toPoint@QVariant@@QBE?AVQPoint@@XZ @6208
?toPointF@QVariant@@QBE?AVQPointF@@XZ @6209
?toPreviousBoundary@QTextBoundaryFinder@@QAEHXZ @6210
?toPunycode@QUrl@@SA?AVQByteArray@@ABVQString@@@Z @6211
?toReal@QVariant@@QBENPA_N@Z @6212
?toRect@QRectF@@QBE?AVQRect@@XZ @6213
?toRect@QVariant@@QBE?AVQRect@@XZ @6214
?toRectF@QVariant@@QBE?AVQRectF@@XZ @6215
?toRegExp@QVariant@@QBE?AVQRegExp@@XZ @6216
?toRegularExpression@QVariant@@QBE?AVQRegularExpression@@XZ @6217
?toRelocatableData@QMetaObjectBuilder@@QBE?AVQByteArray@@PA_N@Z @6218
?toRfc4122@QUuid@@QBE?AVQByteArray@@XZ @6219
?toSet@?$QList@VQItemSelectionRange@@@@QBE?AV?$QSet@VQItemSelectionRange@@@@XZ @6220
?toShort@QByteArray@@QBEFPA_NH@Z @6221
?toShort@QLocale@@QBEFABVQString@@PA_N@Z @6222
?toShort@QLocale@@QBEFABVQStringRef@@PA_N@Z @6223
?toShort@QString@@QBEFPA_NH@Z @6224
?toShort@QStringRef@@QBEFPA_NH@Z @6225
?toSize@QSizeF@@QBE?AVQSize@@XZ @6226
?toSize@QVariant@@QBE?AVQSize@@XZ @6227
?toSizeF@QVariant@@QBE?AVQSizeF@@XZ @6228
?toStandardState@QStateMachinePrivate@@SAPAVQState@@PAVQAbstractState@@@Z @6229
?toStandardState@QStateMachinePrivate@@SAPBVQState@@PBVQAbstractState@@@Z @6230
?toStart@QTextBoundaryFinder@@QAEXXZ @6231
?toStdList@?$QList@VQItemSelectionRange@@@@QBE?AV?$list@VQItemSelectionRange@@V?$allocator@VQItemSelectionRange@@@std@@@std@@XZ @6232
?toStdString@QByteArray@@QBE?AV?$basic_string@DU?$char_traits@D@std@@V?$allocator@D@2@@std@@XZ @6233
?toStdString@QString@@QBE?AV?$basic_string@DU?$char_traits@D@std@@V?$allocator@D@2@@std@@XZ @6234
?toStdVector@?$QVector@VQPoint@@@@QBE?AV?$vector@VQPoint@@V?$allocator@VQPoint@@@std@@@std@@XZ @6235
?toStdVector@?$QVector@VQPointF@@@@QBE?AV?$vector@VQPointF@@V?$allocator@VQPointF@@@std@@@std@@XZ @6236
?toStdVector@?$QVector@VQXmlStreamAttribute@@@@QBE?AV?$vector@VQXmlStreamAttribute@@V?$allocator@VQXmlStreamAttribute@@@std@@@std@@XZ @6237
?toStdWString@QString@@QBE?AV?$basic_string@_WU?$char_traits@_W@std@@V?$allocator@_W@2@@std@@XZ @6238
?toString@QDate@@QBE?AVQString@@ABV2@@Z @6239
?toString@QDate@@QBE?AVQString@@W4DateFormat@Qt@@@Z @6240
?toString@QDateTime@@QBE?AVQString@@ABV2@@Z @6241
?toString@QDateTime@@QBE?AVQString@@W4DateFormat@Qt@@@Z @6242
?toString@QIPAddressUtils@@YAXAAVQString@@I@Z @6243
?toString@QIPAddressUtils@@YAXAAVQString@@QAE@Z @6244
?toString@QJsonValue@@QBE?AVQString@@ABV2@@Z @6245
?toString@QJsonValueRef@@QBE?AVQString@@ABV2@@Z @6246
?toString@QJsonValueRef@@QBE?AVQString@@XZ @6247
?toString@QLocale@@QBE?AVQString@@ABVQDate@@ABV2@@Z @6248
?toString@QLocale@@QBE?AVQString@@ABVQDate@@W4FormatType@1@@Z @6249
?toString@QLocale@@QBE?AVQString@@ABVQDateTime@@ABV2@@Z @6250
?toString@QLocale@@QBE?AVQString@@ABVQDateTime@@W4FormatType@1@@Z @6251
?toString@QLocale@@QBE?AVQString@@ABVQTime@@ABV2@@Z @6252
?toString@QLocale@@QBE?AVQString@@ABVQTime@@W4FormatType@1@@Z @6253
?toString@QLocale@@QBE?AVQString@@F@Z @6254
?toString@QLocale@@QBE?AVQString@@G@Z @6255
?toString@QLocale@@QBE?AVQString@@H@Z @6256
?toString@QLocale@@QBE?AVQString@@I@Z @6257
?toString@QLocale@@QBE?AVQString@@MDH@Z @6258
?toString@QLocale@@QBE?AVQString@@NDH@Z @6259
?toString@QLocale@@QBE?AVQString@@_J@Z @6260
?toString@QLocale@@QBE?AVQString@@_K@Z @6261
?toString@QStringRef@@QBE?AVQString@@XZ @6262
?toString@QSystemError@@QAE?AVQString@@XZ @6263
?toString@QTime@@QBE?AVQString@@ABV2@@Z @6264
?toString@QTime@@QBE?AVQString@@W4DateFormat@Qt@@@Z @6265
?toString@QUrl@@QBE?AVQString@@V?$QUrlTwoFlags@W4UrlFormattingOption@QUrl@@W4ComponentFormattingOption@2@@@@Z @6266
?toString@QUrlQuery@@QBE?AVQString@@V?$QFlags@W4ComponentFormattingOption@QUrl@@@@@Z @6267
?toString@QUuid@@QBE?AVQString@@XZ @6268
?toString@QVariant@@QBE?AVQString@@XZ @6269
?toString@QVersionNumber@@QBE?AVQString@@XZ @6270
?toStringList@QProcessEnvironment@@QBE?AVQStringList@@XZ @6271
?toStringList@QUrl@@SA?AVQStringList@@ABV?$QList@VQUrl@@@@V?$QUrlTwoFlags@W4UrlFormattingOption@QUrl@@W4ComponentFormattingOption@2@@@@Z @6272
?toStringList@QVariant@@QBE?AVQStringList@@XZ @6273
?toTime@QLocale@@QBE?AVQTime@@ABVQString@@0@Z @6274
?toTime@QLocale@@QBE?AVQTime@@ABVQString@@W4FormatType@1@@Z @6275
?toTime@QVariant@@QBE?AVQTime@@XZ @6276
?toTimeSpec@QDateTime@@QBE?AV1@W4TimeSpec@Qt@@@Z @6277
?toTimeZone@QDateTime@@QBE?AV1@ABVQTimeZone@@@Z @6278
?toTime_t@QDateTime@@QBEIXZ @6279
?toTitleCase@QChar@@QBE?AV1@XZ @6280
?toTitleCase@QChar@@SIII@Z @6281
?toTitleCase@QCharRef@@QBE?AVQChar@@XZ @6282
?toUInt@QByteArray@@QBEIPA_NH@Z @6283
?toUInt@QLocale@@QBEIABVQString@@PA_N@Z @6284
?toUInt@QLocale@@QBEIABVQStringRef@@PA_N@Z @6285
?toUInt@QString@@QBEIPA_NH@Z @6286
?toUInt@QStringRef@@QBEIPA_NH@Z @6287
?toUInt@QVariant@@QBEIPA_N@Z @6288
?toULong@QByteArray@@QBEKPA_NH@Z @6289
?toULong@QString@@QBEKPA_NH@Z @6290
?toULong@QStringRef@@QBEKPA_NH@Z @6291
?toULongLong@QByteArray@@QBE_KPA_NH@Z @6292
?toULongLong@QLocale@@QBE_KABVQString@@PA_N@Z @6293
?toULongLong@QLocale@@QBE_KABVQStringRef@@PA_N@Z @6294
?toULongLong@QString@@QBE_KPA_NH@Z @6295
?toULongLong@QStringRef@@QBE_KPA_NH@Z @6296
?toULongLong@QVariant@@QBE_KPA_N@Z @6297
?toUShort@QByteArray@@QBEGPA_NH@Z @6298
?toUShort@QLocale@@QBEGABVQString@@PA_N@Z @6299
?toUShort@QLocale@@QBEGABVQStringRef@@PA_N@Z @6300
?toUShort@QString@@QBEGPA_NH@Z @6301
?toUShort@QStringRef@@QBEGPA_NH@Z @6302
?toUTC@QDateTime@@QBE?AV1@XZ @6303
?toUcs4@QString@@QBE?AV?$QVector@I@@XZ @6304
?toUcs4@QStringRef@@QBE?AV?$QVector@I@@XZ @6305
?toUcs4_helper@QString@@CAHPBGHPAI@Z @6306
?toUnicode@QTextCodec@@QBE?AVQString@@ABVQByteArray@@@Z @6307
?toUnicode@QTextCodec@@QBE?AVQString@@PBD@Z @6308
?toUnicode@QTextCodec@@QBE?AVQString@@PBDHPAUConverterState@1@@Z @6309
?toUnicode@QTextDecoder@@QAE?AVQString@@ABVQByteArray@@@Z @6310
?toUnicode@QTextDecoder@@QAE?AVQString@@PBDH@Z @6311
?toUnicode@QTextDecoder@@QAEXPAVQString@@PBDH@Z @6312
?toUpper@QByteArray@@QBE?AV1@XZ @6313
?toUpper@QChar@@QBE?AV1@XZ @6314
?toUpper@QChar@@SIII@Z @6315
?toUpper@QCharRef@@QBE?AVQChar@@XZ @6316
?toUpper@QLocale@@QBE?AVQString@@ABV2@@Z @6317
?toUpper@QString@@QBE?AV1@XZ @6318
?toUrl@QVariant@@QBE?AVQUrl@@XZ @6319
?toUtf8@QString@@QBE?AVQByteArray@@XZ @6320
?toUtf8@QStringRef@@QBE?AVQByteArray@@XZ @6321
?toUtf8_helper@QString@@CA?AVQByteArray@@ABV1@@Z @6322
?toUuid@QVariant@@QBE?AVQUuid@@XZ @6323
?toValue@QJsonValueRef@@ABE?AVQJsonValue@@XZ @6324
?toVariant@QJsonDocument@@QBE?AVQVariant@@XZ @6325
?toVariant@QJsonValue@@QBE?AVQVariant@@XZ @6326
?toVariantList@QJsonArray@@QBE?AV?$QList@VQVariant@@@@XZ @6327
?toVariantMap@QJsonObject@@QBE?AV?$QMap@VQString@@VQVariant@@@@XZ @6328
?toVector@?$QList@VQItemSelectionRange@@@@QBE?AV?$QVector@VQItemSelectionRange@@@@XZ @6329
?toWCharArray@QString@@QBEHPA_W@Z @6330
?toggleBit@QBitArray@@QAE_NH@Z @6331
?toggleDirection@QTimeLine@@QAEXXZ @6332
?togglePaused@QFutureInterfaceBase@@QAEXXZ @6333
?togglePaused@QFutureWatcherBase@@QAEXXZ @6334
?tokenString@QXmlStreamReader@@QBE?AVQString@@XZ @6335
?tokenType@QXmlStreamReader@@QBE?AW4TokenType@1@XZ @6336
?tooManyThreadsActive@QThreadPoolPrivate@@QBE_NXZ @6337
?top@QItemSelectionRange@@QBEHXZ @6338
?top@QRect@@QBEHXZ @6339
?top@QRectF@@QBENXZ @6340
?topLeft@QItemSelectionRange@@QBEABVQPersistentModelIndex@@XZ @6341
?topLeft@QRect@@QBE?AVQPoint@@XZ @6342
?topLeft@QRectF@@QBE?AVQPointF@@XZ @6343
?topLevelDomain@QUrl@@QBE?AVQString@@V?$QFlags@W4ComponentFormattingOption@QUrl@@@@@Z @6344
?topRight@QRect@@QBE?AVQPoint@@XZ @6345
?topRight@QRectF@@QBE?AVQPointF@@XZ @6346
?totalDuration@QAbstractAnimation@@QBEHXZ @6347
?tr@QAbstractAnimation@@SA?AVQString@@PBD0H@Z @6348
?tr@QAbstractAnimationTimer@@SA?AVQString@@PBD0H@Z @6349
?tr@QAbstractEventDispatcher@@SA?AVQString@@PBD0H@Z @6350
?tr@QAbstractItemModel@@SA?AVQString@@PBD0H@Z @6351
?tr@QAbstractListModel@@SA?AVQString@@PBD0H@Z @6352
?tr@QAbstractProxyModel@@SA?AVQString@@PBD0H@Z @6353
?tr@QAbstractState@@SA?AVQString@@PBD0H@Z @6354
?tr@QAbstractTableModel@@SA?AVQString@@PBD0H@Z @6355
?tr@QAbstractTransition@@SA?AVQString@@PBD0H@Z @6356
?tr@QAnimationDriver@@SA?AVQString@@PBD0H@Z @6357
?tr@QAnimationGroup@@SA?AVQString@@PBD0H@Z @6358
?tr@QBuffer@@SA?AVQString@@PBD0H@Z @6359
?tr@QCommandLineParser@@SA?AVQString@@PBD0H@Z @6360
?tr@QCoreApplication@@SA?AVQString@@PBD0H@Z @6361
?tr@QEventDispatcherWin32@@SA?AVQString@@PBD0H@Z @6362
?tr@QEventLoop@@SA?AVQString@@PBD0H@Z @6363
?tr@QEventTransition@@SA?AVQString@@PBD0H@Z @6364
?tr@QFactoryLoader@@SA?AVQString@@PBD0H@Z @6365
?tr@QFile@@SA?AVQString@@PBD0H@Z @6366
?tr@QFileDevice@@SA?AVQString@@PBD0H@Z @6367
?tr@QFileSelector@@SA?AVQString@@PBD0H@Z @6368
?tr@QFileSystemWatcher@@SA?AVQString@@PBD0H@Z @6369
?tr@QFinalState@@SA?AVQString@@PBD0H@Z @6370
?tr@QFutureWatcherBase@@SA?AVQString@@PBD0H@Z @6371
?tr@QHistoryState@@SA?AVQString@@PBD0H@Z @6372
?tr@QIODevice@@SA?AVQString@@PBD0H@Z @6373
?tr@QIdentityProxyModel@@SA?AVQString@@PBD0H@Z @6374
?tr@QItemSelectionModel@@SA?AVQString@@PBD0H@Z @6375
?tr@QLibrary@@SA?AVQString@@PBD0H@Z @6376
?tr@QMetaObject@@QBE?AVQString@@PBD0H@Z @6377
?tr@QMimeData@@SA?AVQString@@PBD0H@Z @6378
?tr@QNonContiguousByteDevice@@SA?AVQString@@PBD0H@Z @6379
?tr@QObject@@SA?AVQString@@PBD0H@Z @6380
?tr@QObjectCleanupHandler@@SA?AVQString@@PBD0H@Z @6381
?tr@QParallelAnimationGroup@@SA?AVQString@@PBD0H@Z @6382
?tr@QPauseAnimation@@SA?AVQString@@PBD0H@Z @6383
?tr@QPluginLoader@@SA?AVQString@@PBD0H@Z @6384
?tr@QProcess@@SA?AVQString@@PBD0H@Z @6385
?tr@QPropertyAnimation@@SA?AVQString@@PBD0H@Z @6386
?tr@QSaveFile@@SA?AVQString@@PBD0H@Z @6387
?tr@QSequentialAnimationGroup@@SA?AVQString@@PBD0H@Z @6388
?tr@QSettings@@SA?AVQString@@PBD0H@Z @6389
?tr@QSharedMemory@@SA?AVQString@@PBD0H@Z @6390
?tr@QSignalMapper@@SA?AVQString@@PBD0H@Z @6391
?tr@QSignalTransition@@SA?AVQString@@PBD0H@Z @6392
?tr@QSocketNotifier@@SA?AVQString@@PBD0H@Z @6393
?tr@QSortFilterProxyModel@@SA?AVQString@@PBD0H@Z @6394
?tr@QState@@SA?AVQString@@PBD0H@Z @6395
?tr@QStateMachine@@SA?AVQString@@PBD0H@Z @6396
?tr@QStringListModel@@SA?AVQString@@PBD0H@Z @6397
?tr@QTemporaryFile@@SA?AVQString@@PBD0H@Z @6398
?tr@QThread@@SA?AVQString@@PBD0H@Z @6399
?tr@QThreadPool@@SA?AVQString@@PBD0H@Z @6400
?tr@QTimeLine@@SA?AVQString@@PBD0H@Z @6401
?tr@QTimer@@SA?AVQString@@PBD0H@Z @6402
?tr@QTranslator@@SA?AVQString@@PBD0H@Z @6403
?tr@QUnifiedTimer@@SA?AVQString@@PBD0H@Z @6404
?tr@QVariantAnimation@@SA?AVQString@@PBD0H@Z @6405
?tr@QWinEventNotifier@@SA?AVQString@@PBD0H@Z @6406
?tr@QWinOverlappedIoNotifier@@SA?AVQString@@PBD0H@Z @6407
?tr@QWindowsPipeReader@@SA?AVQString@@PBD0H@Z @6408
?tr@QWindowsPipeWriter@@SA?AVQString@@PBD0H@Z @6409
?trUtf8@QAbstractAnimation@@SA?AVQString@@PBD0H@Z @6410
?trUtf8@QAbstractAnimationTimer@@SA?AVQString@@PBD0H@Z @6411
?trUtf8@QAbstractEventDispatcher@@SA?AVQString@@PBD0H@Z @6412
?trUtf8@QAbstractItemModel@@SA?AVQString@@PBD0H@Z @6413
?trUtf8@QAbstractListModel@@SA?AVQString@@PBD0H@Z @6414
?trUtf8@QAbstractProxyModel@@SA?AVQString@@PBD0H@Z @6415
?trUtf8@QAbstractState@@SA?AVQString@@PBD0H@Z @6416
?trUtf8@QAbstractTableModel@@SA?AVQString@@PBD0H@Z @6417
?trUtf8@QAbstractTransition@@SA?AVQString@@PBD0H@Z @6418
?trUtf8@QAnimationDriver@@SA?AVQString@@PBD0H@Z @6419
?trUtf8@QAnimationGroup@@SA?AVQString@@PBD0H@Z @6420
?trUtf8@QBuffer@@SA?AVQString@@PBD0H@Z @6421
?trUtf8@QCommandLineParser@@SA?AVQString@@PBD0H@Z @6422
?trUtf8@QCoreApplication@@SA?AVQString@@PBD0H@Z @6423
?trUtf8@QEventDispatcherWin32@@SA?AVQString@@PBD0H@Z @6424
?trUtf8@QEventLoop@@SA?AVQString@@PBD0H@Z @6425
?trUtf8@QEventTransition@@SA?AVQString@@PBD0H@Z @6426
?trUtf8@QFactoryLoader@@SA?AVQString@@PBD0H@Z @6427
?trUtf8@QFile@@SA?AVQString@@PBD0H@Z @6428
?trUtf8@QFileDevice@@SA?AVQString@@PBD0H@Z @6429
?trUtf8@QFileSelector@@SA?AVQString@@PBD0H@Z @6430
?trUtf8@QFileSystemWatcher@@SA?AVQString@@PBD0H@Z @6431
?trUtf8@QFinalState@@SA?AVQString@@PBD0H@Z @6432
?trUtf8@QFutureWatcherBase@@SA?AVQString@@PBD0H@Z @6433
?trUtf8@QHistoryState@@SA?AVQString@@PBD0H@Z @6434
?trUtf8@QIODevice@@SA?AVQString@@PBD0H@Z @6435
?trUtf8@QIdentityProxyModel@@SA?AVQString@@PBD0H@Z @6436
?trUtf8@QItemSelectionModel@@SA?AVQString@@PBD0H@Z @6437
?trUtf8@QLibrary@@SA?AVQString@@PBD0H@Z @6438
?trUtf8@QMimeData@@SA?AVQString@@PBD0H@Z @6439
?trUtf8@QNonContiguousByteDevice@@SA?AVQString@@PBD0H@Z @6440
?trUtf8@QObject@@SA?AVQString@@PBD0H@Z @6441
?trUtf8@QObjectCleanupHandler@@SA?AVQString@@PBD0H@Z @6442
?trUtf8@QParallelAnimationGroup@@SA?AVQString@@PBD0H@Z @6443
?trUtf8@QPauseAnimation@@SA?AVQString@@PBD0H@Z @6444
?trUtf8@QPluginLoader@@SA?AVQString@@PBD0H@Z @6445
?trUtf8@QProcess@@SA?AVQString@@PBD0H@Z @6446
?trUtf8@QPropertyAnimation@@SA?AVQString@@PBD0H@Z @6447
?trUtf8@QSaveFile@@SA?AVQString@@PBD0H@Z @6448
?trUtf8@QSequentialAnimationGroup@@SA?AVQString@@PBD0H@Z @6449
?trUtf8@QSettings@@SA?AVQString@@PBD0H@Z @6450
?trUtf8@QSharedMemory@@SA?AVQString@@PBD0H@Z @6451
?trUtf8@QSignalMapper@@SA?AVQString@@PBD0H@Z @6452
?trUtf8@QSignalTransition@@SA?AVQString@@PBD0H@Z @6453
?trUtf8@QSocketNotifier@@SA?AVQString@@PBD0H@Z @6454
?trUtf8@QSortFilterProxyModel@@SA?AVQString@@PBD0H@Z @6455
?trUtf8@QState@@SA?AVQString@@PBD0H@Z @6456
?trUtf8@QStateMachine@@SA?AVQString@@PBD0H@Z @6457
?trUtf8@QStringListModel@@SA?AVQString@@PBD0H@Z @6458
?trUtf8@QTemporaryFile@@SA?AVQString@@PBD0H@Z @6459
?trUtf8@QThread@@SA?AVQString@@PBD0H@Z @6460
?trUtf8@QThreadPool@@SA?AVQString@@PBD0H@Z @6461
?trUtf8@QTimeLine@@SA?AVQString@@PBD0H@Z @6462
?trUtf8@QTimer@@SA?AVQString@@PBD0H@Z @6463
?trUtf8@QTranslator@@SA?AVQString@@PBD0H@Z @6464
?trUtf8@QUnifiedTimer@@SA?AVQString@@PBD0H@Z @6465
?trUtf8@QVariantAnimation@@SA?AVQString@@PBD0H@Z @6466
?trUtf8@QWinEventNotifier@@SA?AVQString@@PBD0H@Z @6467
?trUtf8@QWinOverlappedIoNotifier@@SA?AVQString@@PBD0H@Z @6468
?trUtf8@QWindowsPipeReader@@SA?AVQString@@PBD0H@Z @6469
?trUtf8@QWindowsPipeWriter@@SA?AVQString@@PBD0H@Z @6470
?transitions@QState@@QBE?AV?$QList@PAVQAbstractTransition@@@@XZ @6471
?transitions@QTimeZone@@QBE?AV?$QVector@UOffsetData@QTimeZone@@@@ABVQDateTime@@0@Z @6472
?transitions@QTimeZonePrivate@@QBE?AV?$QVector@UData@QTimeZonePrivate@@@@_J0@Z @6473
?translate@QCoreApplication@@SA?AVQString@@PBD00H@Z @6474
?translate@QCoreApplication@@SA?AVQString@@PBD00W4Encoding@1@H@Z @6475
?translate@QLine@@QAEXABVQPoint@@@Z @6476
?translate@QLine@@QAEXHH@Z @6477
?translate@QLineF@@QAEXABVQPointF@@@Z @6478
?translate@QLineF@@QAEXNN@Z @6479
?translate@QRect@@QAEXABVQPoint@@@Z @6480
?translate@QRect@@QAEXHH@Z @6481
?translate@QRectF@@QAEXABVQPointF@@@Z @6482
?translate@QRectF@@QAEXNN@Z @6483
?translate@QTranslator@@UBE?AVQString@@PBD00H@Z @6484
?translated@QLine@@QBE?AV1@ABVQPoint@@@Z @6485
?translated@QLine@@QBE?AV1@HH@Z @6486
?translated@QLineF@@QBE?AV1@ABVQPointF@@@Z @6487
?translated@QLineF@@QBE?AV1@NN@Z @6488
?translated@QRect@@QBE?AV1@ABVQPoint@@@Z @6489
?translated@QRect@@QBE?AV1@HH@Z @6490
?translated@QRectF@@QBE?AV1@ABVQPointF@@@Z @6491
?translated@QRectF@@QBE?AV1@NN@Z @6492
?transpose@QSize@@QAEXXZ @6493
?transpose@QSizeF@@QAEXXZ @6494
?transposed@QSize@@QBE?AV1@XZ @6495
?transposed@QSizeF@@QBE?AV1@XZ @6496
?triggered@QAbstractTransition@@QAEXUQPrivateSignal@1@@Z @6497
?trimmed@QByteArray@@QBE?AV1@XZ @6498
?trimmed@QString@@QBE?AV1@XZ @6499
?trimmed@QStringRef@@QBE?AV1@XZ @6500
?true_element@VectorBoolElements@QtMetaTypePrivate@@2_NB @6501
?truncate@QBitArray@@QAEXH@Z @6502
?truncate@QByteArray@@QAEXH@Z @6503
?truncate@QString@@QAEXH@Z @6504
?tryAcquire@QSemaphore@@QAE_NH@Z @6505
?tryAcquire@QSemaphore@@QAE_NHH@Z @6506
?tryLock@QBasicMutex@@QAE_NXZ @6507
?tryLock@QLockFile@@QAE_NH@Z @6508
?tryLock@QMutex@@QAE_NH@Z @6509
?tryLockForRead@QReadWriteLock@@QAE_NH@Z @6510
?tryLockForRead@QReadWriteLock@@QAE_NXZ @6511
?tryLockForWrite@QReadWriteLock@@QAE_NH@Z @6512
?tryLockForWrite@QReadWriteLock@@QAE_NXZ @6513
?tryStart@QThreadPool@@QAE_NPAVQRunnable@@@Z @6514
?tryStart@QThreadPoolPrivate@@QAE_NPAVQRunnable@@@Z @6515
?tryToStartMoreThreads@QThreadPoolPrivate@@QAEXXZ @6516
?type@QEasingCurve@@QBE?AW4Type@1@XZ @6517
?type@QEvent@@QBE?AW4Type@1@XZ @6518
?type@QJsonValue@@QBE?AW4Type@1@XZ @6519
?type@QJsonValueRef@@QBE?AW4Type@QJsonValue@@XZ @6520
?type@QMetaProperty@@QBE?AW4Type@QVariant@@XZ @6521
?type@QMetaPropertyBuilder@@QBE?AVQByteArray@@XZ @6522
?type@QMetaType@@SAHPBD@Z @6523
?type@QSocketNotifier@@QBE?AW4Type@1@XZ @6524
?type@QTextBoundaryFinder@@QBE?AW4BoundaryType@1@XZ @6525
?type@QVariant@@QBE?AW4Type@1@XZ @6526
?typeFlags@QMetaType@@SA?AV?$QFlags@W4TypeFlag@QMetaType@@@@H@Z @6527
?typeInfo@QMetaType@@CA?AV1@H@Z @6528
?typeName@QMetaMethod@@QBEPBDXZ @6529
?typeName@QMetaProperty@@QBEPBDXZ @6530
?typeName@QMetaType@@SAPBDH@Z @6531
?typeName@QVariant@@QBEPBDXZ @6532
?typeToName@QVariant@@SAPBDH@Z @6533
?uiLanguages@QLocale@@QBE?AVQStringList@@XZ @6534
?ungetChar@QIODevice@@QAEXD@Z @6535
?unicode@QChar@@QAEAAGXZ @6536
?unicode@QChar@@QBEGXZ @6537
?unicode@QCharRef@@QAEAAGXZ @6538
?unicode@QCharRef@@QBEGXZ @6539
?unicode@QString@@QBEPBVQChar@@XZ @6540
?unicode@QStringRef@@QBEPBVQChar@@XZ @6541
?unicodeVersion@QChar@@QBE?AW4UnicodeVersion@1@XZ @6542
?unicodeVersion@QChar@@SI?AW4UnicodeVersion@1@I@Z @6543
?unicodeVersion@QCharRef@@QBE?AW4UnicodeVersion@QChar@@XZ @6544
?uninstall@QAnimationDriver@@QAEXXZ @6545
?uninstallAnimationDriver@QUnifiedTimer@@QAEXPAVQAnimationDriver@@@Z @6546
?uninstallMessageHook@QEventDispatcherWin32@@IAEXXZ @6547
?unitVector@QLineF@@QBE?AV1@XZ @6548
?unite@QRect@@QBE?AV1@ABV1@@Z @6549
?unite@QRectF@@QBE?AV1@ABV1@@Z @6550
?united@QRect@@QBE?AV1@ABV1@@Z @6551
?united@QRectF@@QBE?AV1@ABV1@@Z @6552
?unknownOptionNames@QCommandLineParser@@QBE?AVQStringList@@XZ @6553
?unload@QLibrary@@QAE_NXZ @6554
?unload@QPluginLoader@@QAE_NXZ @6555
?unlock@QBasicMutex@@QAEXXZ @6556
?unlock@QLockFile@@QAEXXZ @6557
?unlock@QMutex@@QAEXXZ @6558
?unlock@QMutexLocker@@QAEXXZ @6559
?unlock@QReadLocker@@QAEXXZ @6560
?unlock@QReadWriteLock@@QAEXXZ @6561
?unlock@QSharedMemory@@QAE_NXZ @6562
?unlock@QWriteLocker@@QAEXXZ @6563
?unlockInternal@QBasicMutex@@AAEXXZ @6564
?unmap@QAbstractFileEngine@@QAE_NPAE@Z @6565
?unmap@QFileDevice@@QAE_NPAE@Z @6566
?unregister@QEventTransitionPrivate@@QAEXXZ @6567
?unregisterAllTransitions@QStateMachinePrivate@@QAEXXZ @6568
?unregisterCallback@QInternal@@SA_NW4Callback@1@P6A_NPAPAX@Z@Z @6569
?unregisterConverterFunction@QMetaType@@SAXHH@Z @6570
?unregisterEventNotifier@QEventDispatcherWin32@@UAEXPAVQWinEventNotifier@@@Z @6571
?unregisterEventTransition@QStateMachinePrivate@@QAEXPAVQEventTransition@@@Z @6572
?unregisterResource@QResource@@SA_NABVQString@@0@Z @6573
?unregisterResource@QResource@@SA_NPBEABVQString@@@Z @6574
?unregisterRestorables@QStateMachinePrivate@@QAEXABV?$QList@PAVQAbstractState@@@@PAVQObject@@ABVQByteArray@@@Z @6575
?unregisterSignalTransition@QStateMachinePrivate@@QAEXPAVQSignalTransition@@@Z @6576
?unregisterSocketNotifier@QEventDispatcherWin32@@UAEXPAVQSocketNotifier@@@Z @6577
?unregisterTimer@QEventDispatcherWin32@@UAE_NH@Z @6578
?unregisterTimer@QEventDispatcherWin32Private@@QAEXPAUWinTimerInfo@@@Z @6579
?unregisterTimers@QEventDispatcherWin32@@UAE_NPAVQObject@@@Z @6580
?unregisterTransition@QStateMachinePrivate@@QAEXPAVQAbstractTransition@@@Z @6581
?unsetDevice@QDataStream@@QAEXXZ @6582
?unsetError@QFileDevice@@QAEXXZ @6583
?update@QFactoryLoader@@QAEXXZ @6584
?updateAnimationTimers@QUnifiedTimer@@QAEX_J@Z @6585
?updateCurrentTime@QParallelAnimationGroup@@MAEXH@Z @6586
?updateCurrentTime@QPauseAnimation@@MAEXH@Z @6587
?updateCurrentTime@QSequentialAnimationGroup@@MAEXH@Z @6588
?updateCurrentTime@QVariantAnimation@@MAEXH@Z @6589
?updateCurrentValue@QPropertyAnimation@@MAEXABVQVariant@@@Z @6590
?updateCurrentValue@QVariantAnimation@@MAEXABVQVariant@@@Z @6591
?updateDirection@QAbstractAnimation@@MAEXW4Direction@1@@Z @6592
?updateDirection@QParallelAnimationGroup@@MAEXW4Direction@QAbstractAnimation@@@Z @6593
?updateDirection@QSequentialAnimationGroup@@MAEXW4Direction@QAbstractAnimation@@@Z @6594
?updateInsertIndex@ResultStoreBase@QtPrivate@@IAEHHH@Z @6595
?updateInterval@QTimeLine@@QBEHXZ @6596
?updateSelectors@QFileSelectorPrivate@@SAXXZ @6597
?updateState@QAbstractAnimation@@MAEXW4State@1@0@Z @6598
?updateState@QParallelAnimationGroup@@MAEXW4State@QAbstractAnimation@@0@Z @6599
?updateState@QPropertyAnimation@@MAEXW4State@QAbstractAnimation@@0@Z @6600
?updateState@QSequentialAnimationGroup@@MAEXW4State@QAbstractAnimation@@0@Z @6601
?updateState@QVariantAnimation@@MAEXW4State@QAbstractAnimation@@0@Z @6602
?updateSystemPrivate@QLocalePrivate@@SAXXZ @6603
?uppercasebase@@YAAAVQTextStream@@AAV1@@Z @6604
?uppercasedigits@@YAAAVQTextStream@@AAV1@@Z @6605
?url@QUrl@@QBE?AVQString@@V?$QUrlTwoFlags@W4UrlFormattingOption@QUrl@@W4ComponentFormattingOption@2@@@@Z @6606
?urls@QMimeData@@QBE?AV?$QList@VQUrl@@@@XZ @6607
?userData@QObject@@QBEPAVQObjectUserData@@I@Z @6608
?userInfo@QUrl@@QBE?AVQString@@V?$QFlags@W4ComponentFormattingOption@QUrl@@@@@Z @6609
?userName@QUrl@@QBE?AVQString@@V?$QFlags@W4ComponentFormattingOption@QUrl@@@@@Z @6610
?userProperty@QMetaObject@@QBE?AVQMetaProperty@@XZ @6611
?userType@QMetaProperty@@QBEHXZ @6612
?userType@QVariant@@QBEHXZ @6613
?usleep@QThread@@SAXK@Z @6614
?utcOffset@QDateTime@@QBEHXZ @6615
?utcQByteArray@QTimeZonePrivate@@SA?AVQByteArray@@XZ @6616
?utcQString@QTimeZonePrivate@@SA?AVQString@@XZ @6617
?utf16@QString@@QBEPBGXZ @6618
?validateChars@QLocaleData@@QBE_NABVQString@@W4NumberMode@1@PAVQByteArray@@H_N@Z @6619
?value@?$QList@VQItemSelectionRange@@@@QBE?AVQItemSelectionRange@@H@Z @6620
?value@?$QList@VQItemSelectionRange@@@@QBE?AVQItemSelectionRange@@HABV2@@Z @6621
?value@?$QVector@VQPoint@@@@QBE?AVQPoint@@H@Z @6622
?value@?$QVector@VQPoint@@@@QBE?AVQPoint@@HABV2@@Z @6623
?value@?$QVector@VQPointF@@@@QBE?AVQPointF@@H@Z @6624
?value@?$QVector@VQPointF@@@@QBE?AVQPointF@@HABV2@@Z @6625
?value@?$QVector@VQXmlStreamAttribute@@@@QBE?AVQXmlStreamAttribute@@H@Z @6626
?value@?$QVector@VQXmlStreamAttribute@@@@QBE?AVQXmlStreamAttribute@@HABV2@@Z @6627
?value@QAssociativeIterable@@QBE?AVQVariant@@ABV2@@Z @6628
?value@QCommandLineParser@@QBE?AVQString@@ABV2@@Z @6629
?value@QCommandLineParser@@QBE?AVQString@@ABVQCommandLineOption@@@Z @6630
?value@QJsonObject@@QBE?AVQJsonValue@@ABVQString@@@Z @6631
?value@QMetaClassInfo@@QBEPBDXZ @6632
?value@QMetaEnum@@QBEHH@Z @6633
?value@QMetaEnumBuilder@@QBEHH@Z @6634
?value@QProcessEnvironment@@QBE?AVQString@@ABV2@0@Z @6635
?value@QSettings@@QBE?AVQVariant@@ABVQString@@ABV2@@Z @6636
?value@QXmlStreamAttribute@@QBE?AVQStringRef@@XZ @6637
?value@QXmlStreamAttributes@@QBE?AVQStringRef@@ABVQString@@0@Z @6638
?value@QXmlStreamAttributes@@QBE?AVQStringRef@@ABVQString@@@Z @6639
?value@QXmlStreamAttributes@@QBE?AVQStringRef@@ABVQString@@VQLatin1String@@@Z @6640
?value@QXmlStreamAttributes@@QBE?AVQStringRef@@VQLatin1String@@0@Z @6641
?value@QXmlStreamAttributes@@QBE?AVQStringRef@@VQLatin1String@@@Z @6642
?value@QXmlStreamEntityDeclaration@@QBE?AVQStringRef@@XZ @6643
?value@const_iterator@QAssociativeIterable@@QBE?BVQVariant@@XZ @6644
?valueAt@QJsonObject@@ABE?AVQJsonValue@@H@Z @6645
?valueChanged@QTimeLine@@QAEXNUQPrivateSignal@1@@Z @6646
?valueChanged@QVariantAnimation@@QAEXABVQVariant@@@Z @6647
?valueForProgress@QEasingCurve@@QBENN@Z @6648
?valueForTime@QTimeLine@@UBENH@Z @6649
?valueName@QCommandLineOption@@QBE?AVQString@@XZ @6650
?valueToKey@QMetaEnum@@QBEPBDH@Z @6651
?valueToKeys@QMetaEnum@@QBE?AVQByteArray@@H@Z @6652
?values@QCommandLineParser@@QBE?AVQStringList@@ABVQCommandLineOption@@@Z @6653
?values@QCommandLineParser@@QBE?AVQStringList@@ABVQString@@@Z @6654
?variant@QUuid@@QBE?AW4Variant@1@XZ @6655
?variantLessThan@QAbstractItemModelPrivate@@SA_NABVQVariant@@0@Z @6656
?vectorIndex@ResultIteratorBase@QtPrivate@@QBEHXZ @6657
?version@QDataStream@@QBEHXZ @6658
?version@QUuid@@QBE?AW4Version@1@XZ @6659
?vsprintf@QString@@QAEAAV1@PBDPAD@Z @6660
?wait@QThread@@QAE_NK@Z @6661
?wait@QWaitCondition@@QAE_NPAVQMutex@@K@Z @6662
?wait@QWaitCondition@@QAE_NPAVQReadWriteLock@@K@Z @6663
?waitForAnyNotified@QWinOverlappedIoNotifier@@QAEPAU_OVERLAPPED@@H@Z @6664
?waitForBytesWritten@QIODevice@@UAE_NH@Z @6665
?waitForBytesWritten@QProcess@@UAE_NH@Z @6666
?waitForDone@QThreadPool@@QAE_NH@Z @6667
?waitForDone@QThreadPoolPrivate@@QAE_NH@Z @6668
?waitForFinished@QFutureInterfaceBase@@QAEXXZ @6669
?waitForFinished@QFutureWatcherBase@@QAEXXZ @6670
?waitForFinished@QProcess@@QAE_NH@Z @6671
?waitForNextResult@QFutureInterfaceBase@@QAE_NXZ @6672
?waitForNotified@QWinOverlappedIoNotifier@@QAE_NHPAU_OVERLAPPED@@@Z @6673
?waitForPipeClosed@QWindowsPipeReader@@QAE_NH@Z @6674
?waitForReadyRead@QIODevice@@UAE_NH@Z @6675
?waitForReadyRead@QProcess@@UAE_NH@Z @6676
?waitForReadyRead@QWindowsPipeReader@@QAE_NH@Z @6677
?waitForResult@QFutureInterfaceBase@@QAEXH@Z @6678
?waitForResume@QFutureInterfaceBase@@QAEXXZ @6679
?waitForStarted@QProcess@@QAE_NH@Z @6680
?waitForWrite@QWindowsPipeWriter@@QAE_NH@Z @6681
?wakeAll@QWaitCondition@@QAEXXZ @6682
?wakeOne@QWaitCondition@@QAEXXZ @6683
?wakeUp@QEventDispatcherWin32@@UAEXXZ @6684
?wakeUp@QEventLoop@@QAEXXZ @6685
?warning@QMessageLogger@@QBAXABVQLoggingCategory@@PBDZZ @6686
?warning@QMessageLogger@@QBAXP6AABVQLoggingCategory@@XZPBDZZ @6687
?warning@QMessageLogger@@QBAXPBDZZ @6688
?warning@QMessageLogger@@QBE?AVQDebug@@ABVQLoggingCategory@@@Z @6689
?warning@QMessageLogger@@QBE?AVQDebug@@P6AABVQLoggingCategory@@XZ@Z @6690
?warning@QMessageLogger@@QBE?AVQDebug@@XZ @6691
?weakPointerFromVariant_internal@QtSharedPointer@@YA?AV?$QWeakPointer@VQObject@@@@ABVQVariant@@@Z @6692
?weekNumber@QDate@@QBEHPAH@Z @6693
?weekdays@QLocale@@QBE?AV?$QList@W4DayOfWeek@Qt@@@@XZ @6694
?width@QItemSelectionRange@@QBEHXZ @6695
?width@QRect@@QBEHXZ @6696
?width@QRectF@@QBENXZ @6697
?width@QSize@@QBEHXZ @6698
?width@QSizeF@@QBENXZ @6699
?willGrow@QHashData@@QAE_NXZ @6700
?winError@QWindowsPipeReader@@QAEXKABVQString@@@Z @6701
?windowsIdToDefaultIanaId@QTimeZone@@SA?AVQByteArray@@ABV2@@Z @6702
?windowsIdToDefaultIanaId@QTimeZone@@SA?AVQByteArray@@ABV2@W4Country@QLocale@@@Z @6703
?windowsIdToDefaultIanaId@QTimeZonePrivate@@SA?AVQByteArray@@ABV2@@Z @6704
?windowsIdToDefaultIanaId@QTimeZonePrivate@@SA?AVQByteArray@@ABV2@W4Country@QLocale@@@Z @6705
?windowsIdToIanaIds@QTimeZone@@SA?AV?$QList@VQByteArray@@@@ABVQByteArray@@@Z @6706
?windowsIdToIanaIds@QTimeZone@@SA?AV?$QList@VQByteArray@@@@ABVQByteArray@@W4Country@QLocale@@@Z @6707
?windowsIdToIanaIds@QTimeZonePrivate@@SA?AV?$QList@VQByteArray@@@@ABVQByteArray@@@Z @6708
?windowsIdToIanaIds@QTimeZonePrivate@@SA?AV?$QList@VQByteArray@@@@ABVQByteArray@@W4Country@QLocale@@@Z @6709
?windowsVersion@QSysInfo@@SA?AW4WinVersion@1@XZ @6710
?wordBreakClass@QUnicodeTables@@YI?AW4WordBreakClass@1@I@Z @6711
?workingDirectory@QProcess@@QBE?AVQString@@XZ @6712
?wrap@QNonContiguousByteDeviceFactory@@SAPAVQIODevice@@PAVQNonContiguousByteDevice@@@Z @6713
?writableLocation@QStandardPaths@@SA?AVQString@@W4StandardLocation@1@@Z @6714
?write@QAbstractFileEngine@@UAE_JPBD_J@Z @6715
?write@QFSFileEngine@@UAE_JPBD_J@Z @6716
?write@QIODevice@@QAE_JABVQByteArray@@@Z @6717
?write@QIODevice@@QAE_JPBD@Z @6718
?write@QIODevice@@QAE_JPBD_J@Z @6719
?write@QMetaProperty@@QBE_NPAVQObject@@ABVQVariant@@@Z @6720
?write@QWindowsPipeWriter@@QAE_JPBD_J@Z @6721
?writeAttribute@QXmlStreamWriter@@QAEXABVQString@@00@Z @6722
?writeAttribute@QXmlStreamWriter@@QAEXABVQString@@0@Z @6723
?writeAttribute@QXmlStreamWriter@@QAEXABVQXmlStreamAttribute@@@Z @6724
?writeAttributes@QXmlStreamWriter@@QAEXABVQXmlStreamAttributes@@@Z @6725
?writeBlob@QMetaStringTable@@QBEXPAD@Z @6726
?writeBytes@QDataStream@@QAEAAV1@PBDI@Z @6727
?writeCDATA@QXmlStreamWriter@@QAEXABVQString@@@Z @6728
?writeCharacters@QXmlStreamWriter@@QAEXABVQString@@@Z @6729
?writeComment@QXmlStreamWriter@@QAEXABVQString@@@Z @6730
?writeCurrentToken@QXmlStreamWriter@@QAEXABVQXmlStreamReader@@@Z @6731
?writeDTD@QXmlStreamWriter@@QAEXABVQString@@@Z @6732
?writeData@QBuffer@@MAE_JPBD_J@Z @6733
?writeData@QFileDevice@@MAE_JPBD_J@Z @6734
?writeData@QProcess@@MAE_JPBD_J@Z @6735
?writeData@QSaveFile@@MAE_JPBD_J@Z @6736
?writeDefaultNamespace@QXmlStreamWriter@@QAEXABVQString@@@Z @6737
?writeEmptyElement@QXmlStreamWriter@@QAEXABVQString@@0@Z @6738
?writeEmptyElement@QXmlStreamWriter@@QAEXABVQString@@@Z @6739
?writeEndDocument@QXmlStreamWriter@@QAEXXZ @6740
?writeEndElement@QXmlStreamWriter@@QAEXXZ @6741
?writeEntityReference@QXmlStreamWriter@@QAEXABVQString@@@Z @6742
?writeNamespace@QXmlStreamWriter@@QAEXABVQString@@0@Z @6743
?writeProcessingInstruction@QXmlStreamWriter@@QAEXABVQString@@0@Z @6744
?writeRawData@QDataStream@@QAEHPBDH@Z @6745
?writeStartDocument@QXmlStreamWriter@@QAEXABVQString@@@Z @6746
?writeStartDocument@QXmlStreamWriter@@QAEXABVQString@@_N@Z @6747
?writeStartDocument@QXmlStreamWriter@@QAEXXZ @6748
?writeStartElement@QXmlStreamWriter@@QAEXABVQString@@0@Z @6749
?writeStartElement@QXmlStreamWriter@@QAEXABVQString@@@Z @6750
?writeTextElement@QXmlStreamWriter@@QAEXABVQString@@00@Z @6751
?writeTextElement@QXmlStreamWriter@@QAEXABVQString@@0@Z @6752
?ws@@YAAAVQTextStream@@AAV1@@Z @6753
?x1@QLine@@QBEHXZ @6754
?x1@QLineF@@QBENXZ @6755
?x2@QLine@@QBEHXZ @6756
?x2@QLineF@@QBENXZ @6757
?x@QPoint@@QBEHXZ @6758
?x@QPointF@@QBENXZ @6759
?x@QRect@@QBEHXZ @6760
?x@QRectF@@QBENXZ @6761
?y1@QLine@@QBEHXZ @6762
?y1@QLineF@@QBENXZ @6763
?y2@QLine@@QBEHXZ @6764
?y2@QLineF@@QBENXZ @6765
?y@QPoint@@QBEHXZ @6766
?y@QPointF@@QBENXZ @6767
?y@QRect@@QBEHXZ @6768
?y@QRectF@@QBENXZ @6769
?year@QDate@@QBEHXZ @6770
?yieldCurrentThread@QThread@@SAXXZ @6771
?zero@QLocalePrivate@@QBE?AVQChar@@XZ @6772
?zeroDigit@QLocale@@QBE?AVQChar@@XZ @6773
qVersion @6774
qt_addObject @6775
qt_removeObject @6776
qt_startup_hook @6777
z_adler32 @6778
z_adler32_combine @6779
z_adler32_combine64 @6780
z_compress @6781
z_compress2 @6782
z_compressBound @6783
z_crc32 @6784
z_crc32_combine @6785
z_crc32_combine64 @6786
z_deflate @6787
z_deflateBound @6788
z_deflateCopy @6789
z_deflateEnd @6790
z_deflateInit2_ @6791
z_deflateInit_ @6792
z_deflateParams @6793
z_deflatePrime @6794
z_deflateReset @6795
z_deflateSetDictionary @6796
z_deflateSetHeader @6797
z_deflateTune @6798
z_get_crc_table @6799
z_gzbuffer @6800
z_gzclearerr @6801
z_gzclose @6802
z_gzclose_r @6803
z_gzclose_w @6804
z_gzdirect @6805
z_gzdopen @6806
z_gzeof @6807
z_gzerror @6808
z_gzflush @6809
z_gzgetc @6810
z_gzgets @6811
z_gzoffset @6812
z_gzoffset64 @6813
z_gzopen @6814
z_gzopen64 @6815
z_gzprintf @6816
z_gzputc @6817
z_gzputs @6818
z_gzread @6819
z_gzrewind @6820
z_gzseek @6821
z_gzseek64 @6822
z_gzsetparams @6823
z_gztell @6824
z_gztell64 @6825
z_gzungetc @6826
z_gzwrite @6827
z_inflate @6828
z_inflateBack @6829
z_inflateBackEnd @6830
z_inflateBackInit_ @6831
z_inflateCopy @6832
z_inflateEnd @6833
z_inflateGetHeader @6834
z_inflateInit2_ @6835
z_inflateInit_ @6836
z_inflateMark @6837
z_inflatePrime @6838
z_inflateReset @6839
z_inflateReset2 @6840
z_inflateSetDictionary @6841
z_inflateSync @6842
z_inflateSyncPoint @6843
z_inflateUndermine @6844
z_uncompress @6845
z_zError @6846
z_zlibCompileFlags @6847
z_zlibVersion @6848
