EXPORTS
??0?$QQmlValueTypeBase@VQEasingCurve@@@@QAE@HPAVQObject@@@Z @1
??0?$QQmlValueTypeBase@VQPoint@@@@QAE@HPAVQObject@@@Z @2
??0?$QQmlValueTypeBase@VQPointF@@@@QAE@HPAVQObject@@@Z @3
??0?$QQmlValueTypeBase@VQRect@@@@QAE@HPAVQObject@@@Z @4
??0?$QQmlValueTypeBase@VQRectF@@@@QAE@HPAVQObject@@@Z @5
??0?$QQmlValueTypeBase@VQSize@@@@QAE@HPAVQObject@@@Z @6
??0?$QQmlValueTypeBase@VQSizeF@@@@QAE@HPAVQObject@@@Z @7
??0ArgumentList@AST@QQmlJS@@QAE@PAV012@PAVExpressionNode@12@@Z @8
??0ArgumentList@AST@QQmlJS@@QAE@PAVExpressionNode@12@@Z @9
??0ArrayLiteral@AST@QQmlJS@@QAE@PAVElementList@12@@Z @10
??0ArrayLiteral@AST@QQmlJS@@QAE@PAVElementList@12@PAVElision@12@@Z @11
??0ArrayLiteral@AST@QQmlJS@@QAE@PAVElision@12@@Z @12
??0ArrayMemberExpression@AST@QQmlJS@@QAE@PAVExpressionNode@12@0@Z @13
??0BinaryExpression@AST@QQmlJS@@QAE@PAVExpressionNode@12@H0@Z @14
??0Binding@CompiledData@QV4@@QAE@XZ @15
??0Blob@QQmlTypeLoader@@QAE@ABV01@@Z @16
??0Blob@QQmlTypeLoader@@QAE@ABVQUrl@@W4Type@QQmlDataBlob@@PAV1@@Z @17
??0Block@AST@QQmlJS@@QAE@PAVStatementList@12@@Z @18
??0BreakStatement@AST@QQmlJS@@QAE@ABVQStringRef@@@Z @19
??0CallExpression@AST@QQmlJS@@QAE@PAVExpressionNode@12@PAVArgumentList@12@@Z @20
??0CaseBlock@AST@QQmlJS@@QAE@PAVCaseClauses@12@PAVDefaultClause@12@0@Z @21
??0CaseClause@AST@QQmlJS@@QAE@PAVExpressionNode@12@PAVStatementList@12@@Z @22
??0CaseClauses@AST@QQmlJS@@QAE@PAV012@PAVCaseClause@12@@Z @23
??0CaseClauses@AST@QQmlJS@@QAE@PAVCaseClause@12@@Z @24
??0Catch@AST@QQmlJS@@QAE@ABVQStringRef@@PAVBlock@12@@Z @25
??0Codegen@QQmlJS@@QAE@ABV01@@Z @26
??0Codegen@QQmlJS@@QAE@_N@Z @27
??0Collector@Debugger@Debugging@QV4@@QAE@ABV0123@@Z @28
??0Collector@Debugger@Debugging@QV4@@QAE@PAUExecutionEngine@3@@Z @29
??0CompilationUnit@CompiledData@QV4@@QAE@ABU012@@Z @30
??0CompilationUnit@CompiledData@QV4@@QAE@XZ @31
??0CompiledFunctionOrExpression@QmlIR@@QAE@PAVNode@AST@QQmlJS@@@Z @32
??0CompiledFunctionOrExpression@QmlIR@@QAE@XZ @33
??0ConditionalExpression@AST@QQmlJS@@QAE@PAVExpressionNode@12@00@Z @34
??0ContinueStatement@AST@QQmlJS@@QAE@ABVQStringRef@@@Z @35
??0Data@BuiltinFunction@QV4@@QAE@PAUExecutionContext@2@PAUString@2@P6A_KPAUCallContext@2@@Z@Z @36
??0Data@FunctionObject@QV4@@QAE@PAUExecutionContext@2@ABVQString@@_N@Z @37
??0Data@FunctionObject@QV4@@QAE@PAUExecutionContext@2@PAUString@2@_N@Z @38
??0Data@FunctionObject@QV4@@QAE@PAUExecutionContext@2@_K@Z @39
??0Data@FunctionObject@QV4@@QAE@PAUInternalClass@2@@Z @40
??0Data@Managed@QV4@@QAE@PAUInternalClass@2@@Z @41
??0Data@Managed@QV4@@QAE@XZ @42
??0Data@String@QV4@@QAE@PAUExecutionEngine@2@ABVQString@@@Z @43
??0Data@String@QV4@@QAE@PAUExecutionEngine@2@PAU12@1@Z @44
??0Debugger@Debugging@QV4@@QAE@PAUExecutionEngine@2@@Z @45
??0DebuggerAgent@Debugging@QV4@@QAE@XZ @46
??0DebuggerStatement@AST@QQmlJS@@QAE@XZ @47
??0DefaultClause@AST@QQmlJS@@QAE@PAVStatementList@12@@Z @48
??0DeleteExpression@AST@QQmlJS@@QAE@PAVExpressionNode@12@@Z @49
??0DiagnosticMessage@QQmlJS@@QAE@ABV01@@Z @50
??0DiagnosticMessage@QQmlJS@@QAE@W4Kind@01@ABVSourceLocation@AST@1@ABVQString@@@Z @51
??0DiagnosticMessage@QQmlJS@@QAE@XZ @52
??0Directives@QQmlJS@@QAE@ABV01@@Z @53
??0Directives@QQmlJS@@QAE@XZ @54
??0DoWhileStatement@AST@QQmlJS@@QAE@PAVStatement@12@PAVExpressionNode@12@@Z @55
??0Document@QmlIR@@QAE@_N@Z @56
??0ElementList@AST@QQmlJS@@QAE@PAV012@PAVElision@12@PAVExpressionNode@12@@Z @57
??0ElementList@AST@QQmlJS@@QAE@PAVElision@12@PAVExpressionNode@12@@Z @58
??0Elision@AST@QQmlJS@@QAE@PAV012@@Z @59
??0Elision@AST@QQmlJS@@QAE@XZ @60
??0EmptyStatement@AST@QQmlJS@@QAE@XZ @61
??0Engine@QQmlJS@@QAE@XZ @62
??0EvalISelFactory@QV4@@QAE@ABV01@@Z @63
??0EvalISelFactory@QV4@@QAE@XZ @64
??0EvalInstructionSelection@QV4@@QAE@PAVExecutableAllocator@1@PAUModule@IR@1@PAUJSUnitGenerator@Compiler@1@@Z @65
??0ExecutionContext@QV4@@QAE@PAUExecutionEngine@1@W4ContextType@01@@Z @66
??0ExecutionEngine@QV4@@QAE@PAVEvalISelFactory@1@@Z @67
??0Expression@AST@QQmlJS@@QAE@PAVExpressionNode@12@0@Z @68
??0ExpressionNode@AST@QQmlJS@@QAE@XZ @69
??0ExpressionStatement@AST@QQmlJS@@QAE@PAVExpressionNode@12@@Z @70
??0FalseLiteral@AST@QQmlJS@@QAE@XZ @71
??0FieldMemberExpression@AST@QQmlJS@@QAE@PAVExpressionNode@12@ABVQStringRef@@@Z @72
??0Finally@AST@QQmlJS@@QAE@PAVBlock@12@@Z @73
??0ForEachStatement@AST@QQmlJS@@QAE@PAVExpressionNode@12@0PAVStatement@12@@Z @74
??0ForStatement@AST@QQmlJS@@QAE@PAVExpressionNode@12@00PAVStatement@12@@Z @75
??0FormalParameterList@AST@QQmlJS@@QAE@ABVQStringRef@@@Z @76
??0FormalParameterList@AST@QQmlJS@@QAE@PAV012@ABVQStringRef@@@Z @77
??0Function@QV4@@QAE@PAUExecutionEngine@1@PAUCompilationUnit@CompiledData@1@PBU041@P6A_KPAUExecutionContext@1@PBE@Z@Z @78
??0FunctionBody@AST@QQmlJS@@QAE@PAVSourceElements@12@@Z @79
??0FunctionDeclaration@AST@QQmlJS@@QAE@ABVQStringRef@@PAVFormalParameterList@12@PAVFunctionBody@12@@Z @80
??0FunctionExpression@AST@QQmlJS@@QAE@ABVQStringRef@@PAVFormalParameterList@12@PAVFunctionBody@12@@Z @81
??0FunctionSourceElement@AST@QQmlJS@@QAE@PAVFunctionDeclaration@12@@Z @82
??0IRBuilder@QmlIR@@QAE@ABU01@@Z @83
??0IRBuilder@QmlIR@@QAE@ABV?$QSet@VQString@@@@@Z @84
??0IRDecoder@IR@QV4@@QAE@ABV012@@Z @85
??0IRDecoder@IR@QV4@@QAE@XZ @86
??0ISelFactory@JIT@QV4@@QAE@ABV012@@Z @87
??0ISelFactory@JIT@QV4@@QAE@XZ @88
??0ISelFactory@Moth@QV4@@QAE@ABV012@@Z @89
??0ISelFactory@Moth@QV4@@QAE@XZ @90
??0IdentifierExpression@AST@QQmlJS@@QAE@ABVQStringRef@@@Z @91
??0IdentifierPropertyName@AST@QQmlJS@@QAE@ABVQStringRef@@@Z @92
??0IfStatement@AST@QQmlJS@@QAE@PAVExpressionNode@12@PAVStatement@12@1@Z @93
??0InstructionSelection@JIT@QV4@@QAE@PAVQQmlEnginePrivate@@PAVExecutableAllocator@2@PAUModule@IR@2@PAUJSUnitGenerator@Compiler@2@@Z @94
??0InstructionSelection@Moth@QV4@@QAE@PAVQQmlEnginePrivate@@PAVExecutableAllocator@2@PAUModule@IR@2@PAUJSUnitGenerator@Compiler@2@@Z @95
??0JSCodeGen@QmlIR@@QAE@ABU01@@Z @96
??0JSCodeGen@QmlIR@@QAE@ABVQString@@0PAUModule@IR@QV4@@PAVEngine@QQmlJS@@PAVUiProgram@AST@7@PAVQQmlTypeNameCache@@PBUStringTableGenerator@Compiler@5@@Z @97
??0JSUnitGenerator@Compiler@QV4@@QAE@ABU012@@Z @98
??0JSUnitGenerator@Compiler@QV4@@QAE@PAUModule@IR@2@@Z @99
??0LabelledStatement@AST@QQmlJS@@QAE@ABVQStringRef@@PAVStatement@12@@Z @100
??0Lexer@QQmlJS@@QAE@ABV01@@Z @101
??0Lexer@QQmlJS@@QAE@PAVEngine@1@@Z @102
??0LocalForEachStatement@AST@QQmlJS@@QAE@PAVVariableDeclaration@12@PAVExpressionNode@12@PAVStatement@12@@Z @103
??0LocalForStatement@AST@QQmlJS@@QAE@PAVVariableDeclarationList@12@PAVExpressionNode@12@1PAVStatement@12@@Z @104
??0Managed@QQmlJS@@QAE@XZ @105
??0Managed@QV4@@IAE@PAUInternalClass@1@@Z @106
??0MemoryManager@QV4@@QAE@XZ @107
??0MemoryPool@QQmlJS@@QAE@XZ @108
??0Module@IR@QV4@@QAE@_N@Z @109
??0NestedExpression@AST@QQmlJS@@QAE@PAVExpressionNode@12@@Z @110
??0NewExpression@AST@QQmlJS@@QAE@PAVExpressionNode@12@@Z @111
??0NewMemberExpression@AST@QQmlJS@@QAE@PAVExpressionNode@12@PAVArgumentList@12@@Z @112
??0Node@AST@QQmlJS@@QAE@XZ @113
??0NotExpression@AST@QQmlJS@@QAE@PAVExpressionNode@12@@Z @114
??0NullExpression@AST@QQmlJS@@QAE@XZ @115
??0NumericLiteral@AST@QQmlJS@@QAE@N@Z @116
??0NumericLiteralPropertyName@AST@QQmlJS@@QAE@N@Z @117
??0Object@QmlIR@@QAE@XZ @118
??0ObjectIterator@QV4@@AAE@PAUValue@1@0I@Z @119
??0ObjectIterator@QV4@@QAE@AAUScope@1@PAUObject@1@I@Z @120
??0ObjectIterator@QV4@@QAE@PAUValue@1@0PAUObject@1@I@Z @121
??0ObjectLiteral@AST@QQmlJS@@QAE@PAVPropertyAssignmentList@12@@Z @122
??0ObjectLiteral@AST@QQmlJS@@QAE@XZ @123
??0Optimizer@IR@QV4@@QAE@PAUFunction@12@@Z @124
??0Parser@QQmlJS@@QAE@ABV01@@Z @125
??0Parser@QQmlJS@@QAE@PAVEngine@1@@Z @126
??0PersistentValue@QV4@@QAE@ABV01@@Z @127
??0PersistentValue@QV4@@QAE@UValueRef@1@@Z @128
??0PersistentValue@QV4@@QAE@XZ @129
??0PersistentValue@QV4@@QAE@_K@Z @130
??0PersistentValuePrivate@QV4@@QAE@ABU01@@Z @131
??0PersistentValuePrivate@QV4@@QAE@_KPAUExecutionEngine@1@_N@Z @132
??0PostDecrementExpression@AST@QQmlJS@@QAE@PAVExpressionNode@12@@Z @133
??0PostIncrementExpression@AST@QQmlJS@@QAE@PAVExpressionNode@12@@Z @134
??0Pragma@QmlIR@@QAE@XZ @135
??0PreDecrementExpression@AST@QQmlJS@@QAE@PAVExpressionNode@12@@Z @136
??0PreIncrementExpression@AST@QQmlJS@@QAE@PAVExpressionNode@12@@Z @137
??0Profiler@Profiling@QV4@@QAE@PAUExecutionEngine@2@@Z @138
??0Program@AST@QQmlJS@@QAE@PAVSourceElements@12@@Z @139
??0PropertyAssignment@AST@QQmlJS@@QAE@PAVPropertyName@12@@Z @140
??0PropertyAssignmentList@AST@QQmlJS@@QAE@PAV012@PAVPropertyAssignment@12@@Z @141
??0PropertyAssignmentList@AST@QQmlJS@@QAE@PAVPropertyAssignment@12@@Z @142
??0PropertyGetterSetter@AST@QQmlJS@@QAE@PAVPropertyName@12@PAVFormalParameterList@12@PAVFunctionBody@12@@Z @143
??0PropertyGetterSetter@AST@QQmlJS@@QAE@PAVPropertyName@12@PAVFunctionBody@12@@Z @144
??0PropertyName@AST@QQmlJS@@QAE@XZ @145
??0PropertyNameAndValue@AST@QQmlJS@@QAE@PAVPropertyName@12@PAVExpressionNode@12@@Z @146
??0PropertyResolver@QmlIR@@QAE@PAVQQmlPropertyCache@@@Z @147
??0QAbstractAnimationJob@@QAE@XZ @148
??0QAnimationGroupJob@@QAE@XZ @149
??0QAnimationJobChangeListener@@QAE@ABV0@@Z @150
??0QAnimationJobChangeListener@@QAE@XZ @151
??0QContinuingAnimationGroupJob@@QAE@XZ @152
??0QJSEngine@@IAE@AAVQJSEnginePrivate@@PAVQObject@@@Z @153
??0QJSEngine@@QAE@PAVQObject@@@Z @154
??0QJSEngine@@QAE@XZ @155
??0QJSValue@@QAE@ABV0@@Z @156
??0QJSValue@@QAE@ABVQLatin1String@@@Z @157
??0QJSValue@@QAE@ABVQString@@@Z @158
??0QJSValue@@QAE@H@Z @159
??0QJSValue@@QAE@I@Z @160
??0QJSValue@@QAE@N@Z @161
??0QJSValue@@QAE@PAVQJSValuePrivate@@@Z @162
??0QJSValue@@QAE@PBD@Z @163
??0QJSValue@@QAE@W4SpecialValue@0@@Z @164
??0QJSValue@@QAE@_N@Z @165
??0QJSValueIterator@@QAE@ABVQJSValue@@@Z @166
??0QJSValuePrivate@@QAE@ABV0@@Z @167
??0QJSValuePrivate@@QAE@ABVQString@@@Z @168
??0QJSValuePrivate@@QAE@PAUExecutionEngine@QV4@@UValueRef@2@@Z @169
??0QJSValuePrivate@@QAE@_K@Z @170
??0QParallelAnimationGroupJob@@QAE@XZ @171
??0QPauseAnimationJob@@QAE@H@Z @172
??0QQmlAbstractBinding@@IAE@W4BindingType@0@@Z @173
??0QQmlAbstractBinding@@QAE@ABV0@@Z @174
??0QQmlAbstractBoundSignal@@QAE@ABV0@@Z @175
??0QQmlAbstractBoundSignal@@QAE@XZ @176
??0QQmlAbstractExpression@@QAE@ABV0@@Z @177
??0QQmlAbstractExpression@@QAE@XZ @178
??0QQmlAbstractProfilerAdapter@@QAE@PAVQQmlProfilerService@@@Z @179
??0QQmlAbstractUrlInterceptor@@QAE@ABV0@@Z @180
??0QQmlAbstractUrlInterceptor@@QAE@XZ @181
??0QQmlAnimationTimer@@AAE@XZ @182
??0QQmlApplication@@IAE@AAVQQmlApplicationPrivate@@PAVQObject@@@Z @183
??0QQmlApplication@@QAE@PAVQObject@@@Z @184
??0QQmlApplicationEngine@@QAE@ABVQString@@PAVQObject@@@Z @185
??0QQmlApplicationEngine@@QAE@ABVQUrl@@PAVQObject@@@Z @186
??0QQmlApplicationEngine@@QAE@PAVQObject@@@Z @187
??0QQmlApplicationEnginePrivate@@QAE@PAVQQmlEngine@@@Z @188
??0QQmlBinding@@QAE@ABV0@@Z @189
??0QQmlBinding@@QAE@ABVQQmlScriptString@@PAVQObject@@PAVQQmlContext@@@Z @190
??0QQmlBinding@@QAE@ABVQString@@PAVQObject@@PAVQQmlContext@@@Z @191
??0QQmlBinding@@QAE@ABVQString@@PAVQObject@@PAVQQmlContextData@@0GG@Z @192
??0QQmlBinding@@QAE@ABVQString@@PAVQObject@@PAVQQmlContextData@@@Z @193
??0QQmlBinding@@QAE@UValueRef@QV4@@PAVQObject@@PAVQQmlContextData@@@Z @194
??0QQmlBoundSignal@@QAE@ABV0@@Z @195
??0QQmlBoundSignal@@QAE@PAVQObject@@H0PAVQQmlEngine@@@Z @196
??0QQmlBoundSignalExpression@@QAE@ABV0@@Z @197
??0QQmlBoundSignalExpression@@QAE@PAVQObject@@HPAVQQmlContextData@@0ABUValueRef@QV4@@@Z @198
??0QQmlBoundSignalExpression@@QAE@PAVQObject@@HPAVQQmlContextData@@0ABVQString@@2GG22@Z @199
??0QQmlBoundSignalExpression@@QAE@PAVQObject@@HPAVQQmlContextData@@0PAUFunction@QV4@@@Z @200
??0QQmlBoundSignalExpressionPointer@@QAE@ABV0@@Z @201
??0QQmlBoundSignalExpressionPointer@@QAE@PAVQQmlBoundSignalExpression@@@Z @202
??0QQmlBoundSignalExpressionPointer@@QAE@XZ @203
??0QQmlBundle@@QAE@ABVQString@@@Z @204
??0QQmlChangeSet@@QAE@ABV0@@Z @205
??0QQmlChangeSet@@QAE@XZ @206
??0QQmlCleanup@@QAE@ABV0@@Z @207
??0QQmlCleanup@@QAE@PAVQQmlEngine@@@Z @208
??0QQmlCleanup@@QAE@XZ @209
??0QQmlColorProvider@@QAE@ABV0@@Z @210
??0QQmlColorProvider@@QAE@XZ @211
??0QQmlComponent@@AAE@PAVQQmlEngine@@PAVQQmlCompiledData@@HPAVQObject@@@Z @212
??0QQmlComponent@@IAE@AAVQQmlComponentPrivate@@PAVQObject@@@Z @213
??0QQmlComponent@@QAE@PAVQObject@@@Z @214
??0QQmlComponent@@QAE@PAVQQmlEngine@@ABVQString@@PAVQObject@@@Z @215
??0QQmlComponent@@QAE@PAVQQmlEngine@@ABVQString@@W4CompilationMode@0@PAVQObject@@@Z @216
??0QQmlComponent@@QAE@PAVQQmlEngine@@ABVQUrl@@PAVQObject@@@Z @217
??0QQmlComponent@@QAE@PAVQQmlEngine@@ABVQUrl@@W4CompilationMode@0@PAVQObject@@@Z @218
??0QQmlComponent@@QAE@PAVQQmlEngine@@PAVQObject@@@Z @219
??0QQmlComponentAttached@@QAE@PAVQObject@@@Z @220
??0QQmlComponentPrivate@@QAE@XZ @221
??0QQmlContext@@AAE@PAVQQmlContextData@@@Z @222
??0QQmlContext@@AAE@PAVQQmlEngine@@_N@Z @223
??0QQmlContext@@QAE@PAV0@PAVQObject@@@Z @224
??0QQmlContext@@QAE@PAVQQmlEngine@@PAVQObject@@@Z @225
??0QQmlContextData@@QAE@ABV0@@Z @226
??0QQmlContextData@@QAE@PAVQQmlContext@@@Z @227
??0QQmlContextData@@QAE@XZ @228
??0QQmlCustomParser@@QAE@ABV0@@Z @229
??0QQmlCustomParser@@QAE@V?$QFlags@W4Flag@QQmlCustomParser@@@@@Z @230
??0QQmlCustomParser@@QAE@XZ @231
??0QQmlData@@QAE@ABV0@@Z @232
??0QQmlData@@QAE@XZ @233
??0QQmlDataBlob@@QAE@ABV0@@Z @234
??0QQmlDataBlob@@QAE@ABVQUrl@@W4Type@0@@Z @235
??0QQmlDebugServer@@AAE@XZ @236
??0QQmlDebugServerConnection@@QAE@ABV0@@Z @237
??0QQmlDebugServerConnection@@QAE@XZ @238
??0QQmlDebugService@@IAE@AAVQQmlDebugServicePrivate@@ABVQString@@MPAVQObject@@@Z @239
??0QQmlDebugService@@QAE@ABVQString@@MPAVQObject@@@Z @240
??0QQmlDebugStream@@QAE@ABVQByteArray@@@Z @241
??0QQmlDebugStream@@QAE@PAVQByteArray@@V?$QFlags@W4OpenModeFlag@QIODevice@@@@@Z @242
??0QQmlDebugStream@@QAE@PAVQIODevice@@@Z @243
??0QQmlDebugStream@@QAE@XZ @244
??0QQmlDebuggingEnabler@@QAE@_N@Z @245
??0QQmlDelegateModel@@QAE@PAVQQmlContext@@PAVQObject@@@Z @246
??0QQmlDelegateModel@@QAE@XZ @247
??0QQmlDelegateModelGroup@@QAE@ABVQString@@PAVQQmlDelegateModel@@HPAVQObject@@@Z @248
??0QQmlDelegateModelGroup@@QAE@PAVQObject@@@Z @249
??0QQmlDirParser@@QAE@XZ @250
??0QQmlEasingValueType@@QAE@PAVQObject@@@Z @251
??0QQmlEngine@@IAE@AAVQQmlEnginePrivate@@PAVQObject@@@Z @252
??0QQmlEngine@@QAE@PAVQObject@@@Z @253
??0QQmlEngineDebugService@@QAE@PAVQObject@@@Z @254
??0QQmlEnginePrivate@@QAE@PAVQQmlEngine@@@Z @255
??0QQmlError@@QAE@ABV0@@Z @256
??0QQmlError@@QAE@XZ @257
??0QQmlExpression@@AAE@PAVQQmlContextData@@PAVQObject@@ABVQString@@@Z @258
??0QQmlExpression@@QAE@ABVQQmlScriptString@@PAVQQmlContext@@PAVQObject@@2@Z @259
??0QQmlExpression@@QAE@PAVQQmlContext@@PAVQObject@@ABVQString@@1@Z @260
??0QQmlExpression@@QAE@XZ @261
??0QQmlExtensionInterface@@QAE@ABV0@@Z @262
??0QQmlExtensionInterface@@QAE@XZ @263
??0QQmlExtensionPlugin@@QAE@PAVQObject@@@Z @264
??0QQmlFile@@QAE@PAVQQmlEngine@@ABVQString@@@Z @265
??0QQmlFile@@QAE@PAVQQmlEngine@@ABVQUrl@@@Z @266
??0QQmlFile@@QAE@XZ @267
??0QQmlFileSelector@@QAE@PAVQQmlEngine@@PAVQObject@@@Z @268
??0QQmlFileSelectorInterceptor@@QAE@ABV0@@Z @269
??0QQmlFileSelectorInterceptor@@QAE@PAVQQmlFileSelectorPrivate@@@Z @270
??0QQmlFileSelectorPrivate@@QAE@XZ @271
??0QQmlGuiProvider@@QAE@ABV0@@Z @272
??0QQmlGuiProvider@@QAE@XZ @273
??0QQmlImageProviderBase@@AAE@XZ @274
??0QQmlImageProviderBase@@QAE@ABV0@@Z @275
??0QQmlImports@@QAE@ABV0@@Z @276
??0QQmlImports@@QAE@PAVQQmlTypeLoader@@@Z @277
??0QQmlIncubationController@@QAE@XZ @278
??0QQmlIncubator@@QAE@W4IncubationMode@0@@Z @279
??0QQmlInfo@@AAE@PAVQQmlInfoPrivate@@@Z @280
??0QQmlInfo@@QAE@ABV0@@Z @281
??0QQmlInspectorInterface@@QAE@ABV0@@Z @282
??0QQmlInspectorInterface@@QAE@XZ @283
??0QQmlInspectorService@@QAE@XZ @284
??0QQmlInstanceModel@@IAE@AAVQObjectPrivate@@PAVQObject@@@Z @285
??0QQmlListModel@@AAE@PAV0@PAVQQmlListModelWorkerAgent@@@Z @286
??0QQmlListModel@@AAE@PBV0@PAVListModel@@PAVQV8Engine@@PAVQObject@@@Z @287
??0QQmlListModel@@QAE@PAVQObject@@@Z @288
??0QQmlListReference@@QAE@ABV0@@Z @289
??0QQmlListReference@@QAE@PAVQObject@@PBDPAVQQmlEngine@@@Z @290
??0QQmlListReference@@QAE@XZ @291
??0QQmlMemoryScope@@QAE@ABVQUrl@@@Z @292
??0QQmlMemoryScope@@QAE@PBD@Z @293
??0QQmlMetaObject@@QAE@ABV0@@Z @294
??0QQmlMetaObject@@QAE@PAVQObject@@@Z @295
??0QQmlMetaObject@@QAE@PAVQQmlPropertyCache@@@Z @296
??0QQmlMetaObject@@QAE@PBUQMetaObject@@@Z @297
??0QQmlMetaObject@@QAE@XZ @298
??0QQmlNetworkAccessManagerFactory@@QAE@ABV0@@Z @299
??0QQmlNetworkAccessManagerFactory@@QAE@XZ @300
??0QQmlNotifier@@QAE@XZ @301
??0QQmlObjectModel@@QAE@PAVQObject@@@Z @302
??0QQmlOpenMetaObject@@QAE@ABV0@@Z @303
??0QQmlOpenMetaObject@@QAE@PAVQObject@@PAVQQmlOpenMetaObjectType@@_N@Z @304
??0QQmlOpenMetaObject@@QAE@PAVQObject@@PBUQMetaObject@@_N@Z @305
??0QQmlOpenMetaObjectType@@QAE@ABV0@@Z @306
??0QQmlOpenMetaObjectType@@QAE@PBUQMetaObject@@PAVQQmlEngine@@@Z @307
??0QQmlParserStatus@@QAE@ABV0@@Z @308
??0QQmlParserStatus@@QAE@XZ @309
??0QQmlPlatform@@QAE@PAVQObject@@@Z @310
??0QQmlPointFValueType@@QAE@PAVQObject@@@Z @311
??0QQmlPointValueType@@QAE@PAVQObject@@@Z @312
??0QQmlPool@@QAE@XZ @313
??0QQmlProfilerService@@QAE@XZ @314
??0QQmlProperty@@QAE@ABV0@@Z @315
??0QQmlProperty@@QAE@PAVQObject@@@Z @316
??0QQmlProperty@@QAE@PAVQObject@@ABVQString@@@Z @317
??0QQmlProperty@@QAE@PAVQObject@@ABVQString@@PAVQQmlContext@@@Z @318
??0QQmlProperty@@QAE@PAVQObject@@ABVQString@@PAVQQmlEngine@@@Z @319
??0QQmlProperty@@QAE@PAVQObject@@PAVQQmlContext@@@Z @320
??0QQmlProperty@@QAE@PAVQObject@@PAVQQmlEngine@@@Z @321
??0QQmlProperty@@QAE@XZ @322
??0QQmlPropertyCache@@QAE@ABV0@@Z @323
??0QQmlPropertyCache@@QAE@PAVQQmlEngine@@@Z @324
??0QQmlPropertyCache@@QAE@PAVQQmlEngine@@PBUQMetaObject@@@Z @325
??0QQmlPropertyMap@@QAE@PAVQObject@@@Z @326
??0QQmlPropertyPrivate@@QAE@ABV0@@Z @327
??0QQmlPropertyPrivate@@QAE@XZ @328
??0QQmlPropertyValueInterceptor@@QAE@ABV0@@Z @329
??0QQmlPropertyValueInterceptor@@QAE@XZ @330
??0QQmlPropertyValueSource@@QAE@ABV0@@Z @331
??0QQmlPropertyValueSource@@QAE@XZ @332
??0QQmlRectFValueType@@QAE@PAVQObject@@@Z @333
??0QQmlRectValueType@@QAE@PAVQObject@@@Z @334
??0QQmlRefCount@@QAE@ABV0@@Z @335
??0QQmlRefCount@@QAE@XZ @336
??0QQmlScriptString@@AAE@ABVQString@@PAVQQmlContext@@PAVQObject@@@Z @337
??0QQmlScriptString@@QAE@ABV0@@Z @338
??0QQmlScriptString@@QAE@XZ @339
??0QQmlSizeFValueType@@QAE@PAVQObject@@@Z @340
??0QQmlSizeValueType@@QAE@PAVQObject@@@Z @341
??0QQmlTimer@@QAE@PAVQObject@@@Z @342
??0QQmlType@@AAE@HABURegisterInterface@QQmlPrivate@@@Z @343
??0QQmlType@@AAE@HABVQString@@ABURegisterCompositeSingletonType@QQmlPrivate@@@Z @344
??0QQmlType@@AAE@HABVQString@@ABURegisterCompositeType@QQmlPrivate@@@Z @345
??0QQmlType@@AAE@HABVQString@@ABURegisterSingletonType@QQmlPrivate@@@Z @346
??0QQmlType@@AAE@HABVQString@@ABURegisterType@QQmlPrivate@@@Z @347
??0QQmlTypesExtensionInterface@@QAE@ABV0@@Z @348
??0QQmlTypesExtensionInterface@@QAE@XZ @349
??0QQmlV4Handle@@QAE@UValueRef@QV4@@@Z @350
??0QQmlV4Handle@@QAE@XZ @351
??0QQmlV4Handle@@QAE@_K@Z @352
??0QQmlVMEMetaObject@@QAE@PAVQObject@@PAVQQmlPropertyCache@@PBUQQmlVMEMetaData@@PAUExecutionContext@QV4@@PAVQQmlCompiledData@@@Z @353
??0QQmlValueType@@QAE@HPAVQObject@@@Z @354
??0QQmlValueTypeProvider@@QAE@ABV0@@Z @355
??0QQmlValueTypeProvider@@QAE@XZ @356
??0QSequentialAnimationGroupJob@@QAE@XZ @357
??0QV8Engine@@QAE@PAVQJSEngine@@@Z @358
??0QmlExtensions@QV4@@QAE@XZ @359
??0RegExpLiteral@AST@QQmlJS@@QAE@ABVQStringRef@@H@Z @360
??0ReturnStatement@AST@QQmlJS@@QAE@PAVExpressionNode@12@@Z @361
??0Script@QV4@@QAE@ABU01@@Z @362
??0Script@QV4@@QAE@PAUExecutionContext@1@ABVQString@@1HH@Z @363
??0Script@QV4@@QAE@PAUExecutionEngine@1@PAUObject@1@ABVQString@@2HH@Z @364
??0Script@QV4@@QAE@PAUExecutionEngine@1@PAUObject@1@PAUCompilationUnit@CompiledData@1@@Z @365
??0SingletonInstanceInfo@QQmlType@@QAE@ABV01@@Z @366
??0SingletonInstanceInfo@QQmlType@@QAE@XZ @367
??0SourceElement@AST@QQmlJS@@QAE@XZ @368
??0SourceElements@AST@QQmlJS@@QAE@PAV012@PAVSourceElement@12@@Z @369
??0SourceElements@AST@QQmlJS@@QAE@PAVSourceElement@12@@Z @370
??0SparseArray@QV4@@QAE@ABU01@@Z @371
??0SparseArray@QV4@@QAE@XZ @372
??0Statement@AST@QQmlJS@@QAE@XZ @373
??0StatementList@AST@QQmlJS@@QAE@PAV012@PAVStatement@12@@Z @374
??0StatementList@AST@QQmlJS@@QAE@PAVStatement@12@@Z @375
??0StatementSourceElement@AST@QQmlJS@@QAE@PAVStatement@12@@Z @376
??0StringLiteral@AST@QQmlJS@@QAE@ABVQStringRef@@@Z @377
??0StringLiteralPropertyName@AST@QQmlJS@@QAE@ABVQStringRef@@@Z @378
??0StringTableGenerator@Compiler@QV4@@QAE@ABU012@@Z @379
??0StringTableGenerator@Compiler@QV4@@QAE@XZ @380
??0SwitchStatement@AST@QQmlJS@@QAE@PAVExpressionNode@12@PAVCaseBlock@12@@Z @381
??0ThisExpression@AST@QQmlJS@@QAE@XZ @382
??0ThrowStatement@AST@QQmlJS@@QAE@PAVExpressionNode@12@@Z @383
??0TildeExpression@AST@QQmlJS@@QAE@PAVExpressionNode@12@@Z @384
??0TrueLiteral@AST@QQmlJS@@QAE@XZ @385
??0TryStatement@AST@QQmlJS@@QAE@PAVStatement@12@PAVCatch@12@@Z @386
??0TryStatement@AST@QQmlJS@@QAE@PAVStatement@12@PAVCatch@12@PAVFinally@12@@Z @387
??0TryStatement@AST@QQmlJS@@QAE@PAVStatement@12@PAVFinally@12@@Z @388
??0TypeOfExpression@AST@QQmlJS@@QAE@PAVExpressionNode@12@@Z @389
??0UiArrayBinding@AST@QQmlJS@@QAE@PAVUiQualifiedId@12@PAVUiArrayMemberList@12@@Z @390
??0UiArrayMemberList@AST@QQmlJS@@QAE@PAV012@PAVUiObjectMember@12@@Z @391
??0UiArrayMemberList@AST@QQmlJS@@QAE@PAVUiObjectMember@12@@Z @392
??0UiHeaderItemList@AST@QQmlJS@@QAE@PAV012@PAVUiImport@12@@Z @393
??0UiHeaderItemList@AST@QQmlJS@@QAE@PAV012@PAVUiPragma@12@@Z @394
??0UiHeaderItemList@AST@QQmlJS@@QAE@PAVUiImport@12@@Z @395
??0UiHeaderItemList@AST@QQmlJS@@QAE@PAVUiPragma@12@@Z @396
??0UiImport@AST@QQmlJS@@QAE@ABVQStringRef@@@Z @397
??0UiImport@AST@QQmlJS@@QAE@PAVUiQualifiedId@12@@Z @398
??0UiObjectBinding@AST@QQmlJS@@QAE@PAVUiQualifiedId@12@0PAVUiObjectInitializer@12@@Z @399
??0UiObjectDefinition@AST@QQmlJS@@QAE@PAVUiQualifiedId@12@PAVUiObjectInitializer@12@@Z @400
??0UiObjectInitializer@AST@QQmlJS@@QAE@PAVUiObjectMemberList@12@@Z @401
??0UiObjectMember@AST@QQmlJS@@QAE@XZ @402
??0UiObjectMemberList@AST@QQmlJS@@QAE@PAV012@PAVUiObjectMember@12@@Z @403
??0UiObjectMemberList@AST@QQmlJS@@QAE@PAVUiObjectMember@12@@Z @404
??0UiParameterList@AST@QQmlJS@@QAE@ABVQStringRef@@0@Z @405
??0UiParameterList@AST@QQmlJS@@QAE@PAV012@ABVQStringRef@@1@Z @406
??0UiPragma@AST@QQmlJS@@QAE@PAVUiQualifiedPragmaId@12@@Z @407
??0UiProgram@AST@QQmlJS@@QAE@PAVUiHeaderItemList@12@PAVUiObjectMemberList@12@@Z @408
??0UiPublicMember@AST@QQmlJS@@QAE@ABVQStringRef@@0@Z @409
??0UiPublicMember@AST@QQmlJS@@QAE@ABVQStringRef@@0PAVStatement@12@@Z @410
??0UiQualifiedId@AST@QQmlJS@@QAE@ABVQStringRef@@@Z @411
??0UiQualifiedId@AST@QQmlJS@@QAE@PAV012@ABVQStringRef@@@Z @412
??0UiQualifiedPragmaId@AST@QQmlJS@@QAE@ABVQStringRef@@@Z @413
??0UiQualifiedPragmaId@AST@QQmlJS@@QAE@PAV012@ABVQStringRef@@@Z @414
??0UiScriptBinding@AST@QQmlJS@@QAE@PAVUiQualifiedId@12@PAVStatement@12@@Z @415
??0UiSourceElement@AST@QQmlJS@@QAE@PAVNode@12@@Z @416
??0UnaryMinusExpression@AST@QQmlJS@@QAE@PAVExpressionNode@12@@Z @417
??0UnaryPlusExpression@AST@QQmlJS@@QAE@PAVExpressionNode@12@@Z @418
??0VariableDeclaration@AST@QQmlJS@@QAE@ABVQStringRef@@PAVExpressionNode@12@@Z @419
??0VariableDeclarationList@AST@QQmlJS@@QAE@PAV012@PAVVariableDeclaration@12@@Z @420
??0VariableDeclarationList@AST@QQmlJS@@QAE@PAVVariableDeclaration@12@@Z @421
??0VariableStatement@AST@QQmlJS@@QAE@PAVVariableDeclarationList@12@@Z @422
??0Visitor@AST@QQmlJS@@QAE@ABV012@@Z @423
??0Visitor@AST@QQmlJS@@QAE@XZ @424
??0VoidExpression@AST@QQmlJS@@QAE@PAVExpressionNode@12@@Z @425
??0WeakValue@QV4@@QAE@ABV01@@Z @426
??0WeakValue@QV4@@QAE@UValueRef@1@@Z @427
??0WeakValue@QV4@@QAE@XZ @428
??0WeakValue@QV4@@QAE@_K@Z @429
??0WhileStatement@AST@QQmlJS@@QAE@PAVExpressionNode@12@PAVStatement@12@@Z @430
??0WithStatement@AST@QQmlJS@@QAE@PAVExpressionNode@12@PAVStatement@12@@Z @431
??1?$QQmlValueTypeBase@VQEasingCurve@@@@UAE@XZ @432
??1?$QQmlValueTypeBase@VQPoint@@@@UAE@XZ @433
??1?$QQmlValueTypeBase@VQPointF@@@@UAE@XZ @434
??1?$QQmlValueTypeBase@VQRect@@@@UAE@XZ @435
??1?$QQmlValueTypeBase@VQRectF@@@@UAE@XZ @436
??1?$QQmlValueTypeBase@VQSize@@@@UAE@XZ @437
??1?$QQmlValueTypeBase@VQSizeF@@@@UAE@XZ @438
??1ArgumentList@AST@QQmlJS@@UAE@XZ @439
??1ArrayLiteral@AST@QQmlJS@@UAE@XZ @440
??1ArrayMemberExpression@AST@QQmlJS@@UAE@XZ @441
??1BinaryExpression@AST@QQmlJS@@UAE@XZ @442
??1Blob@QQmlTypeLoader@@UAE@XZ @443
??1Block@AST@QQmlJS@@UAE@XZ @444
??1BreakStatement@AST@QQmlJS@@UAE@XZ @445
??1CallExpression@AST@QQmlJS@@UAE@XZ @446
??1CaseBlock@AST@QQmlJS@@UAE@XZ @447
??1CaseClause@AST@QQmlJS@@UAE@XZ @448
??1CaseClauses@AST@QQmlJS@@UAE@XZ @449
??1Catch@AST@QQmlJS@@UAE@XZ @450
??1Codegen@QQmlJS@@UAE@XZ @451
??1Collector@Debugger@Debugging@QV4@@UAE@XZ @452
??1CompilationUnit@CompiledData@QV4@@UAE@XZ @453
??1ConditionalExpression@AST@QQmlJS@@UAE@XZ @454
??1ContinueStatement@AST@QQmlJS@@UAE@XZ @455
??1Data@BuiltinFunction@QV4@@QAE@XZ @456
??1Data@FunctionObject@QV4@@QAE@XZ @457
??1Data@String@QV4@@QAE@XZ @458
??1Debugger@Debugging@QV4@@QAE@XZ @459
??1DebuggerAgent@Debugging@QV4@@UAE@XZ @460
??1DebuggerStatement@AST@QQmlJS@@UAE@XZ @461
??1DefaultClause@AST@QQmlJS@@UAE@XZ @462
??1DeleteExpression@AST@QQmlJS@@UAE@XZ @463
??1DiagnosticMessage@QQmlJS@@QAE@XZ @464
??1Directives@QQmlJS@@UAE@XZ @465
??1DoWhileStatement@AST@QQmlJS@@UAE@XZ @466
??1Document@QmlIR@@QAE@XZ @467
??1ElementList@AST@QQmlJS@@UAE@XZ @468
??1Elision@AST@QQmlJS@@UAE@XZ @469
??1EmptyStatement@AST@QQmlJS@@UAE@XZ @470
??1Engine@QQmlJS@@QAE@XZ @471
??1EvalISelFactory@QV4@@UAE@XZ @472
??1EvalInstructionSelection@QV4@@UAE@XZ @473
??1ExecutionEngine@QV4@@QAE@XZ @474
??1Expression@AST@QQmlJS@@UAE@XZ @475
??1ExpressionNode@AST@QQmlJS@@UAE@XZ @476
??1ExpressionStatement@AST@QQmlJS@@UAE@XZ @477
??1FalseLiteral@AST@QQmlJS@@UAE@XZ @478
??1FieldMemberExpression@AST@QQmlJS@@UAE@XZ @479
??1Finally@AST@QQmlJS@@UAE@XZ @480
??1ForEachStatement@AST@QQmlJS@@UAE@XZ @481
??1ForStatement@AST@QQmlJS@@UAE@XZ @482
??1FormalParameterList@AST@QQmlJS@@UAE@XZ @483
??1Function@QV4@@QAE@XZ @484
??1FunctionBody@AST@QQmlJS@@UAE@XZ @485
??1FunctionDeclaration@AST@QQmlJS@@UAE@XZ @486
??1FunctionExpression@AST@QQmlJS@@UAE@XZ @487
??1FunctionSourceElement@AST@QQmlJS@@UAE@XZ @488
??1IRBuilder@QmlIR@@UAE@XZ @489
??1IRDecoder@IR@QV4@@UAE@XZ @490
??1ISelFactory@JIT@QV4@@UAE@XZ @491
??1ISelFactory@Moth@QV4@@UAE@XZ @492
??1IdentifierExpression@AST@QQmlJS@@UAE@XZ @493
??1IdentifierPropertyName@AST@QQmlJS@@UAE@XZ @494
??1IfStatement@AST@QQmlJS@@UAE@XZ @495
??1InstructionSelection@JIT@QV4@@UAE@XZ @496
??1InstructionSelection@Moth@QV4@@UAE@XZ @497
??1JSCodeGen@QmlIR@@UAE@XZ @498
??1JSUnitGenerator@Compiler@QV4@@QAE@XZ @499
??1LabelledStatement@AST@QQmlJS@@UAE@XZ @500
??1Lexer@QQmlJS@@QAE@XZ @501
??1LocalForEachStatement@AST@QQmlJS@@UAE@XZ @502
??1LocalForStatement@AST@QQmlJS@@UAE@XZ @503
??1Managed@QQmlJS@@QAE@XZ @504
??1MemoryManager@QV4@@QAE@XZ @505
??1MemoryPool@QQmlJS@@QAE@XZ @506
??1Module@IR@QV4@@QAE@XZ @507
??1NestedExpression@AST@QQmlJS@@UAE@XZ @508
??1NewExpression@AST@QQmlJS@@UAE@XZ @509
??1NewMemberExpression@AST@QQmlJS@@UAE@XZ @510
??1Node@AST@QQmlJS@@UAE@XZ @511
??1NotExpression@AST@QQmlJS@@UAE@XZ @512
??1NullExpression@AST@QQmlJS@@UAE@XZ @513
??1NumericLiteral@AST@QQmlJS@@UAE@XZ @514
??1NumericLiteralPropertyName@AST@QQmlJS@@UAE@XZ @515
??1ObjectLiteral@AST@QQmlJS@@UAE@XZ @516
??1Optimizer@IR@QV4@@QAE@XZ @517
??1Parser@QQmlJS@@QAE@XZ @518
??1PersistentValue@QV4@@QAE@XZ @519
??1PersistentValuePrivate@QV4@@UAE@XZ @520
??1PostDecrementExpression@AST@QQmlJS@@UAE@XZ @521
??1PostIncrementExpression@AST@QQmlJS@@UAE@XZ @522
??1PreDecrementExpression@AST@QQmlJS@@UAE@XZ @523
??1PreIncrementExpression@AST@QQmlJS@@UAE@XZ @524
??1Profiler@Profiling@QV4@@UAE@XZ @525
??1Program@AST@QQmlJS@@UAE@XZ @526
??1PropertyAssignment@AST@QQmlJS@@UAE@XZ @527
??1PropertyAssignmentList@AST@QQmlJS@@UAE@XZ @528
??1PropertyGetterSetter@AST@QQmlJS@@UAE@XZ @529
??1PropertyName@AST@QQmlJS@@UAE@XZ @530
??1PropertyNameAndValue@AST@QQmlJS@@UAE@XZ @531
??1QAbstractAnimationJob@@UAE@XZ @532
??1QAnimationGroupJob@@UAE@XZ @533
??1QAnimationJobChangeListener@@UAE@XZ @534
??1QContinuingAnimationGroupJob@@UAE@XZ @535
??1QJSEngine@@UAE@XZ @536
??1QJSValue@@QAE@XZ @537
??1QJSValueIterator@@QAE@XZ @538
??1QJSValuePrivate@@UAE@XZ @539
??1QParallelAnimationGroupJob@@UAE@XZ @540
??1QPauseAnimationJob@@UAE@XZ @541
??1QQmlAbstractBinding@@IAE@XZ @542
??1QQmlAbstractBoundSignal@@UAE@XZ @543
??1QQmlAbstractExpression@@UAE@XZ @544
??1QQmlAbstractProfilerAdapter@@UAE@XZ @545
??1QQmlAbstractUrlInterceptor@@UAE@XZ @546
??1QQmlAnimationTimer@@UAE@XZ @547
??1QQmlApplication@@UAE@XZ @548
??1QQmlApplicationEngine@@UAE@XZ @549
??1QQmlApplicationEnginePrivate@@UAE@XZ @550
??1QQmlBinding@@MAE@XZ @551
??1QQmlBoundSignal@@UAE@XZ @552
??1QQmlBoundSignalExpression@@EAE@XZ @553
??1QQmlBoundSignalExpressionPointer@@QAE@XZ @554
??1QQmlBundle@@QAE@XZ @555
??1QQmlChangeSet@@QAE@XZ @556
??1QQmlCleanup@@UAE@XZ @557
??1QQmlColorProvider@@UAE@XZ @558
??1QQmlComponent@@UAE@XZ @559
??1QQmlComponentAttached@@UAE@XZ @560
??1QQmlComponentPrivate@@UAE@XZ @561
??1QQmlContext@@UAE@XZ @562
??1QQmlContextData@@AAE@XZ @563
??1QQmlCustomParser@@UAE@XZ @564
??1QQmlData@@QAE@XZ @565
??1QQmlDataBlob@@UAE@XZ @566
??1QQmlDebugServer@@UAE@XZ @567
??1QQmlDebugServerConnection@@UAE@XZ @568
??1QQmlDebugService@@UAE@XZ @569
??1QQmlDebugStream@@QAE@XZ @570
??1QQmlDelegateModel@@UAE@XZ @571
??1QQmlDelegateModelGroup@@UAE@XZ @572
??1QQmlDirParser@@QAE@XZ @573
??1QQmlEasingValueType@@UAE@XZ @574
??1QQmlEngine@@UAE@XZ @575
??1QQmlEngineDebugService@@UAE@XZ @576
??1QQmlEnginePrivate@@UAE@XZ @577
??1QQmlError@@QAE@XZ @578
??1QQmlExpression@@UAE@XZ @579
??1QQmlExtensionInterface@@UAE@XZ @580
??1QQmlExtensionPlugin@@UAE@XZ @581
??1QQmlFile@@QAE@XZ @582
??1QQmlFileSelector@@UAE@XZ @583
??1QQmlFileSelectorInterceptor@@UAE@XZ @584
??1QQmlFileSelectorPrivate@@UAE@XZ @585
??1QQmlGuiProvider@@UAE@XZ @586
??1QQmlImageProviderBase@@UAE@XZ @587
??1QQmlImports@@QAE@XZ @588
??1QQmlIncubationController@@UAE@XZ @589
??1QQmlIncubator@@UAE@XZ @590
??1QQmlInfo@@QAE@XZ @591
??1QQmlInspectorInterface@@UAE@XZ @592
??1QQmlInspectorService@@UAE@XZ @593
??1QQmlInstanceModel@@UAE@XZ @594
??1QQmlListModel@@UAE@XZ @595
??1QQmlListReference@@QAE@XZ @596
??1QQmlMemoryScope@@QAE@XZ @597
??1QQmlNetworkAccessManagerFactory@@UAE@XZ @598
??1QQmlNotifier@@QAE@XZ @599
??1QQmlObjectModel@@UAE@XZ @600
??1QQmlOpenMetaObject@@UAE@XZ @601
??1QQmlOpenMetaObjectType@@UAE@XZ @602
??1QQmlParserStatus@@UAE@XZ @603
??1QQmlPlatform@@UAE@XZ @604
??1QQmlPointFValueType@@UAE@XZ @605
??1QQmlPointValueType@@UAE@XZ @606
??1QQmlPool@@QAE@XZ @607
??1QQmlProfilerService@@UAE@XZ @608
??1QQmlProperty@@QAE@XZ @609
??1QQmlPropertyCache@@UAE@XZ @610
??1QQmlPropertyMap@@UAE@XZ @611
??1QQmlPropertyPrivate@@UAE@XZ @612
??1QQmlPropertyValueInterceptor@@UAE@XZ @613
??1QQmlPropertyValueSource@@UAE@XZ @614
??1QQmlRectFValueType@@UAE@XZ @615
??1QQmlRectValueType@@UAE@XZ @616
??1QQmlRefCount@@UAE@XZ @617
??1QQmlScriptString@@QAE@XZ @618
??1QQmlSizeFValueType@@UAE@XZ @619
??1QQmlSizeValueType@@UAE@XZ @620
??1QQmlTimer@@UAE@XZ @621
??1QQmlType@@AAE@XZ @622
??1QQmlTypesExtensionInterface@@UAE@XZ @623
??1QQmlVMEMetaObject@@UAE@XZ @624
??1QQmlValueType@@UAE@XZ @625
??1QQmlValueTypeProvider@@UAE@XZ @626
??1QSequentialAnimationGroupJob@@UAE@XZ @627
??1QV8Engine@@UAE@XZ @628
??1RegExpLiteral@AST@QQmlJS@@UAE@XZ @629
??1ReturnStatement@AST@QQmlJS@@UAE@XZ @630
??1Script@QV4@@QAE@XZ @631
??1SingletonInstanceInfo@QQmlType@@QAE@XZ @632
??1SourceElement@AST@QQmlJS@@UAE@XZ @633
??1SourceElements@AST@QQmlJS@@UAE@XZ @634
??1SparseArray@QV4@@QAE@XZ @635
??1Statement@AST@QQmlJS@@UAE@XZ @636
??1StatementList@AST@QQmlJS@@UAE@XZ @637
??1StatementSourceElement@AST@QQmlJS@@UAE@XZ @638
??1StringLiteral@AST@QQmlJS@@UAE@XZ @639
??1StringLiteralPropertyName@AST@QQmlJS@@UAE@XZ @640
??1StringTableGenerator@Compiler@QV4@@QAE@XZ @641
??1SwitchStatement@AST@QQmlJS@@UAE@XZ @642
??1ThisExpression@AST@QQmlJS@@UAE@XZ @643
??1ThrowStatement@AST@QQmlJS@@UAE@XZ @644
??1TildeExpression@AST@QQmlJS@@UAE@XZ @645
??1TrueLiteral@AST@QQmlJS@@UAE@XZ @646
??1TryStatement@AST@QQmlJS@@UAE@XZ @647
??1TypeOfExpression@AST@QQmlJS@@UAE@XZ @648
??1UiArrayBinding@AST@QQmlJS@@UAE@XZ @649
??1UiArrayMemberList@AST@QQmlJS@@UAE@XZ @650
??1UiHeaderItemList@AST@QQmlJS@@UAE@XZ @651
??1UiImport@AST@QQmlJS@@UAE@XZ @652
??1UiObjectBinding@AST@QQmlJS@@UAE@XZ @653
??1UiObjectDefinition@AST@QQmlJS@@UAE@XZ @654
??1UiObjectInitializer@AST@QQmlJS@@UAE@XZ @655
??1UiObjectMember@AST@QQmlJS@@UAE@XZ @656
??1UiObjectMemberList@AST@QQmlJS@@UAE@XZ @657
??1UiParameterList@AST@QQmlJS@@UAE@XZ @658
??1UiPragma@AST@QQmlJS@@UAE@XZ @659
??1UiProgram@AST@QQmlJS@@UAE@XZ @660
??1UiPublicMember@AST@QQmlJS@@UAE@XZ @661
??1UiQualifiedId@AST@QQmlJS@@UAE@XZ @662
??1UiQualifiedPragmaId@AST@QQmlJS@@UAE@XZ @663
??1UiScriptBinding@AST@QQmlJS@@UAE@XZ @664
??1UiSourceElement@AST@QQmlJS@@UAE@XZ @665
??1UnaryMinusExpression@AST@QQmlJS@@UAE@XZ @666
??1UnaryPlusExpression@AST@QQmlJS@@UAE@XZ @667
??1VariableDeclaration@AST@QQmlJS@@UAE@XZ @668
??1VariableDeclarationList@AST@QQmlJS@@UAE@XZ @669
??1VariableStatement@AST@QQmlJS@@UAE@XZ @670
??1Visitor@AST@QQmlJS@@UAE@XZ @671
??1VoidExpression@AST@QQmlJS@@UAE@XZ @672
??1WeakValue@QV4@@QAE@XZ @673
??1WhileStatement@AST@QQmlJS@@UAE@XZ @674
??1WithStatement@AST@QQmlJS@@UAE@XZ @675
??2Data@Managed@QV4@@SAPAXIPAU012@@Z @676
??2Data@Managed@QV4@@SAPAXIPAU12@@Z @677
??2Managed@QQmlJS@@SAPAXIPAVMemoryPool@1@@Z @678
??2Managed@QV4@@SAPAXIPAU01@@Z @679
??2Managed@QV4@@SAPAXIPAVMemoryManager@1@@Z @680
??3Data@Managed@QV4@@SAXPAXPAU012@@Z @681
??3Managed@QQmlJS@@SAXPAX@Z @682
??3Managed@QQmlJS@@SAXPAXPAVMemoryPool@1@@Z @683
??4Binding@CompiledData@QV4@@QAEAAU012@ABU012@@Z @684
??4Blob@QQmlTypeLoader@@QAEAAV01@ABV01@@Z @685
??4Codegen@QQmlJS@@QAEAAV01@ABV01@@Z @686
??4Collector@Debugger@Debugging@QV4@@QAEAAV0123@ABV0123@@Z @687
??4CompilationUnit@CompiledData@QV4@@QAEAAU012@ABU012@@Z @688
??4CompiledFunctionOrExpression@QmlIR@@QAEAAU01@ABU01@@Z @689
??4Data@BuiltinFunction@QV4@@QAEAAU012@ABU012@@Z @690
??4Data@FunctionObject@QV4@@QAEAAU012@ABU012@@Z @691
??4Data@Managed@QV4@@QAEAAU012@ABU012@@Z @692
??4Data@String@QV4@@QAEAAU012@ABU012@@Z @693
??4DiagnosticMessage@QQmlJS@@QAEAAV01@ABV01@@Z @694
??4Directives@QQmlJS@@QAEAAV01@ABV01@@Z @695
??4Entry@QQmlBundle@@QAEAAU01@ABU01@@Z @696
??4EvalISelFactory@QV4@@QAEAAV01@ABV01@@Z @697
??4FileEntry@QQmlBundle@@QAEAAU01@ABU01@@Z @698
??4Function@QV4@@QAEAAU01@ABU01@@Z @699
??4IRBuilder@QmlIR@@QAEAAU01@ABU01@@Z @700
??4IRDecoder@IR@QV4@@QAEAAV012@ABV012@@Z @701
??4ISelFactory@JIT@QV4@@QAEAAV012@ABV012@@Z @702
??4ISelFactory@Moth@QV4@@QAEAAV012@ABV012@@Z @703
??4JSCodeGen@QmlIR@@QAEAAU01@ABU01@@Z @704
??4JSUnitGenerator@Compiler@QV4@@QAEAAU012@ABU012@@Z @705
??4Lexer@QQmlJS@@QAEAAV01@ABV01@@Z @706
??4Object@QmlIR@@QAEAAU01@ABU01@@Z @707
??4ObjectIterator@QV4@@QAEAAU01@ABU01@@Z @708
??4Parser@QQmlJS@@QAEAAV01@ABV01@@Z @709
??4PersistentValue@QV4@@QAEAAV01@ABUScopedValue@1@@Z @710
??4PersistentValue@QV4@@QAEAAV01@ABV01@@Z @711
??4PersistentValue@QV4@@QAEAAV01@UValueRef@1@@Z @712
??4PersistentValue@QV4@@QAEAAV01@_K@Z @713
??4PersistentValuePrivate@QV4@@QAEAAU01@ABU01@@Z @714
??4Pragma@QmlIR@@QAEAAU01@ABU01@@Z @715
??4Primitive@QV4@@QAEAAU01@ABU01@@Z @716
??4PropertyResolver@QmlIR@@QAEAAU01@ABU01@@Z @717
??4QAnimationJobChangeListener@@QAEAAV0@ABV0@@Z @718
??4QJSValue@@QAEAAV0@ABV0@@Z @719
??4QJSValueIterator@@QAEAAV0@AAVQJSValue@@@Z @720
??4QJSValuePrivate@@QAEAAV0@ABV0@@Z @721
??4QQmlAbstractBinding@@QAEAAV0@ABV0@@Z @722
??4QQmlAbstractBoundSignal@@QAEAAV0@ABV0@@Z @723
??4QQmlAbstractExpression@@QAEAAV0@ABV0@@Z @724
??4QQmlAbstractUrlInterceptor@@QAEAAV0@ABV0@@Z @725
??4QQmlBinding@@QAEAAV0@ABV0@@Z @726
??4QQmlBoundSignal@@QAEAAV0@ABV0@@Z @727
??4QQmlBoundSignalExpression@@QAEAAV0@ABV0@@Z @728
??4QQmlBoundSignalExpressionPointer@@QAEAAV0@ABV0@@Z @729
??4QQmlBoundSignalExpressionPointer@@QAEAAV0@PAVQQmlBoundSignalExpression@@@Z @730
??4QQmlChangeSet@@QAEAAV0@ABV0@@Z @731
??4QQmlCleanup@@QAEAAV0@ABV0@@Z @732
??4QQmlColorProvider@@QAEAAV0@ABV0@@Z @733
??4QQmlContextData@@QAEAAV0@ABV0@@Z @734
??4QQmlCustomParser@@QAEAAV0@ABV0@@Z @735
??4QQmlData@@QAEAAV0@ABV0@@Z @736
??4QQmlDataBlob@@QAEAAV0@ABV0@@Z @737
??4QQmlDebugServerConnection@@QAEAAV0@ABV0@@Z @738
??4QQmlDebuggingEnabler@@QAEAAU0@ABU0@@Z @739
??4QQmlError@@QAEAAV0@ABV0@@Z @740
??4QQmlExtensionInterface@@QAEAAV0@ABV0@@Z @741
??4QQmlFileSelectorInterceptor@@QAEAAV0@ABV0@@Z @742
??4QQmlGuiProvider@@QAEAAV0@ABV0@@Z @743
??4QQmlImageProviderBase@@QAEAAV0@ABV0@@Z @744
??4QQmlImports@@QAEAAV0@ABV0@@Z @745
??4QQmlInfo@@QAEAAV0@ABV0@@Z @746
??4QQmlInspectorInterface@@QAEAAV0@ABV0@@Z @747
??4QQmlListReference@@QAEAAV0@ABV0@@Z @748
??4QQmlMemoryProfiler@@QAEAAV0@ABV0@@Z @749
??4QQmlMemoryScope@@QAEAAV0@ABV0@@Z @750
??4QQmlMetaObject@@QAEAAV0@ABV0@@Z @751
??4QQmlMetaType@@QAEAAV0@ABV0@@Z @752
??4QQmlModelsModule@@QAEAAV0@ABV0@@Z @753
??4QQmlNetworkAccessManagerFactory@@QAEAAV0@ABV0@@Z @754
??4QQmlNotifier@@QAEAAV0@ABV0@@Z @755
??4QQmlOpenMetaObject@@QAEAAV0@ABV0@@Z @756
??4QQmlOpenMetaObjectType@@QAEAAV0@ABV0@@Z @757
??4QQmlParserStatus@@QAEAAV0@ABV0@@Z @758
??4QQmlPool@@QAEAAV0@ABV0@@Z @759
??4QQmlProperty@@QAEAAV0@ABV0@@Z @760
??4QQmlPropertyCache@@QAEAAV0@ABV0@@Z @761
??4QQmlPropertyPrivate@@QAEAAV0@ABV0@@Z @762
??4QQmlPropertyValueInterceptor@@QAEAAV0@ABV0@@Z @763
??4QQmlPropertyValueSource@@QAEAAV0@ABV0@@Z @764
??4QQmlRefCount@@QAEAAV0@ABV0@@Z @765
??4QQmlScriptString@@QAEAAV0@ABV0@@Z @766
??4QQmlType@@QAEAAV0@ABV0@@Z @767
??4QQmlTypesExtensionInterface@@QAEAAV0@ABV0@@Z @768
??4QQmlV4Handle@@QAEAAV0@ABV0@@Z @769
??4QQmlVME@@QAEAAV0@ABV0@@Z @770
??4QQmlValueTypeFactory@@QAEAAV0@ABV0@@Z @771
??4QQmlValueTypeProvider@@QAEAAV0@ABV0@@Z @772
??4QmlExtensions@QV4@@QAEAAU01@ABU01@@Z @773
??4QmlUnitGenerator@QmlIR@@QAEAAU01@ABU01@@Z @774
??4RawEntry@QQmlBundle@@QAEAAU01@ABU01@@Z @775
??4Runtime@QV4@@QAEAAU01@ABU01@@Z @776
??4RuntimeHelpers@QV4@@QAEAAU01@ABU01@@Z @777
??4Script@QV4@@QAEAAU01@ABU01@@Z @778
??4SingletonInstanceInfo@QQmlType@@QAEAAV01@ABV01@@Z @779
??4StringTableGenerator@Compiler@QV4@@QAEAAU012@ABU012@@Z @780
??4TranslationData@CompiledData@QV4@@QAEAAU012@ABU012@@Z @781
??4Value@QV4@@QAEAAU01@ABU01@@Z @782
??4Value@QV4@@QAEAAU01@ABUScopedValue@1@@Z @783
??4Value@QV4@@QAEAAU01@PAUHeapObject@1@@Z @784
??4Value@QV4@@QAEAAU01@UValueRef@1@@Z @785
??4Value@QV4@@QAEAAU01@_K@Z @786
??4Visitor@AST@QQmlJS@@QAEAAV012@ABV012@@Z @787
??4WeakValue@QV4@@QAEAAV01@ABV01@@Z @788
??4WeakValue@QV4@@QAEAAV01@AB_K@Z @789
??4WeakValue@QV4@@QAEAAV01@UValueRef@1@@Z @790
??5@YAAAVQDataStream@@AAV0@AAUQQmlObjectData@QQmlEngineDebugService@@@Z @791
??5@YAAAVQDataStream@@AAV0@AAUQQmlObjectProperty@QQmlEngineDebugService@@@Z @792
??6@YA?AVQDebug@@V0@ABUChange@QQmlChangeSet@@@Z @793
??6@YA?AVQDebug@@V0@ABVQQmlChangeSet@@@Z @794
??6@YA?AVQDebug@@V0@ABVQQmlError@@@Z @795
??6@YAAAVQDataStream@@AAV0@ABUQQmlObjectData@QQmlEngineDebugService@@@Z @796
??6@YAAAVQDataStream@@AAV0@ABUQQmlObjectProperty@QQmlEngineDebugService@@@Z @797
??6QQmlInfo@@QAEAAV0@ABVQByteArray@@@Z @798
??6QQmlInfo@@QAEAAV0@ABVQLatin1String@@@Z @799
??6QQmlInfo@@QAEAAV0@ABVQString@@@Z @800
??6QQmlInfo@@QAEAAV0@ABVQStringRef@@@Z @801
??6QQmlInfo@@QAEAAV0@ABVQUrl@@@Z @802
??6QQmlInfo@@QAEAAV0@D@Z @803
??6QQmlInfo@@QAEAAV0@F@Z @804
??6QQmlInfo@@QAEAAV0@G@Z @805
??6QQmlInfo@@QAEAAV0@H@Z @806
??6QQmlInfo@@QAEAAV0@I@Z @807
??6QQmlInfo@@QAEAAV0@J@Z @808
??6QQmlInfo@@QAEAAV0@K@Z @809
??6QQmlInfo@@QAEAAV0@M@Z @810
??6QQmlInfo@@QAEAAV0@N@Z @811
??6QQmlInfo@@QAEAAV0@P6AAAVQTextStream@@AAV1@@Z@Z @812
??6QQmlInfo@@QAEAAV0@PBD@Z @813
??6QQmlInfo@@QAEAAV0@PBX@Z @814
??6QQmlInfo@@QAEAAV0@VQChar@@@Z @815
??6QQmlInfo@@QAEAAV0@VQTextStreamManipulator@@@Z @816
??6QQmlInfo@@QAEAAV0@_J@Z @817
??6QQmlInfo@@QAEAAV0@_K@Z @818
??6QQmlInfo@@QAEAAV0@_N@Z @819
??8QQmlProperty@@QBE_NABV0@@Z @820
??8QQmlScriptString@@QBE_NABV0@@Z @821
??9QQmlScriptString@@QBE_NABV0@@Z @822
??AQQmlOpenMetaObject@@QAEAAVQVariant@@ABVQByteArray@@@Z @823
??AQQmlOpenMetaObject@@QAEAAVQVariant@@H@Z @824
??AQQmlPropertyMap@@QAEAAVQVariant@@ABVQString@@@Z @825
??AQQmlPropertyMap@@QBE?AVQVariant@@ABVQString@@@Z @826
??BPrimitive@QV4@@QAE?AUValueRef@1@XZ @827
??BQQmlBoundSignalExpressionPointer@@QBEPAVQQmlBoundSignalExpression@@XZ @828
??BQQmlV4Handle@@QBE_KXZ @829
??CQQmlBoundSignalExpressionPointer@@QBEPAVQQmlBoundSignalExpression@@XZ @830
??DQQmlBoundSignalExpressionPointer@@QBEAAVQQmlBoundSignalExpression@@XZ @831
??_7?$QQmlValueTypeBase@VQEasingCurve@@@@6B@ @832
??_7?$QQmlValueTypeBase@VQPoint@@@@6B@ @833
??_7?$QQmlValueTypeBase@VQPointF@@@@6B@ @834
??_7?$QQmlValueTypeBase@VQRect@@@@6B@ @835
??_7?$QQmlValueTypeBase@VQRectF@@@@6B@ @836
??_7?$QQmlValueTypeBase@VQSize@@@@6B@ @837
??_7?$QQmlValueTypeBase@VQSizeF@@@@6B@ @838
??_7ArgumentList@AST@QQmlJS@@6B@ @839
??_7ArrayLiteral@AST@QQmlJS@@6B@ @840
??_7ArrayMemberExpression@AST@QQmlJS@@6B@ @841
??_7BinaryExpression@AST@QQmlJS@@6B@ @842
??_7Blob@QQmlTypeLoader@@6B@ @843
??_7Block@AST@QQmlJS@@6B@ @844
??_7BreakStatement@AST@QQmlJS@@6B@ @845
??_7CallExpression@AST@QQmlJS@@6B@ @846
??_7CaseBlock@AST@QQmlJS@@6B@ @847
??_7CaseClause@AST@QQmlJS@@6B@ @848
??_7CaseClauses@AST@QQmlJS@@6B@ @849
??_7Catch@AST@QQmlJS@@6B@ @850
??_7Codegen@QQmlJS@@6B@ @851
??_7Collector@Debugger@Debugging@QV4@@6B@ @852
??_7CompilationUnit@CompiledData@QV4@@6B@ @853
??_7ConditionalExpression@AST@QQmlJS@@6B@ @854
??_7ContinueStatement@AST@QQmlJS@@6B@ @855
??_7DebuggerAgent@Debugging@QV4@@6B@ @856
??_7DebuggerStatement@AST@QQmlJS@@6B@ @857
??_7DefaultClause@AST@QQmlJS@@6B@ @858
??_7DeleteExpression@AST@QQmlJS@@6B@ @859
??_7Directives@QQmlJS@@6B@ @860
??_7DoWhileStatement@AST@QQmlJS@@6B@ @861
??_7ElementList@AST@QQmlJS@@6B@ @862
??_7Elision@AST@QQmlJS@@6B@ @863
??_7EmptyStatement@AST@QQmlJS@@6B@ @864
??_7EvalISelFactory@QV4@@6B@ @865
??_7EvalInstructionSelection@QV4@@6B@ @866
??_7Expression@AST@QQmlJS@@6B@ @867
??_7ExpressionNode@AST@QQmlJS@@6B@ @868
??_7ExpressionStatement@AST@QQmlJS@@6B@ @869
??_7FalseLiteral@AST@QQmlJS@@6B@ @870
??_7FieldMemberExpression@AST@QQmlJS@@6B@ @871
??_7Finally@AST@QQmlJS@@6B@ @872
??_7ForEachStatement@AST@QQmlJS@@6B@ @873
??_7ForStatement@AST@QQmlJS@@6B@ @874
??_7FormalParameterList@AST@QQmlJS@@6B@ @875
??_7FunctionBody@AST@QQmlJS@@6B@ @876
??_7FunctionDeclaration@AST@QQmlJS@@6B@ @877
??_7FunctionExpression@AST@QQmlJS@@6B@ @878
??_7FunctionSourceElement@AST@QQmlJS@@6B@ @879
??_7IRBuilder@QmlIR@@6B@ @880
??_7IRDecoder@IR@QV4@@6B@ @881
??_7ISelFactory@JIT@QV4@@6B@ @882
??_7ISelFactory@Moth@QV4@@6B@ @883
??_7IdentifierExpression@AST@QQmlJS@@6B@ @884
??_7IdentifierPropertyName@AST@QQmlJS@@6B@ @885
??_7IfStatement@AST@QQmlJS@@6B@ @886
??_7InstructionSelection@JIT@QV4@@6BEvalInstructionSelection@2@@ @887
??_7InstructionSelection@JIT@QV4@@6BIRDecoder@IR@2@@ @888
??_7InstructionSelection@Moth@QV4@@6BEvalInstructionSelection@2@@ @889
??_7InstructionSelection@Moth@QV4@@6BIRDecoder@IR@2@@ @890
??_7JSCodeGen@QmlIR@@6B@ @891
??_7LabelledStatement@AST@QQmlJS@@6B@ @892
??_7LocalForEachStatement@AST@QQmlJS@@6B@ @893
??_7LocalForStatement@AST@QQmlJS@@6B@ @894
??_7NestedExpression@AST@QQmlJS@@6B@ @895
??_7NewExpression@AST@QQmlJS@@6B@ @896
??_7NewMemberExpression@AST@QQmlJS@@6B@ @897
??_7Node@AST@QQmlJS@@6B@ @898
??_7NotExpression@AST@QQmlJS@@6B@ @899
??_7NullExpression@AST@QQmlJS@@6B@ @900
??_7NumericLiteral@AST@QQmlJS@@6B@ @901
??_7NumericLiteralPropertyName@AST@QQmlJS@@6B@ @902
??_7ObjectLiteral@AST@QQmlJS@@6B@ @903
??_7PersistentValuePrivate@QV4@@6B@ @904
??_7PostDecrementExpression@AST@QQmlJS@@6B@ @905
??_7PostIncrementExpression@AST@QQmlJS@@6B@ @906
??_7PreDecrementExpression@AST@QQmlJS@@6B@ @907
??_7PreIncrementExpression@AST@QQmlJS@@6B@ @908
??_7Profiler@Profiling@QV4@@6B@ @909
??_7Program@AST@QQmlJS@@6B@ @910
??_7PropertyAssignment@AST@QQmlJS@@6B@ @911
??_7PropertyAssignmentList@AST@QQmlJS@@6B@ @912
??_7PropertyGetterSetter@AST@QQmlJS@@6B@ @913
??_7PropertyName@AST@QQmlJS@@6B@ @914
??_7PropertyNameAndValue@AST@QQmlJS@@6B@ @915
??_7QAbstractAnimationJob@@6B@ @916
??_7QAnimationGroupJob@@6B@ @917
??_7QAnimationJobChangeListener@@6B@ @918
??_7QContinuingAnimationGroupJob@@6B@ @919
??_7QJSEngine@@6B@ @920
??_7QJSValuePrivate@@6B@ @921
??_7QParallelAnimationGroupJob@@6B@ @922
??_7QPauseAnimationJob@@6B@ @923
??_7QQmlAbstractBoundSignal@@6B@ @924
??_7QQmlAbstractExpression@@6B@ @925
??_7QQmlAbstractProfilerAdapter@@6B@ @926
??_7QQmlAbstractUrlInterceptor@@6B@ @927
??_7QQmlAnimationTimer@@6B@ @928
??_7QQmlApplication@@6B@ @929
??_7QQmlApplicationEngine@@6B@ @930
??_7QQmlApplicationEnginePrivate@@6B@ @931
??_7QQmlBinding@@6B@ @932
??_7QQmlBoundSignal@@6B@ @933
??_7QQmlBoundSignalExpression@@6BQQmlAbstractExpression@@@ @934
??_7QQmlBoundSignalExpression@@6BQQmlRefCount@@@ @935
??_7QQmlCleanup@@6B@ @936
??_7QQmlColorProvider@@6B@ @937
??_7QQmlComponent@@6B@ @938
??_7QQmlComponentAttached@@6B@ @939
??_7QQmlComponentPrivate@@6BQObjectPrivate@@@ @940
??_7QQmlComponentPrivate@@6BTypeDataCallback@QQmlTypeData@@@ @941
??_7QQmlContext@@6B@ @942
??_7QQmlCustomParser@@6B@ @943
??_7QQmlDataBlob@@6B@ @944
??_7QQmlDebugServer@@6B@ @945
??_7QQmlDebugServerConnection@@6B@ @946
??_7QQmlDebugService@@6B@ @947
??_7QQmlDelegateModel@@6BQQmlInstanceModel@@@ @948
??_7QQmlDelegateModel@@6BQQmlParserStatus@@@ @949
??_7QQmlDelegateModelGroup@@6B@ @950
??_7QQmlEasingValueType@@6B@ @951
??_7QQmlEngine@@6B@ @952
??_7QQmlEngineDebugService@@6B@ @953
??_7QQmlEnginePrivate@@6B@ @954
??_7QQmlExpression@@6B@ @955
??_7QQmlExtensionInterface@@6B@ @956
??_7QQmlExtensionPlugin@@6BQObject@@@ @957
??_7QQmlExtensionPlugin@@6BQQmlExtensionInterface@@@ @958
??_7QQmlFileSelector@@6B@ @959
??_7QQmlFileSelectorInterceptor@@6B@ @960
??_7QQmlFileSelectorPrivate@@6B@ @961
??_7QQmlGuiProvider@@6B@ @962
??_7QQmlImageProviderBase@@6B@ @963
??_7QQmlIncubationController@@6B@ @964
??_7QQmlIncubator@@6B@ @965
??_7QQmlInspectorInterface@@6B@ @966
??_7QQmlInspectorService@@6B@ @967
??_7QQmlInstanceModel@@6B@ @968
??_7QQmlListModel@@6B@ @969
??_7QQmlNetworkAccessManagerFactory@@6B@ @970
??_7QQmlObjectModel@@6B@ @971
??_7QQmlOpenMetaObject@@6B@ @972
??_7QQmlOpenMetaObjectType@@6BQQmlCleanup@@@ @973
??_7QQmlOpenMetaObjectType@@6BQQmlRefCount@@@ @974
??_7QQmlParserStatus@@6B@ @975
??_7QQmlPlatform@@6B@ @976
??_7QQmlPointFValueType@@6B@ @977
??_7QQmlPointValueType@@6B@ @978
??_7QQmlProfilerService@@6B@ @979
??_7QQmlPropertyCache@@6BQQmlCleanup@@@ @980
??_7QQmlPropertyCache@@6BQQmlRefCount@@@ @981
??_7QQmlPropertyMap@@6B@ @982
??_7QQmlPropertyPrivate@@6B@ @983
??_7QQmlPropertyValueInterceptor@@6B@ @984
??_7QQmlPropertyValueSource@@6B@ @985
??_7QQmlRectFValueType@@6B@ @986
??_7QQmlRectValueType@@6B@ @987
??_7QQmlRefCount@@6B@ @988
??_7QQmlSizeFValueType@@6B@ @989
??_7QQmlSizeValueType@@6B@ @990
??_7QQmlTimer@@6BQObject@@@ @991
??_7QQmlTimer@@6BQQmlParserStatus@@@ @992
??_7QQmlTypesExtensionInterface@@6B@ @993
??_7QQmlVMEMetaObject@@6B@ @994
??_7QQmlValueType@@6B@ @995
??_7QQmlValueTypeProvider@@6B@ @996
??_7QSequentialAnimationGroupJob@@6B@ @997
??_7QV8Engine@@6B@ @998
??_7RegExpLiteral@AST@QQmlJS@@6B@ @999
??_7ReturnStatement@AST@QQmlJS@@6B@ @1000
??_7SourceElement@AST@QQmlJS@@6B@ @1001
??_7SourceElements@AST@QQmlJS@@6B@ @1002
??_7Statement@AST@QQmlJS@@6B@ @1003
??_7StatementList@AST@QQmlJS@@6B@ @1004
??_7StatementSourceElement@AST@QQmlJS@@6B@ @1005
??_7StringLiteral@AST@QQmlJS@@6B@ @1006
??_7StringLiteralPropertyName@AST@QQmlJS@@6B@ @1007
??_7SwitchStatement@AST@QQmlJS@@6B@ @1008
??_7ThisExpression@AST@QQmlJS@@6B@ @1009
??_7ThrowStatement@AST@QQmlJS@@6B@ @1010
??_7TildeExpression@AST@QQmlJS@@6B@ @1011
??_7TrueLiteral@AST@QQmlJS@@6B@ @1012
??_7TryStatement@AST@QQmlJS@@6B@ @1013
??_7TypeOfExpression@AST@QQmlJS@@6B@ @1014
??_7UiArrayBinding@AST@QQmlJS@@6B@ @1015
??_7UiArrayMemberList@AST@QQmlJS@@6B@ @1016
??_7UiHeaderItemList@AST@QQmlJS@@6B@ @1017
??_7UiImport@AST@QQmlJS@@6B@ @1018
??_7UiObjectBinding@AST@QQmlJS@@6B@ @1019
??_7UiObjectDefinition@AST@QQmlJS@@6B@ @1020
??_7UiObjectInitializer@AST@QQmlJS@@6B@ @1021
??_7UiObjectMember@AST@QQmlJS@@6B@ @1022
??_7UiObjectMemberList@AST@QQmlJS@@6B@ @1023
??_7UiParameterList@AST@QQmlJS@@6B@ @1024
??_7UiPragma@AST@QQmlJS@@6B@ @1025
??_7UiProgram@AST@QQmlJS@@6B@ @1026
??_7UiPublicMember@AST@QQmlJS@@6B@ @1027
??_7UiQualifiedId@AST@QQmlJS@@6B@ @1028
??_7UiQualifiedPragmaId@AST@QQmlJS@@6B@ @1029
??_7UiScriptBinding@AST@QQmlJS@@6B@ @1030
??_7UiSourceElement@AST@QQmlJS@@6B@ @1031
??_7UnaryMinusExpression@AST@QQmlJS@@6B@ @1032
??_7UnaryPlusExpression@AST@QQmlJS@@6B@ @1033
??_7VariableDeclaration@AST@QQmlJS@@6B@ @1034
??_7VariableDeclarationList@AST@QQmlJS@@6B@ @1035
??_7VariableStatement@AST@QQmlJS@@6B@ @1036
??_7Visitor@AST@QQmlJS@@6B@ @1037
??_7VoidExpression@AST@QQmlJS@@6B@ @1038
??_7WhileStatement@AST@QQmlJS@@6B@ @1039
??_7WithStatement@AST@QQmlJS@@6B@ @1040
??_FContinueStatement@AST@QQmlJS@@QAEXXZ @1041
??_FExecutionEngine@QV4@@QAEXXZ @1042
??_FQJSValue@@QAEXXZ @1043
??_FQPauseAnimationJob@@QAEXXZ @1044
??_FQQmlApplication@@QAEXXZ @1045
??_FQQmlApplicationEngine@@QAEXXZ @1046
??_FQQmlComponent@@QAEXXZ @1047
??_FQQmlComponentAttached@@QAEXXZ @1048
??_FQQmlDebuggingEnabler@@QAEXXZ @1049
??_FQQmlDelegateModelGroup@@QAEXXZ @1050
??_FQQmlEasingValueType@@QAEXXZ @1051
??_FQQmlEngine@@QAEXXZ @1052
??_FQQmlEngineDebugService@@QAEXXZ @1053
??_FQQmlExtensionPlugin@@QAEXXZ @1054
??_FQQmlIncubator@@QAEXXZ @1055
??_FQQmlListModel@@QAEXXZ @1056
??_FQQmlObjectModel@@QAEXXZ @1057
??_FQQmlPlatform@@QAEXXZ @1058
??_FQQmlPointFValueType@@QAEXXZ @1059
??_FQQmlPointValueType@@QAEXXZ @1060
??_FQQmlPropertyMap@@QAEXXZ @1061
??_FQQmlRectFValueType@@QAEXXZ @1062
??_FQQmlRectValueType@@QAEXXZ @1063
??_FQQmlSizeFValueType@@QAEXXZ @1064
??_FQQmlSizeValueType@@QAEXXZ @1065
??_FQQmlTimer@@QAEXXZ @1066
?Invalid@QQmlBinding@@2HA @1067
?NewByteArray@QQmlPool@@QAEPAVQByteArray@@ABV2@@Z @1068
?NewString@QQmlPool@@QAEPAVQString@@ABV2@@Z @1069
?NewUrl@QQmlPool@@QAEPAVQUrl@@ABV2@@Z @1070
?QQml_addValueTypeProvider@@YAXPAVQQmlValueTypeProvider@@@Z @1071
?QQml_colorProvider@@YAPAVQQmlColorProvider@@XZ @1072
?QQml_removeValueTypeProvider@@YAXPAVQQmlValueTypeProvider@@@Z @1073
?QQml_setColorProvider@@YAPAVQQmlColorProvider@@PAV1@@Z @1074
?QQml_setGuiProvider@@YAPAVQQmlGuiProvider@@PAV1@@Z @1075
?__dataTest@ArrayData@QV4@@QAEXXZ @1076
?__dataTest@BuiltinFunction@QV4@@QAEXXZ @1077
?__dataTest@EvalFunction@QV4@@QAEXXZ @1078
?__dataTest@ExecutionContext@QV4@@QAEXXZ @1079
?__dataTest@FunctionObject@QV4@@QAEXXZ @1080
?__dataTest@Managed@QV4@@QAEXXZ @1081
?__dataTest@Object@QV4@@QAEXXZ @1082
?__dataTest@QObjectMethod@QV4@@QAEXXZ @1083
?__dataTest@QObjectWrapper@QV4@@QAEXXZ @1084
?__dataTest@QmlBindingWrapper@QV4@@QAEXXZ @1085
?__dataTest@QmlContextWrapper@QV4@@QAEXXZ @1086
?__dataTest@QmlListWrapper@QV4@@QAEXXZ @1087
?__dataTest@QmlTypeWrapper@QV4@@QAEXXZ @1088
?__dataTest@QmlValueTypeWrapper@QV4@@QAEXXZ @1089
?__dataTest@SimpleArrayData@QV4@@QAEXXZ @1090
?__dataTest@SparseArrayData@QV4@@QAEXXZ @1091
?__dataTest@String@QV4@@QAEXXZ @1092
?__defineOwnProperty__@Object@QV4@@QAE_NPAUExecutionContext@2@ABVQString@@ABUProperty@2@UPropertyAttributes@2@@Z @1093
?__defineOwnProperty__@Object@QV4@@QAE_NPAUExecutionContext@2@IABUProperty@2@UPropertyAttributes@2@@Z @1094
?__defineOwnProperty__@Object@QV4@@QAE_NPAUExecutionContext@2@IPAUString@2@ABUProperty@2@UPropertyAttributes@2@@Z @1095
?__defineOwnProperty__@Object@QV4@@QAE_NPAUExecutionContext@2@PAUString@2@ABUProperty@2@UPropertyAttributes@2@@Z @1096
?__getOwnProperty__@Object@QV4@@QAEPAUProperty@2@IPAUPropertyAttributes@2@@Z @1097
?__getOwnProperty__@Object@QV4@@QAEPAUProperty@2@PAUString@2@PAUPropertyAttributes@2@@Z @1098
?__getPropertyDescriptor__@Object@QV4@@QBEPAUProperty@2@IPAUPropertyAttributes@2@@Z @1099
?__getPropertyDescriptor__@Object@QV4@@QBEPAUProperty@2@PAUString@2@PAUPropertyAttributes@2@@Z @1100
?_q_dataChanged@QQmlDelegateModel@@AAEXABVQModelIndex@@0ABV?$QVector@H@@@Z @1101
?_q_finishLoad@QQmlApplicationEnginePrivate@@QAEXPAVQObject@@@Z @1102
?_q_itemsChanged@QQmlDelegateModel@@AAEXHHABV?$QVector@H@@@Z @1103
?_q_itemsInserted@QQmlDelegateModel@@AAEXHH@Z @1104
?_q_itemsMoved@QQmlDelegateModel@@AAEXHHH@Z @1105
?_q_itemsRemoved@QQmlDelegateModel@@AAEXHH@Z @1106
?_q_layoutAboutToBeChanged@QQmlDelegateModel@@AAEXABV?$QList@VQPersistentModelIndex@@@@W4LayoutChangeHint@QAbstractItemModel@@@Z @1107
?_q_layoutChanged@QQmlDelegateModel@@AAEXABV?$QList@VQPersistentModelIndex@@@@W4LayoutChangeHint@QAbstractItemModel@@@Z @1108
?_q_modelReset@QQmlDelegateModel@@AAEXXZ @1109
?_q_rowsAboutToBeRemoved@QQmlDelegateModel@@AAEXABVQModelIndex@@HH@Z @1110
?_q_rowsInserted@QQmlDelegateModel@@AAEXABVQModelIndex@@HH@Z @1111
?_q_rowsMoved@QQmlDelegateModel@@AAEXABVQModelIndex@@HH0H@Z @1112
?_q_rowsRemoved@QQmlDelegateModel@@AAEXABVQModelIndex@@HH@Z @1113
?aboutToQuit@QQmlApplication@@QAEXXZ @1114
?aboutToThrow@Debugger@Debugging@QV4@@QAEXXZ @1115
?accept0@ArgumentList@AST@QQmlJS@@UAEXPAVVisitor@23@@Z @1116
?accept0@ArrayLiteral@AST@QQmlJS@@UAEXPAVVisitor@23@@Z @1117
?accept0@ArrayMemberExpression@AST@QQmlJS@@UAEXPAVVisitor@23@@Z @1118
?accept0@BinaryExpression@AST@QQmlJS@@UAEXPAVVisitor@23@@Z @1119
?accept0@Block@AST@QQmlJS@@UAEXPAVVisitor@23@@Z @1120
?accept0@BreakStatement@AST@QQmlJS@@UAEXPAVVisitor@23@@Z @1121
?accept0@CallExpression@AST@QQmlJS@@UAEXPAVVisitor@23@@Z @1122
?accept0@CaseBlock@AST@QQmlJS@@UAEXPAVVisitor@23@@Z @1123
?accept0@CaseClause@AST@QQmlJS@@UAEXPAVVisitor@23@@Z @1124
?accept0@CaseClauses@AST@QQmlJS@@UAEXPAVVisitor@23@@Z @1125
?accept0@Catch@AST@QQmlJS@@UAEXPAVVisitor@23@@Z @1126
?accept0@ConditionalExpression@AST@QQmlJS@@UAEXPAVVisitor@23@@Z @1127
?accept0@ContinueStatement@AST@QQmlJS@@UAEXPAVVisitor@23@@Z @1128
?accept0@DebuggerStatement@AST@QQmlJS@@UAEXPAVVisitor@23@@Z @1129
?accept0@DefaultClause@AST@QQmlJS@@UAEXPAVVisitor@23@@Z @1130
?accept0@DeleteExpression@AST@QQmlJS@@UAEXPAVVisitor@23@@Z @1131
?accept0@DoWhileStatement@AST@QQmlJS@@UAEXPAVVisitor@23@@Z @1132
?accept0@ElementList@AST@QQmlJS@@UAEXPAVVisitor@23@@Z @1133
?accept0@Elision@AST@QQmlJS@@UAEXPAVVisitor@23@@Z @1134
?accept0@EmptyStatement@AST@QQmlJS@@UAEXPAVVisitor@23@@Z @1135
?accept0@Expression@AST@QQmlJS@@UAEXPAVVisitor@23@@Z @1136
?accept0@ExpressionStatement@AST@QQmlJS@@UAEXPAVVisitor@23@@Z @1137
?accept0@FalseLiteral@AST@QQmlJS@@UAEXPAVVisitor@23@@Z @1138
?accept0@FieldMemberExpression@AST@QQmlJS@@UAEXPAVVisitor@23@@Z @1139
?accept0@Finally@AST@QQmlJS@@UAEXPAVVisitor@23@@Z @1140
?accept0@ForEachStatement@AST@QQmlJS@@UAEXPAVVisitor@23@@Z @1141
?accept0@ForStatement@AST@QQmlJS@@UAEXPAVVisitor@23@@Z @1142
?accept0@FormalParameterList@AST@QQmlJS@@UAEXPAVVisitor@23@@Z @1143
?accept0@FunctionBody@AST@QQmlJS@@UAEXPAVVisitor@23@@Z @1144
?accept0@FunctionDeclaration@AST@QQmlJS@@UAEXPAVVisitor@23@@Z @1145
?accept0@FunctionExpression@AST@QQmlJS@@UAEXPAVVisitor@23@@Z @1146
?accept0@FunctionSourceElement@AST@QQmlJS@@UAEXPAVVisitor@23@@Z @1147
?accept0@IdentifierExpression@AST@QQmlJS@@UAEXPAVVisitor@23@@Z @1148
?accept0@IdentifierPropertyName@AST@QQmlJS@@UAEXPAVVisitor@23@@Z @1149
?accept0@IfStatement@AST@QQmlJS@@UAEXPAVVisitor@23@@Z @1150
?accept0@LabelledStatement@AST@QQmlJS@@UAEXPAVVisitor@23@@Z @1151
?accept0@LocalForEachStatement@AST@QQmlJS@@UAEXPAVVisitor@23@@Z @1152
?accept0@LocalForStatement@AST@QQmlJS@@UAEXPAVVisitor@23@@Z @1153
?accept0@NestedExpression@AST@QQmlJS@@UAEXPAVVisitor@23@@Z @1154
?accept0@NewExpression@AST@QQmlJS@@UAEXPAVVisitor@23@@Z @1155
?accept0@NewMemberExpression@AST@QQmlJS@@UAEXPAVVisitor@23@@Z @1156
?accept0@NotExpression@AST@QQmlJS@@UAEXPAVVisitor@23@@Z @1157
?accept0@NullExpression@AST@QQmlJS@@UAEXPAVVisitor@23@@Z @1158
?accept0@NumericLiteral@AST@QQmlJS@@UAEXPAVVisitor@23@@Z @1159
?accept0@NumericLiteralPropertyName@AST@QQmlJS@@UAEXPAVVisitor@23@@Z @1160
?accept0@ObjectLiteral@AST@QQmlJS@@UAEXPAVVisitor@23@@Z @1161
?accept0@PostDecrementExpression@AST@QQmlJS@@UAEXPAVVisitor@23@@Z @1162
?accept0@PostIncrementExpression@AST@QQmlJS@@UAEXPAVVisitor@23@@Z @1163
?accept0@PreDecrementExpression@AST@QQmlJS@@UAEXPAVVisitor@23@@Z @1164
?accept0@PreIncrementExpression@AST@QQmlJS@@UAEXPAVVisitor@23@@Z @1165
?accept0@Program@AST@QQmlJS@@UAEXPAVVisitor@23@@Z @1166
?accept0@PropertyAssignmentList@AST@QQmlJS@@UAEXPAVVisitor@23@@Z @1167
?accept0@PropertyGetterSetter@AST@QQmlJS@@UAEXPAVVisitor@23@@Z @1168
?accept0@PropertyNameAndValue@AST@QQmlJS@@UAEXPAVVisitor@23@@Z @1169
?accept0@RegExpLiteral@AST@QQmlJS@@UAEXPAVVisitor@23@@Z @1170
?accept0@ReturnStatement@AST@QQmlJS@@UAEXPAVVisitor@23@@Z @1171
?accept0@SourceElements@AST@QQmlJS@@UAEXPAVVisitor@23@@Z @1172
?accept0@StatementList@AST@QQmlJS@@UAEXPAVVisitor@23@@Z @1173
?accept0@StatementSourceElement@AST@QQmlJS@@UAEXPAVVisitor@23@@Z @1174
?accept0@StringLiteral@AST@QQmlJS@@UAEXPAVVisitor@23@@Z @1175
?accept0@StringLiteralPropertyName@AST@QQmlJS@@UAEXPAVVisitor@23@@Z @1176
?accept0@SwitchStatement@AST@QQmlJS@@UAEXPAVVisitor@23@@Z @1177
?accept0@ThisExpression@AST@QQmlJS@@UAEXPAVVisitor@23@@Z @1178
?accept0@ThrowStatement@AST@QQmlJS@@UAEXPAVVisitor@23@@Z @1179
?accept0@TildeExpression@AST@QQmlJS@@UAEXPAVVisitor@23@@Z @1180
?accept0@TrueLiteral@AST@QQmlJS@@UAEXPAVVisitor@23@@Z @1181
?accept0@TryStatement@AST@QQmlJS@@UAEXPAVVisitor@23@@Z @1182
?accept0@TypeOfExpression@AST@QQmlJS@@UAEXPAVVisitor@23@@Z @1183
?accept0@UiArrayBinding@AST@QQmlJS@@UAEXPAVVisitor@23@@Z @1184
?accept0@UiArrayMemberList@AST@QQmlJS@@UAEXPAVVisitor@23@@Z @1185
?accept0@UiHeaderItemList@AST@QQmlJS@@UAEXPAVVisitor@23@@Z @1186
?accept0@UiImport@AST@QQmlJS@@UAEXPAVVisitor@23@@Z @1187
?accept0@UiObjectBinding@AST@QQmlJS@@UAEXPAVVisitor@23@@Z @1188
?accept0@UiObjectDefinition@AST@QQmlJS@@UAEXPAVVisitor@23@@Z @1189
?accept0@UiObjectInitializer@AST@QQmlJS@@UAEXPAVVisitor@23@@Z @1190
?accept0@UiObjectMemberList@AST@QQmlJS@@UAEXPAVVisitor@23@@Z @1191
?accept0@UiParameterList@AST@QQmlJS@@UAEXPAVVisitor@23@@Z @1192
?accept0@UiPragma@AST@QQmlJS@@UAEXPAVVisitor@23@@Z @1193
?accept0@UiProgram@AST@QQmlJS@@UAEXPAVVisitor@23@@Z @1194
?accept0@UiPublicMember@AST@QQmlJS@@UAEXPAVVisitor@23@@Z @1195
?accept0@UiQualifiedId@AST@QQmlJS@@UAEXPAVVisitor@23@@Z @1196
?accept0@UiQualifiedPragmaId@AST@QQmlJS@@UAEXPAVVisitor@23@@Z @1197
?accept0@UiScriptBinding@AST@QQmlJS@@UAEXPAVVisitor@23@@Z @1198
?accept0@UiSourceElement@AST@QQmlJS@@UAEXPAVVisitor@23@@Z @1199
?accept0@UnaryMinusExpression@AST@QQmlJS@@UAEXPAVVisitor@23@@Z @1200
?accept0@UnaryPlusExpression@AST@QQmlJS@@UAEXPAVVisitor@23@@Z @1201
?accept0@VariableDeclaration@AST@QQmlJS@@UAEXPAVVisitor@23@@Z @1202
?accept0@VariableDeclarationList@AST@QQmlJS@@UAEXPAVVisitor@23@@Z @1203
?accept0@VariableStatement@AST@QQmlJS@@UAEXPAVVisitor@23@@Z @1204
?accept0@VoidExpression@AST@QQmlJS@@UAEXPAVVisitor@23@@Z @1205
?accept0@WhileStatement@AST@QQmlJS@@UAEXPAVVisitor@23@@Z @1206
?accept0@WithStatement@AST@QQmlJS@@UAEXPAVVisitor@23@@Z @1207
?accept@Codegen@QQmlJS@@IAEXPAVNode@AST@2@@Z @1208
?accept@IRBuilder@QmlIR@@QAEXPAVNode@AST@QQmlJS@@@Z @1209
?accept@Node@AST@QQmlJS@@QAEXPAVVisitor@23@@Z @1210
?accept@Node@AST@QQmlJS@@SAXPAV123@PAVVisitor@23@@Z @1211
?acceptChild@Node@AST@QQmlJS@@SAXPAV123@PAVVisitor@23@@Z @1212
?activate@QQmlVMEMetaObject@@QAEXPAVQObject@@HPAPAX@Z @1213
?activateCurrentAnimation@QSequentialAnimationGroupJob@@AAEX_N@Z @1214
?activateDesignerMode@QQmlEnginePrivate@@SAXXZ @1215
?add@QQmlBundle@@QAE_NABVQString@@0@Z @1216
?add@QQmlBundle@@QAE_NABVQString@@@Z @1217
?add@QQmlComponentAttached@@QAEXPAPAV1@@Z @1218
?add@Runtime@QV4@@SA_KPAUExecutionContext@2@UValueRef@2@1@Z @1219
?addAnimationChangeListener@QAbstractAnimationJob@@QAEXPAVQAnimationJobChangeListener@@V?$QFlags@W4ChangeType@QAbstractAnimationJob@@@@@Z @1220
?addBreakPoint@Debugger@Debugging@QV4@@QAEXABVQString@@H0@Z @1221
?addBreakPoint@DebuggerAgent@Debugging@QV4@@QAEHABVQString@@H_N0@Z @1222
?addComment@Engine@QQmlJS@@QAEXHHHH@Z @1223
?addConstantTable@InstructionSelection@JIT@QV4@@QAEPBXPAV?$QVector@UPrimitive@QV4@@@@@Z @1224
?addDebugger@DebuggerAgent@Debugging@QV4@@QAEXPAVDebugger@23@@Z @1225
?addDependency@QQmlDataBlob@@IAEXPAV1@@Z @1226
?addEngine@QQmlDebugServer@@QAEXPAVQQmlEngine@@@Z @1227
?addEngineProfiler@QQmlProfilerService@@AAEXPAVQQmlAbstractProfilerAdapter@@PAVQQmlEngine@@@Z @1228
?addFileImport@QQmlImports@@QAE_NPAVQQmlImportDatabase@@ABVQString@@1HH_NPAV?$QList@VQQmlError@@@@@Z @1229
?addGlobalProfiler@QQmlProfilerService@@QAEXPAVQQmlAbstractProfilerAdapter@@@Z @1230
?addGroups@QQmlDelegateModelGroup@@QAEXPAVQQmlV4Function@@@Z @1231
?addHelper@RuntimeHelpers@QV4@@SA_KPAUExecutionContext@2@UValueRef@2@1@Z @1232
?addImageProvider@QQmlEngine@@QAEXABVQString@@PAVQQmlImageProviderBase@@@Z @1233
?addImplicitImport@QQmlImports@@QAE_NPAVQQmlImportDatabase@@PAV?$QList@VQQmlError@@@@@Z @1234
?addImport@Blob@QQmlTypeLoader@@IAE_NPBUImport@CompiledData@QV4@@PAV?$QList@VQQmlError@@@@@Z @1235
?addImportPath@QQmlEngine@@QAEXABVQString@@@Z @1236
?addInstructionHelper@InstructionSelection@Moth@QV4@@AAEHW4Type@Instr@23@AAT523@@Z @1237
?addLibraryImport@QQmlImports@@QAE_NPAVQQmlImportDatabase@@ABVQString@@1HH11_NPAV?$QList@VQQmlError@@@@@Z @1238
?addMetaLink@QQmlBundle@@QAE_NABVQString@@0ABVQByteArray@@@Z @1239
?addNamedBundle@QQmlEngine@@QAE_NABVQString@@0@Z @1240
?addNotify@QQmlData@@QAEXHPAVQQmlNotifierEndpoint@@@Z @1241
?addObject@QQmlContextData@@QAEXPAVQObject@@@Z @1242
?addPluginPath@QQmlEngine@@QAEXABVQString@@@Z @1243
?addPragma@Blob@QQmlTypeLoader@@IAE_NABUPragma@QmlIR@@PAV?$QList@VQQmlError@@@@@Z @1244
?addService@QQmlDebugServer@@QAE_NPAVQQmlDebugService@@@Z @1245
?addString@Runtime@QV4@@SA_KPAUExecutionContext@2@UValueRef@2@1@Z @1246
?addToEngine@QQmlCleanup@@QAEXPAVQQmlEngine@@@Z @1247
?addToObject@QQmlAbstractBinding@@QAEXXZ @1248
?addToObject@QQmlAbstractBoundSignal@@IAEXPAVQObject@@@Z @1249
?addView@QQmlInspectorService@@QAEXPAVQObject@@@Z @1250
?addref@QQmlRefCount@@QAEXXZ @1251
?addressForArgument@InstructionSelection@JIT@QV4@@IBE?AUAddress@?$AbstractMacroAssembler@VX86Assembler@JSC@@@JSC@@H@Z @1252
?advanceForwards@QSequentialAnimationGroupJob@@AAEXABUAnimationIndex@1@@Z @1253
?advanceIterator@Object@QV4@@KAXPAUManaged@2@PAUObjectIterator@2@AAPAUString@2@PAIPAUProperty@2@PAUPropertyAttributes@2@@Z @1254
?advanceIterator@Object@QV4@@QAEXPAUObjectIterator@2@AAPAUString@2@PAIPAUProperty@2@PAUPropertyAttributes@2@@Z @1255
?advanceIterator@QObjectWrapper@QV4@@CAXPAUManaged@2@PAUObjectIterator@2@AAPAUString@2@PAIPAUProperty@2@PAUPropertyAttributes@2@@Z @1256
?advanceIterator@QmlListWrapper@QV4@@SAXPAUManaged@2@PAUObjectIterator@2@AAPAUString@2@PAIPAUProperty@2@PAUPropertyAttributes@2@@Z @1257
?agent@Debugger@Debugging@QV4@@QBEPAVDebuggerAgent@23@XZ @1258
?agent@QQmlListModel@@QAEPAVQQmlListModelWorkerAgent@@XZ @1259
?aliasTarget@QQmlVMEMetaObject@@QBE_NHPAPAVQObject@@PAH1@Z @1260
?align@MemoryManager@QV4@@SAII@Z @1261
?allDependenciesDone@QQmlDataBlob@@MAEXXZ @1262
?alloc@ArrayData@QV4@@QAEAAIXZ @1263
?alloc@ArrayData@QV4@@QBEIXZ @1264
?allocData@MemoryManager@QV4@@IAEPAUManaged@2@I@Z @1265
?allocManaged@MemoryManager@QV4@@QAEPAUManaged@2@I@Z @1266
?allocate@MemoryPool@QQmlJS@@QAEPAXI@Z @1267
?allocate@QQmlPool@@AAEPAXH@Z @1268
?allocate@SparseArrayData@QV4@@SAIPAUObject@2@_N@Z @1269
?allocatePrivate@QQmlPropertyMap@@CAPAVQObjectPrivate@@XZ @1270
?allocateVarPropertiesArray@QQmlVMEMetaObject@@QAEXXZ @1271
?allocate_helper@MemoryPool@QQmlJS@@AAEPAXI@Z @1272
?amplitude@QQmlEasingValueType@@QBENXZ @1273
?animationActualTotalDuration@QSequentialAnimationGroupJob@@ABEHPAVQAbstractAnimationJob@@@Z @1274
?animationCurrentLoopChanged@QAnimationJobChangeListener@@UAEXPAVQAbstractAnimationJob@@@Z @1275
?animationCurrentTimeChanged@QAnimationJobChangeListener@@UAEXPAVQAbstractAnimationJob@@H@Z @1276
?animationFinished@QAnimationJobChangeListener@@UAEXPAVQAbstractAnimationJob@@@Z @1277
?animationInserted@QAnimationGroupJob@@MAEXPAVQAbstractAnimationJob@@@Z @1278
?animationInserted@QSequentialAnimationGroupJob@@EAEXPAVQAbstractAnimationJob@@@Z @1279
?animationRemoved@QAnimationGroupJob@@MAEXPAVQAbstractAnimationJob@@00@Z @1280
?animationRemoved@QSequentialAnimationGroupJob@@EAEXPAVQAbstractAnimationJob@@00@Z @1281
?animationStateChanged@QAnimationJobChangeListener@@UAEXPAVQAbstractAnimationJob@@W4State@2@1@Z @1282
?append@ArrayData@QV4@@SAIPAUObject@2@PAUArrayObject@2@I@Z @1283
?append@Data@String@QV4@@CAXPBU123@PAVQChar@@@Z @1284
?append@QQmlListModel@@QAEXPAVQQmlV4Function@@@Z @1285
?append@QQmlListReference@@QBE_NPAVQObject@@@Z @1286
?append@QQmlPropertyCache@@AAEXPAVQQmlEngine@@PBUQMetaObject@@HW4Flag@QQmlPropertyRawData@@22@Z @1287
?appendAnimation@QAnimationGroupJob@@QAEXPAVQAbstractAnimationJob@@@Z @1288
?appendBinding@IRBuilder@QmlIR@@QAEXABVSourceLocation@AST@QQmlJS@@0IH_N1@Z @1289
?appendBinding@IRBuilder@QmlIR@@QAEXABVSourceLocation@AST@QQmlJS@@0IPAVStatement@45@@Z @1290
?appendBinding@IRBuilder@QmlIR@@QAEXPAVUiQualifiedId@AST@QQmlJS@@H_N@Z @1291
?appendBinding@IRBuilder@QmlIR@@QAEXPAVUiQualifiedId@AST@QQmlJS@@PAVStatement@45@@Z @1292
?appendBinding@Object@QmlIR@@QAE?AVQString@@PAUBinding@2@_N@Z @1293
?appendFunction@Object@QmlIR@@QAEXPAUFunction@2@@Z @1294
?appendMethod@QQmlPropertyCache@@QAEXABVQHashedCStringRef@@IHABV?$QList@VQByteArray@@@@@Z @1295
?appendMethod@QQmlPropertyCache@@QAEXABVQString@@IHABV?$QList@VQByteArray@@@@@Z @1296
?appendProperty@Object@QmlIR@@QAE?AVQString@@PAUProperty@2@ABV3@_NABVSourceLocation@AST@QQmlJS@@PAV567@@Z @1297
?appendProperty@QQmlPropertyCache@@QAEXABVQHashedCStringRef@@IHHH@Z @1298
?appendProperty@QQmlPropertyCache@@QAEXABVQString@@IHHH@Z @1299
?appendSignal@Object@QmlIR@@QAE?AVQString@@PAUSignal@2@@Z @1300
?appendSignal@QQmlPropertyCache@@QAEXABVQHashedCStringRef@@IHPBHABV?$QList@VQByteArray@@@@@Z @1301
?appendSignal@QQmlPropertyCache@@QAEXABVQString@@IHPBHABV?$QList@VQByteArray@@@@@Z @1302
?application@QQmlGuiProvider@@UAEPAVQObject@@PAV2@@Z @1303
?apply@QQmlChangeSet@@QAEXABV1@@Z @1304
?applyGroupState@QParallelAnimationGroupJob@@AAEXPAVQAbstractAnimationJob@@@Z @1305
?args@QQmlApplication@@QAE?AVQStringList@@XZ @1306
?argument@Codegen@QQmlJS@@IAEPAUExpr@IR@QV4@@PAU345@@Z @1307
?arrayCreate@Object@QV4@@QAEXXZ @1308
?arrayData@ArrayData@QV4@@QAEPAUValue@2@XZ @1309
?arrayData@ArrayData@QV4@@QBEPBUValue@2@XZ @1310
?arrayData@Object@QV4@@QBEPAUArrayData@2@XZ @1311
?arrayLiteral@Runtime@QV4@@SA_KPAUExecutionContext@2@PAUValue@2@I@Z @1312
?arrayPut@Object@QV4@@QAE_NIPAUValue@2@I@Z @1313
?arrayPut@Object@QV4@@QAE_NIUValueRef@2@@Z @1314
?arrayReserve@Object@QV4@@QAEXI@Z @1315
?arraySet@Object@QV4@@QAEXIABUProperty@2@UPropertyAttributes@2@@Z @1316
?arraySet@Object@QV4@@QAEXIUValueRef@2@@Z @1317
?arrayType@Object@QV4@@QBE?AW4Type@ArrayData@2@XZ @1318
?asArgumentsObject@Managed@QV4@@QAEPAUArgumentsObject@2@XZ @1319
?asArrayIndex@String@QV4@@QBEIXZ @1320
?asArrayIndex@Value@QV4@@QBEIXZ @1321
?asArrayLength@Value@QV4@@QBEIPA_N@Z @1322
?asArrayObject@Managed@QV4@@QAEPAUArrayObject@2@XZ @1323
?asArrayObject@Value@QV4@@QBEPAUArrayObject@2@XZ @1324
?asBooleanObject@Managed@QV4@@QAEPAUBooleanObject@2@XZ @1325
?asCallContext@ExecutionContext@QV4@@QAEPAUCallContext@2@XZ @1326
?asCallContext@ExecutionContext@QV4@@QBEPBUCallContext@2@XZ @1327
?asCatchContext@ExecutionContext@QV4@@QBEPBUCatchContext@2@XZ @1328
?asDateObject@Managed@QV4@@QAEPAUDateObject@2@XZ @1329
?asDateObject@Value@QV4@@QBEPAUDateObject@2@XZ @1330
?asDouble@Value@QV4@@QBENXZ @1331
?asErrorObject@Managed@QV4@@QAEPAUErrorObject@2@XZ @1332
?asErrorObject@Value@QV4@@QBEPAUErrorObject@2@XZ @1333
?asFunctionObject@Managed@QV4@@QAEPAUFunctionObject@2@XZ @1334
?asFunctionObject@Value@QV4@@QBEPAUFunctionObject@2@XZ @1335
?asManaged@Value@QV4@@QBEPAUManaged@2@XZ @1336
?asNumberObject@Managed@QV4@@QAEPAUNumberObject@2@XZ @1337
?asNumberObject@Value@QV4@@QBEPAUNumberObject@2@XZ @1338
?asObject@Managed@QV4@@QAEPAUObject@2@XZ @1339
?asObject@Value@QV4@@QBEPAUObject@2@XZ @1340
?asQQmlContext@QQmlContextData@@QAEPAVQQmlContext@@XZ @1341
?asQQmlContextPrivate@QQmlContextData@@QAEPAVQQmlContextPrivate@@XZ @1342
?asReturnedValue@Data@Managed@QV4@@QBE_KXZ @1343
?asReturnedValue@Managed@QV4@@QAE_KXZ @1344
?asReturnedValue@Value@QV4@@QBE_KXZ @1345
?asString@IRBuilder@QmlIR@@SA?AVQString@@PAVUiQualifiedId@AST@QQmlJS@@@Z @1346
?asString@IdentifierPropertyName@AST@QQmlJS@@UBE?AVQString@@XZ @1347
?asString@Managed@QV4@@QAEPAUString@2@XZ @1348
?asString@NumericLiteralPropertyName@AST@QQmlJS@@UBE?AVQString@@XZ @1349
?asString@StringLiteralPropertyName@AST@QQmlJS@@UBE?AVQString@@XZ @1350
?asString@Value@QV4@@QBEPAUString@2@XZ @1351
?asStringObject@Managed@QV4@@QAEPAUStringObject@2@XZ @1352
?asStringObject@Value@QV4@@QBEPAUStringObject@2@XZ @1353
?asStringRef@IRBuilder@QmlIR@@QAE?AVQStringRef@@PAVNode@AST@QQmlJS@@@Z @1354
?asValue@Primitive@QV4@@QBE?AUValue@2@XZ @1355
?asWithContext@ExecutionContext@QV4@@QBEPBUWithContext@2@XZ @1356
?ast@Parser@QQmlJS@@QBEPAVUiProgram@AST@2@XZ @1357
?at@QQmlListReference@@QBEPAVQObject@@H@Z @1358
?atEnd@QSequentialAnimationGroupJob@@ABE_NXZ @1359
?attachToAgent@Debugger@Debugging@QV4@@QAEXPAVDebuggerAgent@23@@Z @1360
?attachedProperties@QQmlData@@QBEPAV?$QHash@HPAVQObject@@@@XZ @1361
?attachedPropertiesFuncById@QQmlMetaType@@SAP6APAVQObject@@PAV2@@ZH@Z @1362
?attachedPropertiesFuncId@QQmlMetaType@@SAHPBUQMetaObject@@@Z @1363
?attachedPropertiesFunction@QQmlType@@QBEP6APAVQObject@@PAV2@@ZXZ @1364
?attachedPropertiesId@QQmlType@@QBEHXZ @1365
?attachedPropertiesType@QQmlType@@QBEPBUQMetaObject@@XZ @1366
?attachedToEngine@QQmlDebugService@@QAEXPAVQQmlEngine@@@Z @1367
?attribute@SimpleArrayData@QV4@@SA?AUPropertyAttributes@2@PBUArrayData@2@I@Z @1368
?attribute@SparseArrayData@QV4@@SA?AUPropertyAttributes@2@PBUArrayData@2@I@Z @1369
?attributes@ArrayData@QV4@@QBE?AUPropertyAttributes@2@H@Z @1370
?attrs@ArrayData@QV4@@QBEPAUPropertyAttributes@2@XZ @1371
?availableInVersion@QQmlType@@QBE_NABVQHashedStringRef@@HH@Z @1372
?availableInVersion@QQmlType@@QBE_NHH@Z @1373
?backendCompileStep@InstructionSelection@JIT@QV4@@MAE?AV?$QQmlRefPointer@UCompilationUnit@CompiledData@QV4@@@@XZ @1374
?backendCompileStep@InstructionSelection@Moth@QV4@@MAE?AV?$QQmlRefPointer@UCompilationUnit@CompiledData@QV4@@@@XZ @1375
?baseAddressForCallArguments@InstructionSelection@JIT@QV4@@IAE?AUPointer@Assembler@23@XZ @1376
?baseAddressForCallData@InstructionSelection@JIT@QV4@@IAE?AUPointer@Assembler@23@XZ @1377
?baseMetaObject@QQmlType@@QBEPBUQMetaObject@@XZ @1378
?baseModulesUninitialized@QQmlEnginePrivate@@2_NA @1379
?baseUrl@QQmlContext@@QBE?AVQUrl@@XZ @1380
?baseUrl@QQmlEngine@@QBE?AVQUrl@@XZ @1381
?baseUrl@QQmlExtensionPlugin@@QBE?AVQUrl@@XZ @1382
?baseUrl@QQmlImports@@QBE?AVQUrl@@XZ @1383
?begin@SparseArray@QV4@@QAEPAUSparseArrayNode@2@XZ @1384
?begin@SparseArray@QV4@@QBEPBUSparseArrayNode@2@XZ @1385
?beginContextScope@JSCodeGen@QmlIR@@QAEXABV?$QVector@UIdMapping@JSCodeGen@QmlIR@@@@PAVQQmlPropertyCache@@@Z @1386
?beginCreate@QQmlComponent@@UAEPAVQObject@@PAVQQmlContext@@@Z @1387
?beginCreate@QQmlComponentPrivate@@QAEPAVQObject@@PAVQQmlContextData@@@Z @1388
?beginDeferred@QQmlComponentPrivate@@SAXPAVQQmlEnginePrivate@@PAVQObject@@PAUConstructionState@1@@Z @1389
?beginFunctionBodyHook@Codegen@QQmlJS@@MAEXXZ @1390
?beginFunctionBodyHook@JSCodeGen@QmlIR@@MAEXXZ @1391
?beginObjectScope@JSCodeGen@QmlIR@@QAEXPAVQQmlPropertyCache@@@Z @1392
?bezierCurve@QQmlEasingValueType@@QBE?AV?$QList@VQVariant@@@@XZ @1393
?binaryExpressionCast@BinaryExpression@AST@QQmlJS@@UAEPAV123@XZ @1394
?binaryExpressionCast@Node@AST@QQmlJS@@UAEPAVBinaryExpression@23@XZ @1395
?binding@QQmlPropertyPrivate@@SAPAVQQmlAbstractBinding@@ABVQQmlProperty@@@Z @1396
?binding@QQmlPropertyPrivate@@SAPAVQQmlAbstractBinding@@PAVQObject@@HH@Z @1397
?bindingAsString@Object@QmlIR@@QBE?AVQString@@PAUDocument@2@H@Z @1398
?bindingCount@Object@QmlIR@@QBEHXZ @1399
?bindingIndex@QQmlPropertyPrivate@@SAHABVQQmlProperty@@@Z @1400
?bindingIndex@QQmlPropertyPrivate@@SAHABVQQmlPropertyData@@@Z @1401
?bindingKeyFlag@FunctionObject@QV4@@QBE_NXZ @1402
?bindingType@QQmlAbstractBinding@@QBE?AW4BindingType@1@XZ @1403
?bindingsTarget@IRBuilder@QmlIR@@QBEPAUObject@2@XZ @1404
?binop@Codegen@QQmlJS@@IAEPAUExpr@IR@QV4@@W4AluOp@45@PAU345@1ABVSourceLocation@AST@2@@Z @1405
?binop@InstructionSelection@JIT@QV4@@MAEXW4AluOp@IR@3@PAUExpr@53@11@Z @1406
?binop@InstructionSelection@Moth@QV4@@MAEXW4AluOp@IR@3@PAUExpr@53@11@Z @1407
?binopHelper@InstructionSelection@Moth@QV4@@AAE?AUParam@23@W4AluOp@IR@3@PAUExpr@63@11@Z @1408
?bitAnd@Runtime@QV4@@SA_KUValueRef@2@0@Z @1409
?bitOr@Runtime@QV4@@SA_KUValueRef@2@0@Z @1410
?bitXor@Runtime@QV4@@SA_KUValueRef@2@0@Z @1411
?blockingMode@QQmlDebugServer@@QBE_NXZ @1412
?blockingMode@QQmlDebugService@@SA_NXZ @1413
?booleanLiteral@QQmlScriptString@@QBE_NPA_N@Z @1414
?booleanValue@Value@QV4@@QBE_NXZ @1415
?bothDouble@Value@QV4@@SA_NU12@0@Z @1416
?breakOnThrow@DebuggerAgent@Debugging@QV4@@QBE_NXZ @1417
?breakPointIds@DebuggerAgent@Debugging@QV4@@QBE?AV?$QList@H@@ABVQString@@H@Z @1418
?buildObjectDump@QQmlEngineDebugService@@AAEXAAVQDataStream@@PAVQObject@@_N2@Z @1419
?buildObjectList@QQmlEngineDebugService@@AAEXAAVQDataStream@@PAVQQmlContext@@ABV?$QList@V?$QPointer@VQObject@@@@@@@Z @1420
?buildStatesList@QQmlEngineDebugService@@AAEX_NABV?$QList@V?$QPointer@VQObject@@@@@@@Z @1421
?bundleDirectoryExists@QQmlFile@@SA_NABVQString@@PAVQQmlEngine@@@Z @1422
?bundleDirectoryExists@QQmlFile@@SA_NABVQUrl@@PAVQQmlEngine@@@Z @1423
?bundleFileExists@QQmlFile@@SA_NABVQString@@PAVQQmlEngine@@@Z @1424
?bundleFileExists@QQmlFile@@SA_NABVQUrl@@PAVQQmlEngine@@@Z @1425
?bundleFileName@QQmlFile@@SA?AVQString@@ABV2@PAVQQmlEngine@@@Z @1426
?bundleFileName@QQmlFile@@SA?AVQString@@ABVQUrl@@PAVQQmlEngine@@@Z @1427
?bundleHeaderLength@QQmlBundle@@SAHXZ @1428
?cache@QQmlEnginePrivate@@QAEPAVQQmlPropertyCache@@PAVQObject@@@Z @1429
?cache@QQmlEnginePrivate@@QAEPAVQQmlPropertyCache@@PAVQQmlType@@HAAVQQmlError@@@Z @1430
?cache@QQmlEnginePrivate@@QAEPAVQQmlPropertyCache@@PBUQMetaObject@@@Z @1431
?calculateOptionalJumps@Optimizer@IR@QV4@@QAE?AV?$QSet@PAUJump@IR@QV4@@@@XZ @1432
?calculateRegistersToSave@InstructionSelection@JIT@QV4@@AAEXABV?$QVector@VRegisterInfo@JIT@QV4@@@@@Z @1433
?call@BuiltinFunction@QV4@@SA_KPAUManaged@2@PAUCallData@2@@Z @1434
?call@Codegen@QQmlJS@@IAEPAUExpr@IR@QV4@@PAU345@PAUExprList@45@@Z @1435
?call@EvalFunction@QV4@@SA_KPAUManaged@2@PAUCallData@2@@Z @1436
?call@FunctionObject@QV4@@SA_KPAUManaged@2@PAUCallData@2@@Z @1437
?call@Object@QV4@@KA_KPAUManaged@2@PAUCallData@2@@Z @1438
?call@Object@QV4@@QAE_KPAUCallData@2@@Z @1439
?call@QJSValue@@QAE?AV1@ABV?$QList@VQJSValue@@@@@Z @1440
?call@QObjectMethod@QV4@@SA_KPAUManaged@2@PAUCallData@2@@Z @1441
?call@QmlBindingWrapper@QV4@@SA_KPAUManaged@2@PAUCallData@2@@Z @1442
?callActivationProperty@Runtime@QV4@@SA_KPAUExecutionContext@2@PAUString@2@PAUCallData@2@@Z @1443
?callAsConstructor@QJSValue@@QAE?AV1@ABV?$QList@VQJSValue@@@@@Z @1444
?callBuiltin@IRDecoder@IR@QV4@@MAEXPAUCall@23@PAUExpr@23@@Z @1445
?callBuiltinConvertThisToObject@InstructionSelection@JIT@QV4@@MAEXXZ @1446
?callBuiltinConvertThisToObject@InstructionSelection@Moth@QV4@@MAEXXZ @1447
?callBuiltinDeclareVar@InstructionSelection@JIT@QV4@@MAEX_NABVQString@@@Z @1448
?callBuiltinDeclareVar@InstructionSelection@Moth@QV4@@MAEX_NABVQString@@@Z @1449
?callBuiltinDefineArray@InstructionSelection@JIT@QV4@@MAEXPAUExpr@IR@3@PAUExprList@53@@Z @1450
?callBuiltinDefineArray@InstructionSelection@Moth@QV4@@MAEXPAUExpr@IR@3@PAUExprList@53@@Z @1451
?callBuiltinDefineObjectLiteral@InstructionSelection@JIT@QV4@@MAEXPAUExpr@IR@3@HPAUExprList@53@1_N@Z @1452
?callBuiltinDefineObjectLiteral@InstructionSelection@Moth@QV4@@MAEXPAUExpr@IR@3@HPAUExprList@53@1_N@Z @1453
?callBuiltinDeleteMember@InstructionSelection@JIT@QV4@@MAEXPAUExpr@IR@3@ABVQString@@0@Z @1454
?callBuiltinDeleteMember@InstructionSelection@Moth@QV4@@MAEXPAUExpr@IR@3@ABVQString@@0@Z @1455
?callBuiltinDeleteName@InstructionSelection@JIT@QV4@@MAEXABVQString@@PAUExpr@IR@3@@Z @1456
?callBuiltinDeleteName@InstructionSelection@Moth@QV4@@MAEXABVQString@@PAUExpr@IR@3@@Z @1457
?callBuiltinDeleteSubscript@InstructionSelection@JIT@QV4@@MAEXPAUExpr@IR@3@00@Z @1458
?callBuiltinDeleteSubscript@InstructionSelection@Moth@QV4@@MAEXPAUExpr@IR@3@00@Z @1459
?callBuiltinDeleteValue@InstructionSelection@JIT@QV4@@MAEXPAUExpr@IR@3@@Z @1460
?callBuiltinDeleteValue@InstructionSelection@Moth@QV4@@MAEXPAUExpr@IR@3@@Z @1461
?callBuiltinForeachIteratorObject@InstructionSelection@JIT@QV4@@MAEXPAUExpr@IR@3@0@Z @1462
?callBuiltinForeachIteratorObject@InstructionSelection@Moth@QV4@@MAEXPAUExpr@IR@3@0@Z @1463
?callBuiltinForeachNextPropertyname@InstructionSelection@JIT@QV4@@MAEXPAUExpr@IR@3@0@Z @1464
?callBuiltinForeachNextPropertyname@InstructionSelection@Moth@QV4@@MAEXPAUExpr@IR@3@0@Z @1465
?callBuiltinInvalid@InstructionSelection@JIT@QV4@@MAEXPAUName@IR@3@PAUExprList@53@PAUExpr@53@@Z @1466
?callBuiltinInvalid@InstructionSelection@Moth@QV4@@MAEXPAUName@IR@3@PAUExprList@53@PAUExpr@53@@Z @1467
?callBuiltinPopScope@InstructionSelection@JIT@QV4@@MAEXXZ @1468
?callBuiltinPopScope@InstructionSelection@Moth@QV4@@MAEXXZ @1469
?callBuiltinPushCatchScope@InstructionSelection@JIT@QV4@@MAEXABVQString@@@Z @1470
?callBuiltinPushCatchScope@InstructionSelection@Moth@QV4@@MAEXABVQString@@@Z @1471
?callBuiltinPushWithScope@InstructionSelection@JIT@QV4@@MAEXPAUExpr@IR@3@@Z @1472
?callBuiltinPushWithScope@InstructionSelection@Moth@QV4@@MAEXPAUExpr@IR@3@@Z @1473
?callBuiltinReThrow@InstructionSelection@JIT@QV4@@MAEXXZ @1474
?callBuiltinReThrow@InstructionSelection@Moth@QV4@@MAEXXZ @1475
?callBuiltinSetupArgumentObject@InstructionSelection@JIT@QV4@@MAEXPAUExpr@IR@3@@Z @1476
?callBuiltinSetupArgumentObject@InstructionSelection@Moth@QV4@@MAEXPAUExpr@IR@3@@Z @1477
?callBuiltinThrow@InstructionSelection@JIT@QV4@@MAEXPAUExpr@IR@3@@Z @1478
?callBuiltinThrow@InstructionSelection@Moth@QV4@@MAEXPAUExpr@IR@3@@Z @1479
?callBuiltinTypeofMember@InstructionSelection@JIT@QV4@@MAEXPAUExpr@IR@3@ABVQString@@0@Z @1480
?callBuiltinTypeofMember@InstructionSelection@Moth@QV4@@MAEXPAUExpr@IR@3@ABVQString@@0@Z @1481
?callBuiltinTypeofName@InstructionSelection@JIT@QV4@@MAEXABVQString@@PAUExpr@IR@3@@Z @1482
?callBuiltinTypeofName@InstructionSelection@Moth@QV4@@MAEXABVQString@@PAUExpr@IR@3@@Z @1483
?callBuiltinTypeofSubscript@InstructionSelection@JIT@QV4@@MAEXPAUExpr@IR@3@00@Z @1484
?callBuiltinTypeofSubscript@InstructionSelection@Moth@QV4@@MAEXPAUExpr@IR@3@00@Z @1485
?callBuiltinTypeofValue@InstructionSelection@JIT@QV4@@MAEXPAUExpr@IR@3@0@Z @1486
?callBuiltinTypeofValue@InstructionSelection@Moth@QV4@@MAEXPAUExpr@IR@3@0@Z @1487
?callBuiltinUnwindException@InstructionSelection@JIT@QV4@@MAEXPAUExpr@IR@3@@Z @1488
?callBuiltinUnwindException@InstructionSelection@Moth@QV4@@MAEXPAUExpr@IR@3@@Z @1489
?callDataStart@InstructionSelection@Moth@QV4@@ABEHXZ @1490
?callElement@Runtime@QV4@@SA_KPAUExecutionContext@2@UValueRef@2@PAUCallData@2@@Z @1491
?callGlobalLookup@Runtime@QV4@@SA_KPAUExecutionContext@2@IPAUCallData@2@@Z @1492
?callInternal@QObjectMethod@QV4@@QAE_KPAUCallData@2@@Z @1493
?callProperty@InstructionSelection@JIT@QV4@@MAEXPAUExpr@IR@3@ABVQString@@PAUExprList@53@0@Z @1494
?callProperty@InstructionSelection@Moth@QV4@@MAEXPAUExpr@IR@3@ABVQString@@PAUExprList@53@0@Z @1495
?callProperty@Runtime@QV4@@SA_KPAUExecutionContext@2@PAUString@2@PAUCallData@2@@Z @1496
?callPropertyLookup@Runtime@QV4@@SA_KPAUExecutionContext@2@IPAUCallData@2@@Z @1497
?callSubscript@InstructionSelection@JIT@QV4@@MAEXPAUExpr@IR@3@0PAUExprList@53@0@Z @1498
?callSubscript@InstructionSelection@Moth@QV4@@MAEXPAUExpr@IR@3@0PAUExprList@53@0@Z @1499
?callValue@InstructionSelection@JIT@QV4@@MAEXPAUExpr@IR@3@PAUExprList@53@0@Z @1500
?callValue@InstructionSelection@Moth@QV4@@MAEXPAUExpr@IR@3@PAUExprList@53@0@Z @1501
?callValue@Runtime@QV4@@SA_KPAUExecutionContext@2@UValueRef@2@PAUCallData@2@@Z @1502
?callWithInstance@QJSValue@@QAE?AV1@ABV1@ABV?$QList@VQJSValue@@@@@Z @1503
?callingContext@QV8Engine@@QAEPAVQQmlContextData@@XZ @1504
?callingContext@QmlContextWrapper@QV4@@SAPAVQQmlContextData@@PAUExecutionEngine@2@@Z @1505
?canAppend@QQmlListReference@@QBE_NXZ @1506
?canAt@QQmlListReference@@QBE_NXZ @1507
?canClear@QQmlListReference@@QBE_NXZ @1508
?canConvert@QQmlMetaObject@@SA_NABV1@0@Z @1509
?canCount@QQmlListReference@@QBE_NXZ @1510
?canInsertAutomaticSemicolon@Lexer@QQmlJS@@QBE_NH@Z @1511
?canMove@QQmlListModel@@ABE_NHHH@Z @1512
?cancel@QQmlDelegateModel@@UAEXH@Z @1513
?cancel@QQmlInstanceModel@@UAEXH@Z @1514
?cancelAllWaitingFor@QQmlDataBlob@@AAEXXZ @1515
?captureProperty@QQmlEnginePrivate@@QAEXPAVQObject@@HH@Z @1516
?captureProperty@QQmlEnginePrivate@@QAEXPAVQQmlNotifier@@@Z @1517
?cast@FunctionObject@QV4@@SAPAU12@ABUValue@2@@Z @1518
?catchException@ExecutionContext@QV4@@QAE_KPAV?$QVector@UStackFrame@QV4@@@@@Z @1519
?catchException@ExecutionEngine@QV4@@QAE_KPAUExecutionContext@2@PAV?$QVector@UStackFrame@QV4@@@@@Z @1520
?catchExceptionAsQmlError@ExecutionEngine@QV4@@SA?AVQQmlError@@PAUExecutionContext@2@@Z @1521
?change@QQmlChangeSet@@AAEXPAV?$QVector@UChange@QQmlChangeSet@@@@@Z @1522
?change@QQmlChangeSet@@QAEXABV?$QVector@UChange@QQmlChangeSet@@@@@Z @1523
?change@QQmlChangeSet@@QAEXHH@Z @1524
?changed@QQmlDelegateModelGroup@@QAEXABVQQmlV4Handle@@0@Z @1525
?changes@QQmlChangeSet@@QBEABV?$QVector@UChange@QQmlChangeSet@@@@XZ @1526
?checkEngine@PersistentValuePrivate@QV4@@QAE_NPAUExecutionEngine@2@@Z @1527
?children@QQmlObjectModel@@QAE?AV?$QQmlListProperty@VQObject@@@@XZ @1528
?childrenChanged@QQmlObjectModel@@QAEXXZ @1529
?chunkForFunction@CompilationUnit@CompiledData@QV4@@UAEPAUChunkOfPages@ExecutableAllocator@3@H@Z @1530
?cjump@Codegen@QQmlJS@@IAEPAUStmt@IR@QV4@@PAUExpr@45@PAUBasicBlock@45@1@Z @1531
?classBegin@QQmlDelegateModel@@UAEXXZ @1532
?classBegin@QQmlTimer@@MAEXXZ @1533
?className@Managed@QV4@@QBE?AVQString@@XZ @1534
?className@QQmlMetaObject@@QBEPBDXZ @1535
?className@QQmlPropertyCache@@QBEPBDXZ @1536
?classify@Lexer@QQmlJS@@IAEHPBVQChar@@H_N@Z @1537
?cleanUp@QQmlApplicationEnginePrivate@@QAEXXZ @1538
?clear@PersistentValue@QV4@@QAEXXZ @1539
?clear@QAnimationGroupJob@@QAEXXZ @1540
?clear@QQmlAbstractBinding@@IAEXXZ @1541
?clear@QQmlChangeSet@@QAEXXZ @1542
?clear@QQmlComponentPrivate@@QAEXXZ @1543
?clear@QQmlFile@@QAEXPAVQObject@@@Z @1544
?clear@QQmlFile@@QAEXXZ @1545
?clear@QQmlIncubator@@QAEXXZ @1546
?clear@QQmlListModel@@QAEXXZ @1547
?clear@QQmlListReference@@QBE_NXZ @1548
?clear@QQmlMemoryProfiler@@SAXXZ @1549
?clear@QQmlOpenMetaObjectType@@MAEXXZ @1550
?clear@QQmlPool@@QAEXXZ @1551
?clear@QQmlPropertyCache@@MAEXXZ @1552
?clear@QQmlPropertyMap@@QAEXABVQString@@@Z @1553
?clear@StringTableGenerator@Compiler@QV4@@QAEXXZ @1554
?clear@WeakValue@QV4@@QAEXXZ @1555
?clearBindingBit@QQmlData@@QAEXH@Z @1556
?clearComponentCache@QQmlEngine@@QAEXXZ @1557
?clearContext@QQmlContextData@@QAEXXZ @1558
?clearError@QQmlExpression@@QAEXXZ @1559
?clearErrors@QQmlCustomParser@@QAEXXZ @1560
?clearObjectsFromHash@QQmlDebugService@@SAXXZ @1561
?clearPendingBindingBit@QQmlData@@QAEXH@Z @1562
?close@QQmlBundle@@QAEXXZ @1563
?closestPauseAnimationTimeToFinish@QQmlAnimationTimer@@AAEHXZ @1564
?closure@Runtime@QV4@@SA_KPAUExecutionContext@2@H@Z @1565
?code@Engine@QQmlJS@@QBEABVQString@@XZ @1566
?code@Lexer@QQmlJS@@QBE?AVQString@@XZ @1567
?collect@Collector@Debugger@Debugging@QV4@@QAEXABVQString@@ABUScopedValue@4@@Z @1568
?collect@Collector@Debugger@Debugging@QV4@@QAEXPAUObject@4@@Z @1569
?collectArgumentsInContext@Debugger@Debugging@QV4@@QAEXPAVCollector@123@HH@Z @1570
?collectFromJSStack@MemoryManager@QV4@@ABEXXZ @1571
?collectGarbage@QJSEngine@@QAEXXZ @1572
?collectLocalsInContext@Debugger@Debugging@QV4@@QAEXPAVCollector@123@HH@Z @1573
?collectReturnedValue@Debugger@Debugging@QV4@@QBEXPAVCollector@123@@Z @1574
?collectThisInContext@Debugger@Debugging@QV4@@QAE_NPAVCollector@123@H@Z @1575
?collectThrownValue@Debugger@Debugging@QV4@@QAEXPAVCollector@123@@Z @1576
?collectTypeReferences@Document@QmlIR@@QAEXXZ @1577
?colorFromString@QQmlColorProvider@@UAE?AVQVariant@@ABVQString@@PA_N@Z @1578
?colorFromString@QQmlStringConverters@@YA?AVQVariant@@ABVQString@@PA_N@Z @1579
?column@QQmlError@@QBEHXZ @1580
?columnNumber@QQmlExpression@@QBEHXZ @1581
?comments@Engine@QQmlJS@@QBE?AV?$QList@VSourceLocation@AST@QQmlJS@@@@XZ @1582
?compare@String@QV4@@QAE_NPBU12@@Z @1583
?compareEqual@Runtime@QV4@@SAIUValueRef@2@0@Z @1584
?compareGreaterEqual@Runtime@QV4@@SAIUValueRef@2@0@Z @1585
?compareGreaterThan@Runtime@QV4@@SAIUValueRef@2@0@Z @1586
?compareIn@Runtime@QV4@@SAIPAUExecutionContext@2@UValueRef@2@1@Z @1587
?compareInstanceof@Runtime@QV4@@SAIPAUExecutionContext@2@UValueRef@2@1@Z @1588
?compareLessEqual@Runtime@QV4@@SAIUValueRef@2@0@Z @1589
?compareLessThan@Runtime@QV4@@SAIUValueRef@2@0@Z @1590
?compareNotEqual@Runtime@QV4@@SAIUValueRef@2@0@Z @1591
?compareStrictEqual@Runtime@QV4@@SAIUValueRef@2@0@Z @1592
?compareStrictNotEqual@Runtime@QV4@@SAIUValueRef@2@0@Z @1593
?compile@EvalInstructionSelection@QV4@@QAE?AV?$QQmlRefPointer@UCompilationUnit@CompiledData@QV4@@@@_N@Z @1594
?complement@Runtime@QV4@@SA_KUValueRef@2@@Z @1595
?complete@QQmlComponentPrivate@@SAXPAVQQmlEnginePrivate@@PAUConstructionState@1@@Z @1596
?completeCreate@QQmlComponent@@UAEXXZ @1597
?completeCreate@QQmlComponentPrivate@@QAEXXZ @1598
?completeQmldirPath@QQmlImports@@SA?AVQString@@ABV2@0HHW4ImportVersion@1@@Z @1599
?completed@QQmlComponentAttached@@QAEXXZ @1600
?completed@QQmlDataBlob@@MAEXXZ @1601
?componentComplete@QQmlDelegateModel@@UAEXXZ @1602
?componentComplete@QQmlTimer@@MAEXXZ @1603
?componentCompleteEnabled@QQmlVME@@SA_NXZ @1604
?components@QQmlDirParser@@QBE?AV?$QHash@VQString@@UComponent@QQmlDirParser@@@@XZ @1605
?condition@Codegen@QQmlJS@@IAEXPAVExpressionNode@AST@2@PAUBasicBlock@IR@QV4@@1@Z @1606
?connect@QQmlPropertyPrivate@@SA_NPBVQObject@@H0HHPAH@Z @1607
?connectAlias@QQmlVMEMetaObject@@QAEXH@Z @1608
?connectAliasSignal@QQmlVMEMetaObject@@QAEXH_N@Z @1609
?connectDownloadProgress@QQmlFile@@QAE_NPAVQObject@@H@Z @1610
?connectDownloadProgress@QQmlFile@@QAE_NPAVQObject@@PBD@Z @1611
?connectFinished@QQmlFile@@QAE_NPAVQObject@@H@Z @1612
?connectFinished@QQmlFile@@QAE_NPAVQObject@@PBD@Z @1613
?connectNotifySignal@QQmlProperty@@QBE_NPAVQObject@@H@Z @1614
?connectNotifySignal@QQmlProperty@@QBE_NPAVQObject@@PBD@Z @1615
?consoleCountHelper@QV8Engine@@QAEHABVQString@@GG@Z @1616
?construct@BuiltinFunction@QV4@@SA_KPAUManaged@2@PAUCallData@2@@Z @1617
?construct@FunctionObject@QV4@@SA_KPAUManaged@2@PAUCallData@2@@Z @1618
?construct@Object@QV4@@KA_KPAUManaged@2@PAUCallData@2@@Z @1619
?construct@Object@QV4@@QAE_KPAUCallData@2@@Z @1620
?constructActivationProperty@InstructionSelection@JIT@QV4@@MAEXPAUName@IR@3@PAUExprList@53@PAUExpr@53@@Z @1621
?constructActivationProperty@InstructionSelection@Moth@QV4@@MAEXPAUName@IR@3@PAUExprList@53@PAUExpr@53@@Z @1622
?constructActivationProperty@Runtime@QV4@@SA_KPAUExecutionContext@2@PAUString@2@PAUCallData@2@@Z @1623
?constructGlobalLookup@Runtime@QV4@@SA_KPAUExecutionContext@2@IPAUCallData@2@@Z @1624
?constructProperty@InstructionSelection@JIT@QV4@@MAEXPAUExpr@IR@3@ABVQString@@PAUExprList@53@0@Z @1625
?constructProperty@InstructionSelection@Moth@QV4@@MAEXPAUExpr@IR@3@ABVQString@@PAUExprList@53@0@Z @1626
?constructProperty@Runtime@QV4@@SA_KPAUExecutionContext@2@PAUString@2@PAUCallData@2@@Z @1627
?constructPropertyLookup@Runtime@QV4@@SA_KPAUExecutionContext@2@IPAUCallData@2@@Z @1628
?constructValue@InstructionSelection@JIT@QV4@@MAEXPAUExpr@IR@3@PAUExprList@53@0@Z @1629
?constructValue@InstructionSelection@Moth@QV4@@MAEXPAUExpr@IR@3@PAUExprList@53@0@Z @1630
?constructValue@Runtime@QV4@@SA_KPAUExecutionContext@2@UValueRef@2@PAUCallData@2@@Z @1631
?contains@QQmlPropertyMap@@QBE_NABVQString@@@Z @1632
?containsRevisionedAttributes@QQmlType@@QBE_NXZ @1633
?contents@FileEntry@QQmlBundle@@QBEPBDXZ @1634
?context@QQmlAbstractExpression@@QBEPAVQQmlContextData@@XZ @1635
?context@QQmlExpression@@QBEPAVQQmlContext@@XZ @1636
?context@QmlBindingWrapper@QV4@@QBEPAUCallContext@2@XZ @1637
?contextForObject@QQmlEngine@@SAPAVQQmlContext@@PBVQObject@@@Z @1638
?contextObject@QQmlContext@@QBEPAVQObject@@XZ @1639
?contextProperty@QQmlContext@@QBE?AVQVariant@@ABVQString@@@Z @1640
?convertIntToBool@InstructionSelection@JIT@QV4@@AAEXPAUExpr@IR@3@0@Z @1641
?convertIntToDouble@InstructionSelection@JIT@QV4@@AAEXPAUExpr@IR@3@0@Z @1642
?convertOutOfSSA@Optimizer@IR@QV4@@QAEXXZ @1643
?convertThisToObject@Runtime@QV4@@SAXPAUExecutionContext@2@@Z @1644
?convertToNativeQObject@QV8Engine@@QAE_NUValueRef@QV4@@ABVQByteArray@@PAPAX@Z @1645
?convertToObject@RuntimeHelpers@QV4@@SAPAU?$Returned@UObject@QV4@@@2@PAUExecutionContext@2@UValueRef@2@@Z @1646
?convertToString@RuntimeHelpers@QV4@@SAPAU?$Returned@UString@QV4@@@2@PAUExecutionContext@2@UValueRef@2@@Z @1647
?convertType@InstructionSelection@JIT@QV4@@MAEXPAUExpr@IR@3@0@Z @1648
?convertType@InstructionSelection@Moth@QV4@@MAEXPAUExpr@IR@3@0@Z @1649
?convertTypeSlowPath@InstructionSelection@JIT@QV4@@AAEXPAUExpr@IR@3@0@Z @1650
?convertTypeToBool@InstructionSelection@JIT@QV4@@AAEXPAUExpr@IR@3@0@Z @1651
?convertTypeToDouble@InstructionSelection@JIT@QV4@@AAEXPAUExpr@IR@3@0@Z @1652
?convertTypeToSInt32@InstructionSelection@JIT@QV4@@AAEXPAUExpr@IR@3@0@Z @1653
?convertTypeToUInt32@InstructionSelection@JIT@QV4@@AAEXPAUExpr@IR@3@0@Z @1654
?convertUIntToDouble@InstructionSelection@JIT@QV4@@AAEXPAUExpr@IR@3@0@Z @1655
?convertV2@QJSEngine@@CA_NABVQJSValue@@HPAX@Z @1656
?copy@QQmlPropertyCache@@AAEPAV1@H@Z @1657
?copy@QQmlPropertyCache@@QAEPAV1@XZ @1658
?copy@QQmlValueTypeProvider@@EAE_NHPBXPAXI@Z @1659
?copyAndAppend@QQmlPropertyCache@@QAEPAV1@PAVQQmlEngine@@PBUQMetaObject@@HW4Flag@QQmlPropertyRawData@@22@Z @1660
?copyAndAppend@QQmlPropertyCache@@QAEPAV1@PAVQQmlEngine@@PBUQMetaObject@@W4Flag@QQmlPropertyRawData@@22@Z @1661
?copyAndReserve@QQmlPropertyCache@@QAEPAV1@PAVQQmlEngine@@HHH@Z @1662
?copyArrayData@Object@QV4@@QAEXPAU12@@Z @1663
?copyValue@InstructionSelection@JIT@QV4@@MAEXPAUExpr@IR@3@0@Z @1664
?copyValue@InstructionSelection@Moth@QV4@@MAEXPAUExpr@IR@3@0@Z @1665
?copyValueType@QQmlValueTypeProvider@@QAE_NHPBXPAXI@Z @1666
?count@QQmlDelegateModel@@UBEHXZ @1667
?count@QQmlDelegateModelGroup@@QBEHXZ @1668
?count@QQmlListModel@@QBEHXZ @1669
?count@QQmlListReference@@QBEHXZ @1670
?count@QQmlObjectModel@@UBEHXZ @1671
?count@QQmlOpenMetaObject@@QBEHXZ @1672
?count@QQmlPropertyMap@@QBEHXZ @1673
?count@QQmlRefCount@@QBEHXZ @1674
?countChanged@QQmlDelegateModelGroup@@QAEXXZ @1675
?countChanged@QQmlInstanceModel@@QAEXXZ @1676
?countChanged@QQmlListModel@@QAEXXZ @1677
?create@BuiltinFunction@QV4@@SAPAU12@PAUExecutionContext@2@PAUString@2@P6A_KPAUCallContext@2@@Z@Z @1678
?create@ISelFactory@JIT@QV4@@UAEPAVEvalInstructionSelection@3@PAVQQmlEnginePrivate@@PAVExecutableAllocator@3@PAUModule@IR@3@PAUJSUnitGenerator@Compiler@3@@Z @1679
?create@ISelFactory@Moth@QV4@@UAEPAVEvalInstructionSelection@3@PAVQQmlEnginePrivate@@PAVExecutableAllocator@3@PAUModule@IR@3@PAUJSUnitGenerator@Compiler@3@@Z @1680
?create@QJSEngine@@AAE?AVQJSValue@@HPBX@Z @1681
?create@QObjectMethod@QV4@@SA_KPAUExecutionContext@2@PAVQObject@@HUValueRef@2@@Z @1682
?create@QObjectWrapper@QV4@@CA_KPAUExecutionEngine@2@PAVQObject@@@Z @1683
?create@QQmlComponent@@QAEXAAVQQmlIncubator@@PAVQQmlContext@@1@Z @1684
?create@QQmlComponent@@UAEPAVQObject@@PAVQQmlContext@@@Z @1685
?create@QQmlDelegateModelGroup@@QAEXPAVQQmlV4Function@@@Z @1686
?create@QQmlType@@QBEPAVQObject@@XZ @1687
?create@QQmlType@@QBEXPAPAVQObject@@PAPAXI@Z @1688
?create@QQmlValueTypeProvider@@EAE_NHAAPAVQQmlValueType@@@Z @1689
?create@QQmlValueTypeProvider@@EAE_NHHQAPBXPAVQVariant@@@Z @1690
?create@QmlListWrapper@QV4@@SA_KPAVQV8Engine@@ABV?$QQmlListProperty@VQObject@@@@H@Z @1691
?create@QmlListWrapper@QV4@@SA_KPAVQV8Engine@@PAVQObject@@HH@Z @1692
?create@QmlTypeWrapper@QV4@@SA_KPAVQV8Engine@@PAVQObject@@PAVQQmlType@@W4TypeNameMode@12@@Z @1693
?create@QmlTypeWrapper@QV4@@SA_KPAVQV8Engine@@PAVQObject@@PAVQQmlTypeNameCache@@PBXW4TypeNameMode@12@@Z @1694
?create@QmlValueTypeWrapper@QV4@@SA_KPAVQV8Engine@@ABVQVariant@@PAVQQmlValueType@@@Z @1695
?create@QmlValueTypeWrapper@QV4@@SA_KPAVQV8Engine@@PAVQObject@@HPAVQQmlValueType@@@Z @1696
?createArgumentsObject@QQmlPropertyCache@@AAEPAVQQmlPropertyCacheMethodArguments@@HABV?$QList@VQByteArray@@@@@Z @1697
?createCache@QQmlEnginePrivate@@AAEPAVQQmlPropertyCache@@PAVQQmlType@@HAAVQQmlError@@@Z @1698
?createCache@QQmlEnginePrivate@@AAEPAVQQmlPropertyCache@@PBUQMetaObject@@@Z @1699
?createFromString@QQmlStringConverters@@YA_NHABVQString@@PAXI@Z @1700
?createFromString@QQmlValueTypeProvider@@EAE_NHABVQString@@PAXI@Z @1701
?createFunction@QQmlType@@QBEP6AXPAX@ZXZ @1702
?createHashValue@String@QV4@@QBEXXZ @1703
?createHashValue@String@QV4@@SAIPBDH@Z @1704
?createHashValue@String@QV4@@SAIPBVQChar@@H@Z @1705
?createMetaObject@QQmlPropertyCache@@QAEPBUQMetaObject@@XZ @1706
?createMutableBinding@ExecutionContext@QV4@@QAEXPAUString@2@_N@Z @1707
?createNetworkAccessManager@QQmlEnginePrivate@@QBEPAVQNetworkAccessManager@@PAVQObject@@@Z @1708
?createNode@SparseArray@QV4@@QAEPAUSparseArrayNode@2@IPAU32@_N@Z @1709
?createObject@QQmlComponent@@IAEXPAVQQmlV4Function@@@Z @1710
?createProperty@QQmlOpenMetaObject@@MAEHPBD0@Z @1711
?createProperty@QQmlOpenMetaObjectType@@QAEHABVQByteArray@@@Z @1712
?createQmlCallableForFunction@QmlBindingWrapper@QV4@@SAPAU?$Returned@UFunctionObject@QV4@@@2@PAVQQmlContextData@@PAVQObject@@PAUFunction@2@ABV?$QList@VQByteArray@@@@PAVQString@@@Z @1713
?createScriptFunction@FunctionObject@QV4@@SAPAU12@PAUExecutionContext@2@PAUFunction@2@_N@Z @1714
?createSize@QQmlType@@QBEHXZ @1715
?createStringFrom@QQmlValueTypeProvider@@EAE_NHPBXPAVQString@@@Z @1716
?createStringFromValue@QQmlValueTypeProvider@@QAE_NHPBXPAVQString@@@Z @1717
?createUnitData@CompilationUnit@CompiledData@QV4@@UAEPAUUnit@23@PAUDocument@QmlIR@@@Z @1718
?createValueFromString@QQmlValueTypeProvider@@QAE_NHABVQString@@PAXI@Z @1719
?createValueType@QQmlValueTypeProvider@@QAE?AVQVariant@@HHQAPBX@Z @1720
?createValueType@QQmlValueTypeProvider@@QAEPAVQQmlValueType@@H@Z @1721
?createVariantFromJsObject@QQmlValueTypeProvider@@QAE?AVQVariant@@HVQQmlV4Handle@@PAVQV8Engine@@PA_N@Z @1722
?createVariantFromString@QQmlValueTypeProvider@@QAE?AVQVariant@@ABVQString@@@Z @1723
?createVariantFromString@QQmlValueTypeProvider@@QAE?AVQVariant@@HABVQString@@PA_N@Z @1724
?createWithOwner@QQmlListModel@@CAPAV1@PAV1@@Z @1725
?createdItem@QQmlInstanceModel@@QAEXHPAVQObject@@@Z @1726
?creationContext@QQmlComponent@@QBEPAVQQmlContext@@XZ @1727
?currentAnimation@QSequentialAnimationGroupJob@@QBEPAVQAbstractAnimationJob@@XZ @1728
?currentContext@ExecutionEngine@QV4@@QBEPAUExecutionContext@2@XZ @1729
?currentExecutionState@Debugger@Debugging@QV4@@QBE?AUExecutionState@123@XZ @1730
?currentLoop@QAbstractAnimationJob@@QBEHXZ @1731
?currentLoopChanged@QAbstractAnimationJob@@IAEXXZ @1732
?currentLoopTime@QAbstractAnimationJob@@QBEHXZ @1733
?currentStackFrame@ExecutionEngine@QV4@@QBE?AUStackFrame@2@XZ @1734
?currentTime@QAbstractAnimationJob@@QBEHXZ @1735
?currentTimeChanged@QAbstractAnimationJob@@IAEXH@Z @1736
?customParser@QQmlType@@QBEPAVQQmlCustomParser@@XZ @1737
?customStringConverter@QQmlMetaType@@SAP6A?AVQVariant@@ABVQString@@@ZH@Z @1738
?d@ArrayData@QV4@@QAEPAUData@12@XZ @1739
?d@ArrayData@QV4@@QBEPBUData@12@XZ @1740
?d@BuiltinFunction@QV4@@QAEPAUData@12@XZ @1741
?d@BuiltinFunction@QV4@@QBEPBUData@12@XZ @1742
?d@EvalFunction@QV4@@QAEPAUData@12@XZ @1743
?d@EvalFunction@QV4@@QBEPBUData@12@XZ @1744
?d@ExecutionContext@QV4@@QAEPAUData@12@XZ @1745
?d@ExecutionContext@QV4@@QBEPBUData@12@XZ @1746
?d@FunctionObject@QV4@@QAEPAUData@12@XZ @1747
?d@FunctionObject@QV4@@QBEPBUData@12@XZ @1748
?d@Managed@QV4@@QAEPAUData@12@XZ @1749
?d@Managed@QV4@@QBEPBUData@12@XZ @1750
?d@Object@QV4@@QAEPAUData@12@XZ @1751
?d@Object@QV4@@QBEPBUData@12@XZ @1752
?d@QObjectMethod@QV4@@QAEPAUData@12@XZ @1753
?d@QObjectMethod@QV4@@QBEPBUData@12@XZ @1754
?d@QObjectWrapper@QV4@@QAEPAUData@12@XZ @1755
?d@QObjectWrapper@QV4@@QBEPBUData@12@XZ @1756
?d@QmlBindingWrapper@QV4@@QAEPAUData@12@XZ @1757
?d@QmlBindingWrapper@QV4@@QBEPBUData@12@XZ @1758
?d@QmlContextWrapper@QV4@@QAEPAUData@12@XZ @1759
?d@QmlContextWrapper@QV4@@QBEPBUData@12@XZ @1760
?d@QmlListWrapper@QV4@@QAEPAUData@12@XZ @1761
?d@QmlListWrapper@QV4@@QBEPBUData@12@XZ @1762
?d@QmlTypeWrapper@QV4@@QAEPAUData@12@XZ @1763
?d@QmlTypeWrapper@QV4@@QBEPBUData@12@XZ @1764
?d@QmlValueTypeWrapper@QV4@@QAEPAUData@12@XZ @1765
?d@QmlValueTypeWrapper@QV4@@QBEPBUData@12@XZ @1766
?d@SimpleArrayData@QV4@@QAEPAUData@12@XZ @1767
?d@SimpleArrayData@QV4@@QBEPBUData@12@XZ @1768
?d@SparseArrayData@QV4@@QAEPAUData@12@XZ @1769
?d@SparseArrayData@QV4@@QBEPBUData@12@XZ @1770
?d@String@QV4@@QAEPAUData@12@XZ @1771
?d@String@QV4@@QBEPBUData@12@XZ @1772
?d_func@QJSEngine@@AAEPAVQJSEnginePrivate@@XZ @1773
?d_func@QJSEngine@@ABEPBVQJSEnginePrivate@@XZ @1774
?d_func@QJSValueIterator@@AAEPAVQJSValueIteratorPrivate@@XZ @1775
?d_func@QJSValueIterator@@ABEPBVQJSValueIteratorPrivate@@XZ @1776
?d_func@QQmlApplication@@AAEPAVQQmlApplicationPrivate@@XZ @1777
?d_func@QQmlApplication@@ABEPBVQQmlApplicationPrivate@@XZ @1778
?d_func@QQmlApplicationEngine@@AAEPAVQQmlApplicationEnginePrivate@@XZ @1779
?d_func@QQmlApplicationEngine@@ABEPBVQQmlApplicationEnginePrivate@@XZ @1780
?d_func@QQmlComponent@@AAEPAVQQmlComponentPrivate@@XZ @1781
?d_func@QQmlComponent@@ABEPBVQQmlComponentPrivate@@XZ @1782
?d_func@QQmlContext@@AAEPAVQQmlContextPrivate@@XZ @1783
?d_func@QQmlContext@@ABEPBVQQmlContextPrivate@@XZ @1784
?d_func@QQmlDebugServer@@AAEPAVQQmlDebugServerPrivate@@XZ @1785
?d_func@QQmlDebugServer@@ABEPBVQQmlDebugServerPrivate@@XZ @1786
?d_func@QQmlDebugService@@AAEPAVQQmlDebugServicePrivate@@XZ @1787
?d_func@QQmlDebugService@@ABEPBVQQmlDebugServicePrivate@@XZ @1788
?d_func@QQmlDelegateModel@@AAEPAVQQmlDelegateModelPrivate@@XZ @1789
?d_func@QQmlDelegateModel@@ABEPBVQQmlDelegateModelPrivate@@XZ @1790
?d_func@QQmlDelegateModelGroup@@AAEPAVQQmlDelegateModelGroupPrivate@@XZ @1791
?d_func@QQmlDelegateModelGroup@@ABEPBVQQmlDelegateModelGroupPrivate@@XZ @1792
?d_func@QQmlEngine@@AAEPAVQQmlEnginePrivate@@XZ @1793
?d_func@QQmlEngine@@ABEPBVQQmlEnginePrivate@@XZ @1794
?d_func@QQmlExpression@@AAEPAVQQmlExpressionPrivate@@XZ @1795
?d_func@QQmlExpression@@ABEPBVQQmlExpressionPrivate@@XZ @1796
?d_func@QQmlExtensionPlugin@@AAEPAVQQmlExtensionPluginPrivate@@XZ @1797
?d_func@QQmlExtensionPlugin@@ABEPBVQQmlExtensionPluginPrivate@@XZ @1798
?d_func@QQmlFileSelector@@AAEPAVQQmlFileSelectorPrivate@@XZ @1799
?d_func@QQmlFileSelector@@ABEPBVQQmlFileSelectorPrivate@@XZ @1800
?d_func@QQmlObjectModel@@AAEPAVQQmlObjectModelPrivate@@XZ @1801
?d_func@QQmlObjectModel@@ABEPBVQQmlObjectModelPrivate@@XZ @1802
?d_func@QQmlPropertyMap@@AAEPAVQQmlPropertyMapPrivate@@XZ @1803
?d_func@QQmlPropertyMap@@ABEPBVQQmlPropertyMapPrivate@@XZ @1804
?d_func@QQmlTimer@@AAEPAVQQmlTimerPrivate@@XZ @1805
?d_func@QQmlTimer@@ABEPBVQQmlTimerPrivate@@XZ @1806
?darker@QQmlColorProvider@@UAE?AVQVariant@@ABV2@N@Z @1807
?data@QQmlFile@@QBEPBDXZ @1808
?data@QQmlListModel@@QBE?AVQVariant@@HH@Z @1809
?data@QQmlListModel@@UBE?AVQVariant@@ABVQModelIndex@@H@Z @1810
?data@SimpleArrayData@QV4@@QAEAAUValue@2@I@Z @1811
?data@SimpleArrayData@QV4@@QBE?AUValue@2@I@Z @1812
?dataByteArray@QQmlFile@@QBE?AVQByteArray@@XZ @1813
?dataReady@Profiler@Profiling@QV4@@QAEXABV?$QList@UFunctionCallProperties@Profiling@QV4@@@@ABV?$QList@UMemoryAllocationProperties@Profiling@QV4@@@@@Z @1814
?dataReady@QQmlProfilerService@@QAEXPAVQQmlAbstractProfilerAdapter@@@Z @1815
?dataRequested@QQmlAbstractProfilerAdapter@@QAEXXZ @1816
?dateFromString@QQmlStringConverters@@YA?AVQDate@@ABVQString@@PA_N@Z @1817
?dateTimeFromString@QQmlStringConverters@@YA?AVQDateTime@@ABVQString@@PA_N@Z @1818
?debugAnimation@QAbstractAnimationJob@@MBEXVQDebug@@@Z @1819
?debugAnimation@QContinuingAnimationGroupJob@@MBEXVQDebug@@@Z @1820
?debugAnimation@QParallelAnimationGroupJob@@MBEXVQDebug@@@Z @1821
?debugAnimation@QPauseAnimationJob@@MBEXVQDebug@@@Z @1822
?debugAnimation@QSequentialAnimationGroupJob@@MBEXVQDebug@@@Z @1823
?debugChangesCache@QQmlEnginePrivate@@QAE?AV?$QHash@VQUrl@@VQByteArray@@@@XZ @1824
?debugChildren@QAnimationGroupJob@@IBEXVQDebug@@@Z @1825
?declareVar@Runtime@QV4@@SAXPAUExecutionContext@2@_NPAUString@2@@Z @1826
?decodeHexEscapeCharacter@Lexer@QQmlJS@@AAE?AVQChar@@PA_N@Z @1827
?decodeUnicodeEscapeCharacter@Lexer@QQmlJS@@AAE?AVQChar@@PA_N@Z @1828
?decrement@Runtime@QV4@@SA_KUValueRef@2@@Z @1829
?defaultGroupsChanged@QQmlDelegateModel@@QAEXXZ @1830
?defaultInclude@QQmlDelegateModelGroup@@QBE_NXZ @1831
?defaultIncludeChanged@QQmlDelegateModelGroup@@QAEXXZ @1832
?defaultMethod@QQmlMetaType@@SA?AVQMetaMethod@@PAVQObject@@@Z @1833
?defaultMethod@QQmlMetaType@@SA?AVQMetaMethod@@PBUQMetaObject@@@Z @1834
?defaultProperty@QQmlMetaType@@SA?AVQMetaProperty@@PAVQObject@@@Z @1835
?defaultProperty@QQmlMetaType@@SA?AVQMetaProperty@@PBUQMetaObject@@@Z @1836
?defaultProperty@QQmlPropertyCache@@QBEPAVQQmlPropertyData@@XZ @1837
?defaultPropertyName@QQmlPropertyCache@@QBE?AVQString@@XZ @1838
?default_expression@QQmlAbstractBinding@@SA?AVQString@@PBV1@@Z @1839
?default_retargetBinding@QQmlAbstractBinding@@SAXPAV1@PAVQObject@@H@Z @1840
?defineAccessorProperty@Object@QV4@@QAEXABVQString@@P6A_KPAUCallContext@2@@Z2@Z @1841
?defineAccessorProperty@Object@QV4@@QAEXPAUString@2@P6A_KPAUCallContext@2@@Z2@Z @1842
?defineDefaultProperty@Object@QV4@@QAEXABVQString@@P6A_KPAUCallContext@2@@ZH@Z @1843
?defineDefaultProperty@Object@QV4@@QAEXABVQString@@UValueRef@2@@Z @1844
?defineDefaultProperty@Object@QV4@@QAEXPAUString@2@P6A_KPAUCallContext@2@@ZH@Z @1845
?defineDefaultProperty@Object@QV4@@QAEXPAUString@2@UValueRef@2@@Z @1846
?defineFunction@Codegen@QQmlJS@@IAEHABVQString@@PAVNode@AST@2@PAVFormalParameterList@52@PAVSourceElements@52@ABVQStringList@@@Z @1847
?defineModule@QQmlModelsModule@@SAXXZ @1848
?defineOwnProperty2@Object@QV4@@QAE_NPAUExecutionContext@2@IABUProperty@2@UPropertyAttributes@2@@Z @1849
?defineQMLObject@IRBuilder@QmlIR@@QAE_NPAHPAVUiObjectDefinition@AST@QQmlJS@@PAUObject@2@@Z @1850
?defineQMLObject@IRBuilder@QmlIR@@QAE_NPAHPAVUiQualifiedId@AST@QQmlJS@@ABVSourceLocation@45@PAVUiObjectInitializer@45@PAUObject@2@@Z @1851
?defineQtQuick2Module@QQmlEnginePrivate@@SAXXZ @1852
?defineReadonlyProperty@Object@QV4@@QAEXABVQString@@UValueRef@2@@Z @1853
?defineReadonlyProperty@Object@QV4@@QAEXPAUString@2@UValueRef@2@@Z @1854
?del@SimpleArrayData@QV4@@SA_NPAUObject@2@I@Z @1855
?del@SparseArrayData@QV4@@SA_NPAUObject@2@I@Z @1856
?delegate@QQmlDelegateModel@@QBEPAVQQmlComponent@@XZ @1857
?deleteElement@Runtime@QV4@@SA_KPAUExecutionContext@2@UValueRef@2@1@Z @1858
?deleteIndexedProperty@Object@QV4@@KA_NPAUManaged@2@I@Z @1859
?deleteIndexedProperty@Object@QV4@@QAE_NI@Z @1860
?deleteIndexedProperty@String@QV4@@KA_NPAUManaged@2@I@Z @1861
?deleteMember@Runtime@QV4@@SA_KPAUExecutionContext@2@UValueRef@2@PAUString@2@@Z @1862
?deleteName@Runtime@QV4@@SA_KPAUExecutionContext@2@PAUString@2@@Z @1863
?deleteNode@SparseArray@QV4@@AAEXPAUSparseArrayNode@2@@Z @1864
?deleteProperty@ExecutionContext@QV4@@QAE_NPAUString@2@@Z @1865
?deleteProperty@Object@QV4@@KA_NPAUManaged@2@PAUString@2@@Z @1866
?deleteProperty@Object@QV4@@QAE_NPAUString@2@@Z @1867
?deleteProperty@QJSValue@@QAE_NABVQString@@@Z @1868
?deleteProperty@String@QV4@@KA_NPAUManaged@2@PAU12@@Z @1869
?dependencies@QQmlDirParser@@QBE?AV?$QHash@VQString@@UComponent@QQmlDirParser@@@@XZ @1870
?dependencyComplete@Blob@QQmlTypeLoader@@EAEXPAVQQmlDataBlob@@@Z @1871
?dependencyComplete@QQmlDataBlob@@MAEXPAV1@@Z @1872
?dependencyError@Blob@QQmlTypeLoader@@EAEXPAVQQmlDataBlob@@@Z @1873
?dependencyError@QQmlDataBlob@@MAEXPAV1@@Z @1874
?deref@PersistentValuePrivate@QV4@@QAEXXZ @1875
?dereferenceScarceResources@QQmlEnginePrivate@@QAEXXZ @1876
?description@QQmlError@@QBE?AVQString@@XZ @1877
?designerMode@QQmlEnginePrivate@@SA_NXZ @1878
?designerSupported@QQmlDirParser@@QBE_NXZ @1879
?destroy@FunctionObject@QV4@@SAXPAUManaged@2@@Z @1880
?destroy@Managed@QV4@@SAXPAU12@@Z @1881
?destroy@QObjectMethod@QV4@@SAXPAUManaged@2@@Z @1882
?destroy@QObjectWrapper@QV4@@CAXPAUManaged@2@@Z @1883
?destroy@QQmlAbstractBinding@@QAEXW4DestroyMode@1@@Z @1884
?destroy@QQmlContextData@@QAEXXZ @1885
?destroy@QQmlPropertyCache@@MAEXXZ @1886
?destroy@QQmlRefCount@@MAEXXZ @1887
?destroy@QQmlValueTypeProvider@@EAE_NHPAXI@Z @1888
?destroy@QmlContextWrapper@QV4@@SAXPAUManaged@2@@Z @1889
?destroy@QmlListWrapper@QV4@@SAXPAUManaged@2@@Z @1890
?destroy@QmlTypeWrapper@QV4@@SAXPAUManaged@2@@Z @1891
?destroy@QmlValueTypeWrapper@QV4@@SAXPAUManaged@2@@Z @1892
?destroy@SingletonInstanceInfo@QQmlType@@QAEXPAVQQmlEngine@@@Z @1893
?destroy@SparseArrayData@QV4@@SAXPAUManaged@2@@Z @1894
?destroy@String@QV4@@KAXPAUManaged@2@@Z @1895
?destroyValueType@QQmlValueTypeProvider@@QAE_NHPAXI@Z @1896
?destroyed@QQmlData@@QAEXPAVQObject@@@Z @1897
?destroyed@QQmlData@@SAXPAVQAbstractDeclarativeData@@PAVQObject@@@Z @1898
?destroyingItem@QQmlInstanceModel@@QAEXPAVQObject@@@Z @1899
?destruction@QQmlComponentAttached@@QAEXXZ @1900
?detach@PersistentValuePrivate@QV4@@QAEPAU12@_K_N@Z @1901
?detachFromAgent@Debugger@Debugging@QV4@@QAEXXZ @1902
?detachedFromEngine@QQmlDebugService@@QAEXPAVQQmlEngine@@@Z @1903
?diagnosticMessage@Parser@QQmlJS@@QBE?AVDiagnosticMessage@2@XZ @1904
?diagnosticMessages@Parser@QQmlJS@@QBE?AV?$QList@VDiagnosticMessage@QQmlJS@@@@XZ @1905
?difference@QQmlChangeSet@@QBEHXZ @1906
?direction@QAbstractAnimationJob@@QBE?AW4Direction@1@XZ @1907
?disable@QQmlMemoryProfiler@@SAXXZ @1908
?disableComponentComplete@QQmlVME@@SAXXZ @1909
?disconnectNotifiers@QQmlData@@QAEXXZ @1910
?div@Runtime@QV4@@SA_KUValueRef@2@0@Z @1911
?doDeleteInEngineThread@QQmlEnginePrivate@@AAEXXZ @1912
?domain@QQmlApplication@@QBE?AVQString@@XZ @1913
?domainChanged@QQmlApplication@@QAEXXZ @1914
?done@QQmlDataBlob@@MAEXXZ @1915
?doubleToInt@Runtime@QV4@@SAHABN@Z @1916
?doubleToUInt@Runtime@QV4@@SAIABN@Z @1917
?doubleValue@Value@QV4@@QBENXZ @1918
?downloadProgressChanged@QQmlDataBlob@@MAEXN@Z @1919
?dumpStats@MemoryManager@QV4@@QBEXXZ @1920
?duration@QAbstractAnimationJob@@UBEHXZ @1921
?duration@QContinuingAnimationGroupJob@@UBEHXZ @1922
?duration@QParallelAnimationGroupJob@@UBEHXZ @1923
?duration@QPauseAnimationJob@@UBEHXZ @1924
?duration@QSequentialAnimationGroupJob@@UBEHXZ @1925
?dynamicRoles@QQmlListModel@@QBE_NXZ @1926
?effectiveContext@QQmlPropertyPrivate@@QBEPAVQQmlContextData@@XZ @1927
?elementName@QQmlType@@QBEABVQString@@XZ @1928
?emitDestruction@QQmlContextData@@QAEXXZ @1929
?emitItemsAboutToBeInserted@QQmlListModel@@AAEXHH@Z @1930
?emitItemsAboutToBeMoved@QQmlListModel@@AAEXHHH@Z @1931
?emitItemsAboutToBeRemoved@QQmlListModel@@AAEXHH@Z @1932
?emitItemsChanged@QQmlListModel@@AAEXHHABV?$QVector@H@@@Z @1933
?emitItemsInserted@QQmlListModel@@AAEXHH@Z @1934
?emitItemsMoved@QQmlListModel@@AAEXHHH@Z @1935
?emitItemsRemoved@QQmlListModel@@AAEXHH@Z @1936
?emitNotify@QQmlNotifier@@CAXPAVQQmlNotifierEndpoint@@PAPAX@Z @1937
?emptyValue@Primitive@QV4@@SA?AU12@XZ @1938
?enable@QQmlMemoryProfiler@@SAXXZ @1939
?enableBreakPoint@DebuggerAgent@Debugging@QV4@@QAEXH_N@Z @1940
?enableComponentComplete@QQmlVME@@SAXXZ @1941
?enableDebugger@ExecutionEngine@QV4@@QAEXXZ @1942
?enableProfiler@ExecutionEngine@QV4@@QAEXXZ @1943
?enableProfiler@QQmlEnginePrivate@@QAEXXZ @1944
?enabledFlag@QQmlBinding@@ABE_NXZ @1945
?end@SparseArray@QV4@@QAEPAUSparseArrayNode@2@XZ @1946
?end@SparseArray@QV4@@QBEPBUSparseArrayNode@2@XZ @1947
?endVisit@Visitor@AST@QQmlJS@@UAEXPAVArgumentList@23@@Z @1948
?endVisit@Visitor@AST@QQmlJS@@UAEXPAVArrayLiteral@23@@Z @1949
?endVisit@Visitor@AST@QQmlJS@@UAEXPAVArrayMemberExpression@23@@Z @1950
?endVisit@Visitor@AST@QQmlJS@@UAEXPAVBinaryExpression@23@@Z @1951
?endVisit@Visitor@AST@QQmlJS@@UAEXPAVBlock@23@@Z @1952
?endVisit@Visitor@AST@QQmlJS@@UAEXPAVBreakStatement@23@@Z @1953
?endVisit@Visitor@AST@QQmlJS@@UAEXPAVCallExpression@23@@Z @1954
?endVisit@Visitor@AST@QQmlJS@@UAEXPAVCaseBlock@23@@Z @1955
?endVisit@Visitor@AST@QQmlJS@@UAEXPAVCaseClause@23@@Z @1956
?endVisit@Visitor@AST@QQmlJS@@UAEXPAVCaseClauses@23@@Z @1957
?endVisit@Visitor@AST@QQmlJS@@UAEXPAVCatch@23@@Z @1958
?endVisit@Visitor@AST@QQmlJS@@UAEXPAVConditionalExpression@23@@Z @1959
?endVisit@Visitor@AST@QQmlJS@@UAEXPAVContinueStatement@23@@Z @1960
?endVisit@Visitor@AST@QQmlJS@@UAEXPAVDebuggerStatement@23@@Z @1961
?endVisit@Visitor@AST@QQmlJS@@UAEXPAVDefaultClause@23@@Z @1962
?endVisit@Visitor@AST@QQmlJS@@UAEXPAVDeleteExpression@23@@Z @1963
?endVisit@Visitor@AST@QQmlJS@@UAEXPAVDoWhileStatement@23@@Z @1964
?endVisit@Visitor@AST@QQmlJS@@UAEXPAVElementList@23@@Z @1965
?endVisit@Visitor@AST@QQmlJS@@UAEXPAVElision@23@@Z @1966
?endVisit@Visitor@AST@QQmlJS@@UAEXPAVEmptyStatement@23@@Z @1967
?endVisit@Visitor@AST@QQmlJS@@UAEXPAVExpression@23@@Z @1968
?endVisit@Visitor@AST@QQmlJS@@UAEXPAVExpressionStatement@23@@Z @1969
?endVisit@Visitor@AST@QQmlJS@@UAEXPAVFalseLiteral@23@@Z @1970
?endVisit@Visitor@AST@QQmlJS@@UAEXPAVFieldMemberExpression@23@@Z @1971
?endVisit@Visitor@AST@QQmlJS@@UAEXPAVFinally@23@@Z @1972
?endVisit@Visitor@AST@QQmlJS@@UAEXPAVForEachStatement@23@@Z @1973
?endVisit@Visitor@AST@QQmlJS@@UAEXPAVForStatement@23@@Z @1974
?endVisit@Visitor@AST@QQmlJS@@UAEXPAVFormalParameterList@23@@Z @1975
?endVisit@Visitor@AST@QQmlJS@@UAEXPAVFunctionBody@23@@Z @1976
?endVisit@Visitor@AST@QQmlJS@@UAEXPAVFunctionDeclaration@23@@Z @1977
?endVisit@Visitor@AST@QQmlJS@@UAEXPAVFunctionExpression@23@@Z @1978
?endVisit@Visitor@AST@QQmlJS@@UAEXPAVFunctionSourceElement@23@@Z @1979
?endVisit@Visitor@AST@QQmlJS@@UAEXPAVIdentifierExpression@23@@Z @1980
?endVisit@Visitor@AST@QQmlJS@@UAEXPAVIdentifierPropertyName@23@@Z @1981
?endVisit@Visitor@AST@QQmlJS@@UAEXPAVIfStatement@23@@Z @1982
?endVisit@Visitor@AST@QQmlJS@@UAEXPAVLabelledStatement@23@@Z @1983
?endVisit@Visitor@AST@QQmlJS@@UAEXPAVLocalForEachStatement@23@@Z @1984
?endVisit@Visitor@AST@QQmlJS@@UAEXPAVLocalForStatement@23@@Z @1985
?endVisit@Visitor@AST@QQmlJS@@UAEXPAVNestedExpression@23@@Z @1986
?endVisit@Visitor@AST@QQmlJS@@UAEXPAVNewExpression@23@@Z @1987
?endVisit@Visitor@AST@QQmlJS@@UAEXPAVNewMemberExpression@23@@Z @1988
?endVisit@Visitor@AST@QQmlJS@@UAEXPAVNotExpression@23@@Z @1989
?endVisit@Visitor@AST@QQmlJS@@UAEXPAVNullExpression@23@@Z @1990
?endVisit@Visitor@AST@QQmlJS@@UAEXPAVNumericLiteral@23@@Z @1991
?endVisit@Visitor@AST@QQmlJS@@UAEXPAVNumericLiteralPropertyName@23@@Z @1992
?endVisit@Visitor@AST@QQmlJS@@UAEXPAVObjectLiteral@23@@Z @1993
?endVisit@Visitor@AST@QQmlJS@@UAEXPAVPostDecrementExpression@23@@Z @1994
?endVisit@Visitor@AST@QQmlJS@@UAEXPAVPostIncrementExpression@23@@Z @1995
?endVisit@Visitor@AST@QQmlJS@@UAEXPAVPreDecrementExpression@23@@Z @1996
?endVisit@Visitor@AST@QQmlJS@@UAEXPAVPreIncrementExpression@23@@Z @1997
?endVisit@Visitor@AST@QQmlJS@@UAEXPAVProgram@23@@Z @1998
?endVisit@Visitor@AST@QQmlJS@@UAEXPAVPropertyAssignmentList@23@@Z @1999
?endVisit@Visitor@AST@QQmlJS@@UAEXPAVPropertyGetterSetter@23@@Z @2000
?endVisit@Visitor@AST@QQmlJS@@UAEXPAVPropertyNameAndValue@23@@Z @2001
?endVisit@Visitor@AST@QQmlJS@@UAEXPAVRegExpLiteral@23@@Z @2002
?endVisit@Visitor@AST@QQmlJS@@UAEXPAVReturnStatement@23@@Z @2003
?endVisit@Visitor@AST@QQmlJS@@UAEXPAVSourceElements@23@@Z @2004
?endVisit@Visitor@AST@QQmlJS@@UAEXPAVStatementList@23@@Z @2005
?endVisit@Visitor@AST@QQmlJS@@UAEXPAVStatementSourceElement@23@@Z @2006
?endVisit@Visitor@AST@QQmlJS@@UAEXPAVStringLiteral@23@@Z @2007
?endVisit@Visitor@AST@QQmlJS@@UAEXPAVStringLiteralPropertyName@23@@Z @2008
?endVisit@Visitor@AST@QQmlJS@@UAEXPAVSwitchStatement@23@@Z @2009
?endVisit@Visitor@AST@QQmlJS@@UAEXPAVThisExpression@23@@Z @2010
?endVisit@Visitor@AST@QQmlJS@@UAEXPAVThrowStatement@23@@Z @2011
?endVisit@Visitor@AST@QQmlJS@@UAEXPAVTildeExpression@23@@Z @2012
?endVisit@Visitor@AST@QQmlJS@@UAEXPAVTrueLiteral@23@@Z @2013
?endVisit@Visitor@AST@QQmlJS@@UAEXPAVTryStatement@23@@Z @2014
?endVisit@Visitor@AST@QQmlJS@@UAEXPAVTypeOfExpression@23@@Z @2015
?endVisit@Visitor@AST@QQmlJS@@UAEXPAVUiArrayBinding@23@@Z @2016
?endVisit@Visitor@AST@QQmlJS@@UAEXPAVUiArrayMemberList@23@@Z @2017
?endVisit@Visitor@AST@QQmlJS@@UAEXPAVUiHeaderItemList@23@@Z @2018
?endVisit@Visitor@AST@QQmlJS@@UAEXPAVUiImport@23@@Z @2019
?endVisit@Visitor@AST@QQmlJS@@UAEXPAVUiObjectBinding@23@@Z @2020
?endVisit@Visitor@AST@QQmlJS@@UAEXPAVUiObjectDefinition@23@@Z @2021
?endVisit@Visitor@AST@QQmlJS@@UAEXPAVUiObjectInitializer@23@@Z @2022
?endVisit@Visitor@AST@QQmlJS@@UAEXPAVUiObjectMemberList@23@@Z @2023
?endVisit@Visitor@AST@QQmlJS@@UAEXPAVUiParameterList@23@@Z @2024
?endVisit@Visitor@AST@QQmlJS@@UAEXPAVUiPragma@23@@Z @2025
?endVisit@Visitor@AST@QQmlJS@@UAEXPAVUiProgram@23@@Z @2026
?endVisit@Visitor@AST@QQmlJS@@UAEXPAVUiPublicMember@23@@Z @2027
?endVisit@Visitor@AST@QQmlJS@@UAEXPAVUiQualifiedId@23@@Z @2028
?endVisit@Visitor@AST@QQmlJS@@UAEXPAVUiQualifiedPragmaId@23@@Z @2029
?endVisit@Visitor@AST@QQmlJS@@UAEXPAVUiScriptBinding@23@@Z @2030
?endVisit@Visitor@AST@QQmlJS@@UAEXPAVUiSourceElement@23@@Z @2031
?endVisit@Visitor@AST@QQmlJS@@UAEXPAVUnaryMinusExpression@23@@Z @2032
?endVisit@Visitor@AST@QQmlJS@@UAEXPAVUnaryPlusExpression@23@@Z @2033
?endVisit@Visitor@AST@QQmlJS@@UAEXPAVVariableDeclaration@23@@Z @2034
?endVisit@Visitor@AST@QQmlJS@@UAEXPAVVariableDeclarationList@23@@Z @2035
?endVisit@Visitor@AST@QQmlJS@@UAEXPAVVariableStatement@23@@Z @2036
?endVisit@Visitor@AST@QQmlJS@@UAEXPAVVoidExpression@23@@Z @2037
?endVisit@Visitor@AST@QQmlJS@@UAEXPAVWhileStatement@23@@Z @2038
?endVisit@Visitor@AST@QQmlJS@@UAEXPAVWithStatement@23@@Z @2039
?endpointCount@QQmlData@@QAEHH@Z @2040
?engine@Collector@Debugger@Debugging@QV4@@IBEPAUExecutionEngine@4@XZ @2041
?engine@Debugger@Debugging@QV4@@QBEPAUExecutionEngine@3@XZ @2042
?engine@Managed@QV4@@QBEPAUExecutionEngine@2@XZ @2043
?engine@Object@QV4@@QBEPAUExecutionEngine@2@XZ @2044
?engine@PersistentValue@QV4@@QAEPAUExecutionEngine@2@XZ @2045
?engine@QJSValue@@QBEPAVQJSEngine@@XZ @2046
?engine@QQmlBoundSignalExpression@@QBEPAVQQmlEngine@@XZ @2047
?engine@QQmlContext@@QBEPAVQQmlEngine@@XZ @2048
?engine@QQmlExpression@@QBEPAVQQmlEngine@@XZ @2049
?engine@QQmlIncubationController@@QBEPAVQQmlEngine@@XZ @2050
?engine@QQmlListModel@@ABEPAVQV8Engine@@XZ @2051
?engine@QV8Engine@@QAEPAVQQmlEngine@@XZ @2052
?engine@Value@QV4@@QBEPAUExecutionEngine@2@XZ @2053
?engine@WeakValue@QV4@@QAEPAUExecutionEngine@2@XZ @2054
?engineAboutToBeAdded@QQmlDebugService@@MAEXPAVQQmlEngine@@@Z @2055
?engineAboutToBeAdded@QQmlEngineDebugService@@UAEXPAVQQmlEngine@@@Z @2056
?engineAboutToBeAdded@QQmlProfilerService@@UAEXPAVQQmlEngine@@@Z @2057
?engineAboutToBeRemoved@QQmlDebugService@@MAEXPAVQQmlEngine@@@Z @2058
?engineAboutToBeRemoved@QQmlEngineDebugService@@UAEXPAVQQmlEngine@@@Z @2059
?engineAboutToBeRemoved@QQmlProfilerService@@UAEXPAVQQmlEngine@@@Z @2060
?engineAdded@QQmlDebugService@@MAEXPAVQQmlEngine@@@Z @2061
?engineAdded@QQmlProfilerService@@UAEXPAVQQmlEngine@@@Z @2062
?engineRemoved@QQmlDebugService@@MAEXPAVQQmlEngine@@@Z @2063
?engineRemoved@QQmlProfilerService@@UAEXPAVQQmlEngine@@@Z @2064
?ensureAttributes@ArrayData@QV4@@SAXPAUObject@2@@Z @2065
?ensureMemberIndex@Object@QV4@@QAEXI@Z @2066
?ensurePropertyCache@QQmlData@@SAXPAVQQmlEngine@@PAVQObject@@@Z @2067
?ensureQObjectWrapper@QQmlVMEMetaObject@@QAEXXZ @2068
?ensureResolved@QQmlPropertyCache@@ABEPAVQQmlPropertyData@@PAV2@@Z @2069
?ensureTimerUpdate@QQmlAnimationTimer@@SAXXZ @2070
?ensureVarPropertiesAllocated@QQmlVMEMetaObject@@QAE_NXZ @2071
?enterEnvironment@Codegen@QQmlJS@@IAEXPAVNode@AST@2@@Z @2072
?enterLoop@Codegen@QQmlJS@@IAEXPAVStatement@AST@2@PAUBasicBlock@IR@QV4@@1@Z @2073
?enteringFunction@Debugger@Debugging@QV4@@QAEXXZ @2074
?enumValue@QQmlType@@QBEHABVQHashedCStringRef@@PA_N@Z @2075
?enumValue@QQmlType@@QBEHABVQHashedStringRef@@PA_N@Z @2076
?enumValue@QQmlType@@QBEHPBUString@QV4@@PA_N@Z @2077
?equal@QQmlValueTypeProvider@@EAE_NHPBX0I@Z @2078
?equal@Runtime@QV4@@SA_KUValueRef@2@0@Z @2079
?equalHelper@RuntimeHelpers@QV4@@SAIUValueRef@2@0@Z @2080
?equalValueType@QQmlValueTypeProvider@@QAE_NHPBX0I@Z @2081
?equals@QJSValue@@QBE_NABV1@@Z @2082
?equals@String@QV4@@QBE_NPAU12@@Z @2083
?erase@SparseArray@QV4@@QAEPAUSparseArrayNode@2@PAU32@@Z @2084
?error@QQmlCustomParser@@IAEXABULocation@CompiledData@QV4@@ABVQString@@@Z @2085
?error@QQmlCustomParser@@IAEXPBUBinding@CompiledData@QV4@@ABVQString@@@Z @2086
?error@QQmlCustomParser@@IAEXPBUObject@CompiledData@QV4@@ABVQString@@@Z @2087
?error@QQmlExpression@@QBE?AVQQmlError@@XZ @2088
?error@QQmlFile@@QBE?AVQString@@XZ @2089
?errorCode@Lexer@QQmlJS@@QBE?AW4Error@12@XZ @2090
?errorColumnNumber@Parser@QQmlJS@@QBEHXZ @2091
?errorLineNumber@Parser@QQmlJS@@QBEHXZ @2092
?errorMessage@Lexer@QQmlJS@@QBE?AVQString@@XZ @2093
?errorMessage@Parser@QQmlJS@@QBE?AVQString@@XZ @2094
?errorString@QQmlComponent@@QBE?AVQString@@XZ @2095
?errors@Codegen@QQmlJS@@QBE?AV?$QList@VDiagnosticMessage@QQmlJS@@@@XZ @2096
?errors@QQmlComponent@@QBE?AV?$QList@VQQmlError@@@@XZ @2097
?errors@QQmlCustomParser@@QBE?AV?$QList@VQQmlError@@@@XZ @2098
?errors@QQmlDataBlob@@QBE?AV?$QList@VQQmlError@@@@XZ @2099
?errors@QQmlDirParser@@QBE?AV?$QList@VQQmlError@@@@ABVQString@@@Z @2100
?errors@QQmlIncubator@@QBE?AV?$QList@VQQmlError@@@@XZ @2101
?escapedString@Binding@CompiledData@QV4@@SA?AVQString@@ABV4@@Z @2102
?evalCall@EvalFunction@QV4@@QAE_KPAUCallData@2@_N@Z @2103
?evaluate@QJSEngine@@QAE?AVQJSValue@@ABVQString@@0H@Z @2104
?evaluate@QQmlBinding@@QAE?AVQVariant@@XZ @2105
?evaluate@QQmlBoundSignalExpression@@QAEXPAPAX@Z @2106
?evaluate@QQmlExpression@@QAE?AVQVariant@@PA_N@Z @2107
?evaluate@Script@QV4@@SA_KPAUExecutionEngine@2@ABVQString@@PAUObject@2@@Z @2108
?evaluateEnum@QQmlCustomParser@@IBEHABVQByteArray@@PA_N@Z @2109
?evaluateExpression@Debugger@Debugging@QV4@@QAEXHABVQString@@PAVCollector@123@@Z @2110
?evaluatesToString@Binding@CompiledData@QV4@@QBE_NXZ @2111
?event@QQmlDelegateModel@@UAE_NPAVQEvent@@@Z @2112
?event@QQmlEngine@@MAE_NPAVQEvent@@@Z @2113
?event@QQmlTimer@@MAE_NPAVQEvent@@@Z @2114
?exceptionHandler@Codegen@QQmlJS@@IBEPAUBasicBlock@IR@QV4@@XZ @2115
?expression@Codegen@QQmlJS@@IAE?AUResult@12@PAVExpressionNode@AST@2@@Z @2116
?expression@Parser@QQmlJS@@QBEPAVExpressionNode@AST@2@XZ @2117
?expression@QQmlAbstractBinding@@QBE?AVQString@@XZ @2118
?expression@QQmlBinding@@QBE?AVQString@@XZ @2119
?expression@QQmlBinding@@SA?AVQString@@PBVQQmlAbstractBinding@@@Z @2120
?expression@QQmlBoundSignal@@UBEPAVQQmlBoundSignalExpression@@XZ @2121
?expression@QQmlBoundSignalExpression@@QBE?AVQString@@XZ @2122
?expression@QQmlExpression@@QBE?AVQString@@XZ @2123
?expressionCast@ExpressionNode@AST@QQmlJS@@UAEPAV123@XZ @2124
?expressionCast@Node@AST@QQmlJS@@UAEPAVExpressionNode@23@XZ @2125
?expressionChanged@QQmlBinding@@SAXPAVQQmlJavaScriptExpression@@@Z @2126
?expressionChanged@QQmlBoundSignalExpression@@SAXPAVQQmlJavaScriptExpression@@@Z @2127
?expressionFunctionValid@QQmlBoundSignalExpression@@ABE_NXZ @2128
?expressionIdentifier@QQmlBinding@@SA?AVQString@@PAVQQmlJavaScriptExpression@@@Z @2129
?expressionIdentifier@QQmlBoundSignalExpression@@SA?AVQString@@PAVQQmlJavaScriptExpression@@@Z @2130
?extensionData@QV8Engine@@QBEPAUDeletable@1@H@Z @2131
?extractScriptMetaData@Document@QmlIR@@QAEXAAVQString@@PAVDiagnosticMessage@QQmlJS@@@Z @2132
?extractVersion@IRBuilder@QmlIR@@SAXVQStringRef@@PAH1@Z @2133
?fallbackNameLookup@Codegen@QQmlJS@@MAEPAUExpr@IR@QV4@@ABVQString@@HH@Z @2134
?fallbackNameLookup@JSCodeGen@QmlIR@@MAEPAUExpr@IR@QV4@@ABVQString@@HH@Z @2135
?features@QQmlAbstractProfilerAdapter@@QBE_KXZ @2136
?fetchQmldir@Blob@QQmlTypeLoader@@IAE_NABVQUrl@@PBUImport@CompiledData@QV4@@HPAV?$QList@VQQmlError@@@@@Z @2137
?fileName@CompilationUnit@CompiledData@QV4@@QBE?AVQString@@XZ @2138
?fileName@FileEntry@QQmlBundle@@QBE?AVQString@@XZ @2139
?fileSize@FileEntry@QQmlBundle@@QBEIXZ @2140
?files@QQmlBundle@@QBE?AV?$QList@PBUFileEntry@QQmlBundle@@@@XZ @2141
?filterGroup@QQmlDelegateModel@@QBE?AVQString@@XZ @2142
?filterGroupChanged@QQmlDelegateModel@@QAEXXZ @2143
?finalUrl@QQmlDataBlob@@QBE?AVQUrl@@XZ @2144
?finalUrlString@QQmlDataBlob@@QBE?AVQString@@XZ @2145
?find@QQmlBundle@@QBEPBUFileEntry@1@ABVQString@@@Z @2146
?find@QQmlBundle@@QBEPBUFileEntry@1@PBVQChar@@H@Z @2147
?findAliasTarget@QQmlPropertyPrivate@@SAXPAVQObject@@HPAPAV2@PAH@Z @2148
?findBinding@Object@QmlIR@@QBEPAUBinding@2@I@Z @2149
?findCachedCompilationUnit@QQmlMetaType@@SAPBUCachedQmlUnit@QQmlPrivate@@ABVQUrl@@@Z @2150
?findInsertPoint@QQmlBundle@@AAEPBUEntry@1@IPAH@Z @2151
?findNode@SparseArray@QV4@@QBEPAUSparseArrayNode@2@I@Z @2152
?findObjectId@QQmlContextData@@QBE?AVQString@@PBVQObject@@@Z @2153
?findProperty@QObjectWrapper@QV4@@ABEPAVQQmlPropertyData@@PAUExecutionEngine@2@PAVQQmlContextData@@PAUString@2@W4RevisionMode@12@PAV3@@Z @2154
?findProperty@QQmlPropertyCache@@ABEPAVQQmlPropertyData@@VConstIterator@?$QStringHash@U?$QPair@HPAVQQmlPropertyData@@@@@@PAVQObject@@PAVQQmlContextData@@@Z @2155
?findProperty@QQmlPropertyCache@@ABEPAVQQmlPropertyData@@VConstIterator@?$QStringHash@U?$QPair@HPAVQQmlPropertyData@@@@@@PBVQQmlVMEMetaObject@@PAVQQmlContextData@@@Z @2156
?findSignalByName@QQmlPropertyPrivate@@SA?AVQMetaMethod@@PBUQMetaObject@@ABVQByteArray@@@Z @2157
?finish@ArgumentList@AST@QQmlJS@@QAEPAV123@XZ @2158
?finish@CaseClauses@AST@QQmlJS@@QAEPAV123@XZ @2159
?finish@ElementList@AST@QQmlJS@@QAEPAV123@XZ @2160
?finish@Elision@AST@QQmlJS@@QAEPAV123@XZ @2161
?finish@FormalParameterList@AST@QQmlJS@@QAEPAV123@XZ @2162
?finish@PropertyAssignmentList@AST@QQmlJS@@QAEPAV123@XZ @2163
?finish@SourceElements@AST@QQmlJS@@QAEPAV123@XZ @2164
?finish@StatementList@AST@QQmlJS@@QAEPAV123@XZ @2165
?finish@UiArrayMemberList@AST@QQmlJS@@QAEPAV123@XZ @2166
?finish@UiHeaderItemList@AST@QQmlJS@@QAEPAV123@XZ @2167
?finish@UiObjectMemberList@AST@QQmlJS@@QAEPAV123@XZ @2168
?finish@UiParameterList@AST@QQmlJS@@QAEPAV123@XZ @2169
?finish@UiQualifiedId@AST@QQmlJS@@QAEPAV123@XZ @2170
?finish@UiQualifiedPragmaId@AST@QQmlJS@@QAEPAV123@XZ @2171
?finish@VariableDeclarationList@AST@QQmlJS@@QAEPAV123@_N@Z @2172
?finished@QAbstractAnimationJob@@IAEXXZ @2173
?fireTopLevelAnimationLoopChanged@QAbstractAnimationJob@@IAEXXZ @2174
?firstBinding@Object@QmlIR@@QBEPAUBinding@2@XZ @2175
?firstChild@QAnimationGroupJob@@QBEPAVQAbstractAnimationJob@@XZ @2176
?firstCppMetaObject@QQmlPropertyCache@@QBEPBUQMetaObject@@XZ @2177
?firstFunction@Object@QmlIR@@QBEPBUFunction@2@XZ @2178
?firstProperty@Object@QmlIR@@QBEPBUProperty@2@XZ @2179
?firstSignal@Object@QmlIR@@QBEPBUSignal@2@XZ @2180
?firstSourceLocation@ArgumentList@AST@QQmlJS@@UBE?AVSourceLocation@23@XZ @2181
?firstSourceLocation@ArrayLiteral@AST@QQmlJS@@UBE?AVSourceLocation@23@XZ @2182
?firstSourceLocation@ArrayMemberExpression@AST@QQmlJS@@UBE?AVSourceLocation@23@XZ @2183
?firstSourceLocation@BinaryExpression@AST@QQmlJS@@UBE?AVSourceLocation@23@XZ @2184
?firstSourceLocation@Block@AST@QQmlJS@@UBE?AVSourceLocation@23@XZ @2185
?firstSourceLocation@BreakStatement@AST@QQmlJS@@UBE?AVSourceLocation@23@XZ @2186
?firstSourceLocation@CallExpression@AST@QQmlJS@@UBE?AVSourceLocation@23@XZ @2187
?firstSourceLocation@CaseBlock@AST@QQmlJS@@UBE?AVSourceLocation@23@XZ @2188
?firstSourceLocation@CaseClause@AST@QQmlJS@@UBE?AVSourceLocation@23@XZ @2189
?firstSourceLocation@CaseClauses@AST@QQmlJS@@UBE?AVSourceLocation@23@XZ @2190
?firstSourceLocation@Catch@AST@QQmlJS@@UBE?AVSourceLocation@23@XZ @2191
?firstSourceLocation@ConditionalExpression@AST@QQmlJS@@UBE?AVSourceLocation@23@XZ @2192
?firstSourceLocation@ContinueStatement@AST@QQmlJS@@UBE?AVSourceLocation@23@XZ @2193
?firstSourceLocation@DebuggerStatement@AST@QQmlJS@@UBE?AVSourceLocation@23@XZ @2194
?firstSourceLocation@DefaultClause@AST@QQmlJS@@UBE?AVSourceLocation@23@XZ @2195
?firstSourceLocation@DeleteExpression@AST@QQmlJS@@UBE?AVSourceLocation@23@XZ @2196
?firstSourceLocation@DoWhileStatement@AST@QQmlJS@@UBE?AVSourceLocation@23@XZ @2197
?firstSourceLocation@ElementList@AST@QQmlJS@@UBE?AVSourceLocation@23@XZ @2198
?firstSourceLocation@Elision@AST@QQmlJS@@UBE?AVSourceLocation@23@XZ @2199
?firstSourceLocation@EmptyStatement@AST@QQmlJS@@UBE?AVSourceLocation@23@XZ @2200
?firstSourceLocation@Expression@AST@QQmlJS@@UBE?AVSourceLocation@23@XZ @2201
?firstSourceLocation@ExpressionStatement@AST@QQmlJS@@UBE?AVSourceLocation@23@XZ @2202
?firstSourceLocation@FalseLiteral@AST@QQmlJS@@UBE?AVSourceLocation@23@XZ @2203
?firstSourceLocation@FieldMemberExpression@AST@QQmlJS@@UBE?AVSourceLocation@23@XZ @2204
?firstSourceLocation@Finally@AST@QQmlJS@@UBE?AVSourceLocation@23@XZ @2205
?firstSourceLocation@ForEachStatement@AST@QQmlJS@@UBE?AVSourceLocation@23@XZ @2206
?firstSourceLocation@ForStatement@AST@QQmlJS@@UBE?AVSourceLocation@23@XZ @2207
?firstSourceLocation@FormalParameterList@AST@QQmlJS@@UBE?AVSourceLocation@23@XZ @2208
?firstSourceLocation@FunctionBody@AST@QQmlJS@@UBE?AVSourceLocation@23@XZ @2209
?firstSourceLocation@FunctionExpression@AST@QQmlJS@@UBE?AVSourceLocation@23@XZ @2210
?firstSourceLocation@FunctionSourceElement@AST@QQmlJS@@UBE?AVSourceLocation@23@XZ @2211
?firstSourceLocation@IdentifierExpression@AST@QQmlJS@@UBE?AVSourceLocation@23@XZ @2212
?firstSourceLocation@IfStatement@AST@QQmlJS@@UBE?AVSourceLocation@23@XZ @2213
?firstSourceLocation@LabelledStatement@AST@QQmlJS@@UBE?AVSourceLocation@23@XZ @2214
?firstSourceLocation@LocalForEachStatement@AST@QQmlJS@@UBE?AVSourceLocation@23@XZ @2215
?firstSourceLocation@LocalForStatement@AST@QQmlJS@@UBE?AVSourceLocation@23@XZ @2216
?firstSourceLocation@NestedExpression@AST@QQmlJS@@UBE?AVSourceLocation@23@XZ @2217
?firstSourceLocation@NewExpression@AST@QQmlJS@@UBE?AVSourceLocation@23@XZ @2218
?firstSourceLocation@NewMemberExpression@AST@QQmlJS@@UBE?AVSourceLocation@23@XZ @2219
?firstSourceLocation@NotExpression@AST@QQmlJS@@UBE?AVSourceLocation@23@XZ @2220
?firstSourceLocation@NullExpression@AST@QQmlJS@@UBE?AVSourceLocation@23@XZ @2221
?firstSourceLocation@NumericLiteral@AST@QQmlJS@@UBE?AVSourceLocation@23@XZ @2222
?firstSourceLocation@ObjectLiteral@AST@QQmlJS@@UBE?AVSourceLocation@23@XZ @2223
?firstSourceLocation@PostDecrementExpression@AST@QQmlJS@@UBE?AVSourceLocation@23@XZ @2224
?firstSourceLocation@PostIncrementExpression@AST@QQmlJS@@UBE?AVSourceLocation@23@XZ @2225
?firstSourceLocation@PreDecrementExpression@AST@QQmlJS@@UBE?AVSourceLocation@23@XZ @2226
?firstSourceLocation@PreIncrementExpression@AST@QQmlJS@@UBE?AVSourceLocation@23@XZ @2227
?firstSourceLocation@Program@AST@QQmlJS@@UBE?AVSourceLocation@23@XZ @2228
?firstSourceLocation@PropertyAssignmentList@AST@QQmlJS@@UBE?AVSourceLocation@23@XZ @2229
?firstSourceLocation@PropertyGetterSetter@AST@QQmlJS@@UBE?AVSourceLocation@23@XZ @2230
?firstSourceLocation@PropertyName@AST@QQmlJS@@UBE?AVSourceLocation@23@XZ @2231
?firstSourceLocation@PropertyNameAndValue@AST@QQmlJS@@UBE?AVSourceLocation@23@XZ @2232
?firstSourceLocation@RegExpLiteral@AST@QQmlJS@@UBE?AVSourceLocation@23@XZ @2233
?firstSourceLocation@ReturnStatement@AST@QQmlJS@@UBE?AVSourceLocation@23@XZ @2234
?firstSourceLocation@SourceElements@AST@QQmlJS@@UBE?AVSourceLocation@23@XZ @2235
?firstSourceLocation@StatementList@AST@QQmlJS@@UBE?AVSourceLocation@23@XZ @2236
?firstSourceLocation@StatementSourceElement@AST@QQmlJS@@UBE?AVSourceLocation@23@XZ @2237
?firstSourceLocation@StringLiteral@AST@QQmlJS@@UBE?AVSourceLocation@23@XZ @2238
?firstSourceLocation@SwitchStatement@AST@QQmlJS@@UBE?AVSourceLocation@23@XZ @2239
?firstSourceLocation@ThisExpression@AST@QQmlJS@@UBE?AVSourceLocation@23@XZ @2240
?firstSourceLocation@ThrowStatement@AST@QQmlJS@@UBE?AVSourceLocation@23@XZ @2241
?firstSourceLocation@TildeExpression@AST@QQmlJS@@UBE?AVSourceLocation@23@XZ @2242
?firstSourceLocation@TrueLiteral@AST@QQmlJS@@UBE?AVSourceLocation@23@XZ @2243
?firstSourceLocation@TryStatement@AST@QQmlJS@@UBE?AVSourceLocation@23@XZ @2244
?firstSourceLocation@TypeOfExpression@AST@QQmlJS@@UBE?AVSourceLocation@23@XZ @2245
?firstSourceLocation@UiArrayBinding@AST@QQmlJS@@UBE?AVSourceLocation@23@XZ @2246
?firstSourceLocation@UiArrayMemberList@AST@QQmlJS@@UBE?AVSourceLocation@23@XZ @2247
?firstSourceLocation@UiHeaderItemList@AST@QQmlJS@@UBE?AVSourceLocation@23@XZ @2248
?firstSourceLocation@UiImport@AST@QQmlJS@@UBE?AVSourceLocation@23@XZ @2249
?firstSourceLocation@UiObjectBinding@AST@QQmlJS@@UBE?AVSourceLocation@23@XZ @2250
?firstSourceLocation@UiObjectDefinition@AST@QQmlJS@@UBE?AVSourceLocation@23@XZ @2251
?firstSourceLocation@UiObjectInitializer@AST@QQmlJS@@UBE?AVSourceLocation@23@XZ @2252
?firstSourceLocation@UiObjectMemberList@AST@QQmlJS@@UBE?AVSourceLocation@23@XZ @2253
?firstSourceLocation@UiParameterList@AST@QQmlJS@@UBE?AVSourceLocation@23@XZ @2254
?firstSourceLocation@UiPragma@AST@QQmlJS@@UBE?AVSourceLocation@23@XZ @2255
?firstSourceLocation@UiProgram@AST@QQmlJS@@UBE?AVSourceLocation@23@XZ @2256
?firstSourceLocation@UiPublicMember@AST@QQmlJS@@UBE?AVSourceLocation@23@XZ @2257
?firstSourceLocation@UiQualifiedId@AST@QQmlJS@@UBE?AVSourceLocation@23@XZ @2258
?firstSourceLocation@UiQualifiedPragmaId@AST@QQmlJS@@UBE?AVSourceLocation@23@XZ @2259
?firstSourceLocation@UiScriptBinding@AST@QQmlJS@@UBE?AVSourceLocation@23@XZ @2260
?firstSourceLocation@UiSourceElement@AST@QQmlJS@@UBE?AVSourceLocation@23@XZ @2261
?firstSourceLocation@UnaryMinusExpression@AST@QQmlJS@@UBE?AVSourceLocation@23@XZ @2262
?firstSourceLocation@UnaryPlusExpression@AST@QQmlJS@@UBE?AVSourceLocation@23@XZ @2263
?firstSourceLocation@VariableDeclaration@AST@QQmlJS@@UBE?AVSourceLocation@23@XZ @2264
?firstSourceLocation@VariableDeclarationList@AST@QQmlJS@@UBE?AVSourceLocation@23@XZ @2265
?firstSourceLocation@VariableStatement@AST@QQmlJS@@UBE?AVSourceLocation@23@XZ @2266
?firstSourceLocation@VoidExpression@AST@QQmlJS@@UBE?AVSourceLocation@23@XZ @2267
?firstSourceLocation@WhileStatement@AST@QQmlJS@@UBE?AVSourceLocation@23@XZ @2268
?firstSourceLocation@WithStatement@AST@QQmlJS@@UBE?AVSourceLocation@23@XZ @2269
?flags@QQmlCustomParser@@QBE?AV?$QFlags@W4Flag@QQmlCustomParser@@@@XZ @2270
?flushPendingBinding@QQmlData@@SAXPAVQObject@@H@Z @2271
?flushPendingBindingImpl@QQmlData@@AAEXH@Z @2272
?flushSignal@QQmlPropertyPrivate@@SAXPBVQObject@@H@Z @2273
?followsClosingBrace@Lexer@QQmlJS@@QBE_NXZ @2274
?fontFamilies@QQmlGuiProvider@@UAE?AVQStringList@@XZ @2275
?forceCompletion@QQmlIncubator@@QAEXXZ @2276
?foreachIterator@Runtime@QV4@@SA_KPAUExecutionContext@2@UValueRef@2@@Z @2277
?foreachNextPropertyName@Runtime@QV4@@SA_KUValueRef@2@@Z @2278
?formalParameterCount@FunctionObject@QV4@@QAEIXZ @2279
?frameSize@InstructionSelection@Moth@QV4@@ABEHXZ @2280
?free@SparseArrayData@QV4@@SAXPAUArrayData@2@I@Z @2281
?freeList@SparseArrayData@QV4@@QAEAAIXZ @2282
?freeList@SparseArrayData@QV4@@QBEIXZ @2283
?freeTree@SparseArray@QV4@@QAEXPAUSparseArrayNode@2@H@Z @2284
?freezeObject@QV8Engine@@QAEXUValueRef@QV4@@@Z @2285
?fromBoolean@Primitive@QV4@@SA?AU12@_N@Z @2286
?fromDouble@Primitive@QV4@@SA?AU12@N@Z @2287
?fromHslF@QQmlColorProvider@@UAE?AVQVariant@@NNNN@Z @2288
?fromInt32@Primitive@QV4@@SA?AU12@H@Z @2289
?fromManaged@Value@QV4@@SA?AU12@PAUManaged@2@@Z @2290
?fromReturnedValue@Value@QV4@@SA?AU12@_K@Z @2291
?fromRgbF@QQmlColorProvider@@UAE?AVQVariant@@NNNN@Z @2292
?fromTypeData@QQmlComponentPrivate@@QAEXPAVQQmlTypeData@@@Z @2293
?fromUInt32@Primitive@QV4@@SA?AU12@I@Z @2294
?fromVariant@QV8Engine@@QAE_KABVQVariant@@@Z @2295
?function@FunctionObject@QV4@@QBEPAUFunction@2@XZ @2296
?function@QQmlBoundSignalExpression@@QBEPAUFunction@QV4@@XZ @2297
?function@Script@QV4@@QAEPAUFunction@2@XZ @2298
?functionBody@Codegen@QQmlJS@@IAEXPAVFunctionBody@AST@2@@Z @2299
?functionCount@Object@QmlIR@@QBEHXZ @2300
?gatherSources@Debugger@Debugging@QV4@@QAEXH@Z @2301
?generate@QmlUnitGenerator@QmlIR@@QAEPAUUnit@CompiledData@QV4@@AAUDocument@2@@Z @2302
?generateFromFunctionExpression@Codegen@QQmlJS@@QAEXABVQString@@0PAVFunctionExpression@AST@2@PAUModule@IR@QV4@@@Z @2303
?generateFromProgram@Codegen@QQmlJS@@QAEXABVQString@@0PAVProgram@AST@2@PAUModule@IR@QV4@@W4CompilationMode@12@ABVQStringList@@@Z @2304
?generateFromQml@IRBuilder@QmlIR@@QAE_NABVQString@@0PAUDocument@2@@Z @2305
?generateJSCodeForFunctionsAndBindings@JSCodeGen@QmlIR@@QAE?AV?$QVector@H@@ABV?$QList@UCompiledFunctionOrExpression@QmlIR@@@@@Z @2306
?generateUnit@JSUnitGenerator@Compiler@QV4@@QAEPAUUnit@CompiledData@3@W4GeneratorOption@123@@Z @2307
?get@ArrayData@QV4@@QBE_KI@Z @2308
?get@Object@QV4@@KA_KPAUManaged@2@PAUString@2@PA_N@Z @2309
?get@Object@QV4@@QAE_KPAUString@2@PA_N@Z @2310
?get@QJSValuePrivate@@SAPAV1@ABVQJSValue@@@Z @2311
?get@QObjectWrapper@QV4@@CA_KPAUManaged@2@PAUString@2@PA_N@Z @2312
?get@QQmlComponentPrivate@@SAPAV1@PAVQQmlComponent@@@Z @2313
?get@QQmlContextData@@SAPAV1@PAVQQmlContext@@@Z @2314
?get@QQmlData@@SAPAV1@PBVQObject@@_N@Z @2315
?get@QQmlDelegateModelGroup@@QAE?AVQQmlV4Handle@@H@Z @2316
?get@QQmlEnginePrivate@@SAPAV1@PAUExecutionEngine@QV4@@@Z @2317
?get@QQmlEnginePrivate@@SAPAV1@PAVQQmlContext@@@Z @2318
?get@QQmlEnginePrivate@@SAPAV1@PAVQQmlContextData@@@Z @2319
?get@QQmlEnginePrivate@@SAPAV1@PAVQQmlEngine@@@Z @2320
?get@QQmlEnginePrivate@@SAPAVQQmlEngine@@PAV1@@Z @2321
?get@QQmlEnginePrivate@@SAPBV1@PBVQQmlEngine@@@Z @2322
?get@QQmlFileSelector@@SAPAV1@PAVQQmlEngine@@@Z @2323
?get@QQmlListModel@@QBE?AVQQmlV4Handle@@H@Z @2324
?get@QQmlPropertyPrivate@@SAPAV1@ABVQQmlProperty@@@Z @2325
?get@QQmlVMEMetaObject@@SAPAV1@PAVQObject@@@Z @2326
?get@QV8Engine@@SAPAV1@PAVQJSEngine@@@Z @2327
?get@QmlContextWrapper@QV4@@SA_KPAUManaged@2@PAUString@2@PA_N@Z @2328
?get@QmlListWrapper@QV4@@SA_KPAUManaged@2@PAUString@2@PA_N@Z @2329
?get@QmlTypeWrapper@QV4@@SA_KPAUManaged@2@PAUString@2@PA_N@Z @2330
?get@QmlValueTypeWrapper@QV4@@SA_KPAUManaged@2@PAUString@2@PA_N@Z @2331
?get@SimpleArrayData@QV4@@SA_KPBUArrayData@2@I@Z @2332
?get@SparseArrayData@QV4@@SA_KPBUArrayData@2@I@Z @2333
?get@String@QV4@@KA_KPAUManaged@2@PAU12@PA_N@Z @2334
?getActivationProperty@InstructionSelection@JIT@QV4@@MAEXPBUName@IR@3@PAUExpr@53@@Z @2335
?getActivationProperty@InstructionSelection@Moth@QV4@@MAEXPBUName@IR@3@PAUExpr@53@@Z @2336
?getActivationProperty@Runtime@QV4@@SA_KPAUExecutionContext@2@PAUString@2@@Z @2337
?getAllocatedMem@MemoryManager@QV4@@QBEIXZ @2338
?getContext@QmlContextWrapper@QV4@@QBEPAVQQmlContextData@@XZ @2339
?getContext@QmlContextWrapper@QV4@@SAPAVQQmlContextData@@UValueRef@2@@Z @2340
?getElement@InstructionSelection@JIT@QV4@@MAEXPAUExpr@IR@3@00@Z @2341
?getElement@InstructionSelection@Moth@QV4@@MAEXPAUExpr@IR@3@00@Z @2342
?getElement@Runtime@QV4@@SA_KPAUExecutionContext@2@UValueRef@2@1@Z @2343
?getForMethod@QQmlVMEMetaObject@@SAPAV1@PAVQObject@@H@Z @2344
?getForProperty@QQmlVMEMetaObject@@SAPAV1@PAVQObject@@H@Z @2345
?getForSignal@QQmlVMEMetaObject@@SAPAV1@PAVQObject@@H@Z @2346
?getFunction@Debugger@Debugging@QV4@@ABEPAUFunction@3@XZ @2347
?getFunctionObject@ExecutionContext@QV4@@QBEPAUFunctionObject@2@XZ @2348
?getIndexed@Object@QV4@@KA_KPAUManaged@2@IPA_N@Z @2349
?getIndexed@Object@QV4@@QAE_KIPA_N@Z @2350
?getIndexed@QmlListWrapper@QV4@@SA_KPAUManaged@2@IPA_N@Z @2351
?getIndexed@String@QV4@@KA_KPAUManaged@2@IPA_N@Z @2352
?getLargeItemsMem@MemoryManager@QV4@@QBEIXZ @2353
?getLength@Object@QV4@@KAIPBUManaged@2@@Z @2354
?getLength@Object@QV4@@QBEIXZ @2355
?getLength@String@QV4@@KAIPBUManaged@2@@Z @2356
?getLookup@Object@QV4@@KA_KPAUManaged@2@PAULookup@2@@Z @2357
?getLookup@Object@QV4@@QAE_KPAULookup@2@@Z @2358
?getNetworkAccessManager@QQmlEnginePrivate@@QBEPAVQNetworkAccessManager@@XZ @2359
?getParam@InstructionSelection@Moth@QV4@@AAE?AUParam@23@PAUExpr@IR@3@@Z @2360
?getPointer@QQmlAbstractBinding@@SA?AV?$QWeakPointer@VQQmlAbstractBinding@@@@PAV1@@Z @2361
?getProperty@ArrayData@QV4@@QAEPAUProperty@2@I@Z @2362
?getProperty@ExecutionContext@QV4@@QAE_KPAUString@2@@Z @2363
?getProperty@InstructionSelection@JIT@QV4@@MAEXPAUExpr@IR@3@ABVQString@@0@Z @2364
?getProperty@InstructionSelection@Moth@QV4@@MAEXPAUExpr@IR@3@ABVQString@@0@Z @2365
?getProperty@QObjectWrapper@QV4@@CA_KPAVQObject@@PAUExecutionContext@2@PAVQQmlPropertyData@@_N@Z @2366
?getProperty@QObjectWrapper@QV4@@SA_KPAVQObject@@PAUExecutionContext@2@H_N@Z @2367
?getProperty@Runtime@QV4@@SA_KPAUExecutionContext@2@UValueRef@2@PAUString@2@@Z @2368
?getProperty@SimpleArrayData@QV4@@QAEPAUProperty@2@I@Z @2369
?getProperty@SparseArrayData@QV4@@QAEPAUProperty@2@I@Z @2370
?getPropertyAndBase@ExecutionContext@QV4@@QAE_KPAUString@2@AAPAUObject@2@@Z @2371
?getQObjectGuardForProperty@QQmlVMEMetaObject@@QBEPAVQQmlVMEVariantQObjectPtr@@H@Z @2372
?getQObjectProperty@InstructionSelection@JIT@QV4@@MAEXPAUExpr@IR@3@H_N1H0@Z @2373
?getQObjectProperty@InstructionSelection@Moth@QV4@@MAEXPAUExpr@IR@3@H_N1H0@Z @2374
?getQmlAttachedProperty@Runtime@QV4@@SA_KPAUExecutionContext@2@HH@Z @2375
?getQmlContextObject@Runtime@QV4@@SA_KPAUNoThrowContext@2@@Z @2376
?getQmlIdArray@Runtime@QV4@@SA_KPAUNoThrowContext@2@@Z @2377
?getQmlImportedScripts@Runtime@QV4@@SA_KPAUNoThrowContext@2@@Z @2378
?getQmlProperty@QObjectWrapper@QV4@@QAE_KPAUExecutionContext@2@PAVQQmlContextData@@PAUString@2@W4RevisionMode@12@PA_N_N@Z @2379
?getQmlProperty@QObjectWrapper@QV4@@SA_KPAUExecutionContext@2@PAVQQmlContextData@@PAVQObject@@PAUString@2@W4RevisionMode@12@PA_N@Z @2380
?getQmlQObjectProperty@Runtime@QV4@@SA_KPAUExecutionContext@2@UValueRef@2@H_N@Z @2381
?getQmlScopeObject@Runtime@QV4@@SA_KPAUNoThrowContext@2@@Z @2382
?getQmlSingleton@Runtime@QV4@@SA_KPAUNoThrowContext@2@PAUString@2@@Z @2383
?getQmlSingletonQObjectProperty@Runtime@QV4@@SA_KPAUExecutionContext@2@UValueRef@2@H_N@Z @2384
?getResultParam@InstructionSelection@Moth@QV4@@AAE?AUParam@23@PAUExpr@IR@3@@Z @2385
?getScopeObject@QmlContextWrapper@QV4@@QBEPAVQObject@@XZ @2386
?getScopeTypes@Debugger@Debugging@QV4@@QBE?AV?$QVector@W4ContextType@ExecutionContext@QV4@@@@H@Z @2387
?getStringId@JSUnitGenerator@Compiler@QV4@@QBEHABVQString@@@Z @2388
?getStringId@StringTableGenerator@Compiler@QV4@@QBEHABVQString@@@Z @2389
?getUid@QQmlListModel@@ABEHXZ @2390
?getUniqueId@QQmlEnginePrivate@@QBEIXZ @2391
?getUsedMem@MemoryManager@QV4@@QBEIXZ @2392
?getV4@QV8Engine@@SAPAUExecutionEngine@QV4@@PAV1@@Z @2393
?getV4@QV8Engine@@SAPAUExecutionEngine@QV4@@PAVQJSEngine@@@Z @2394
?getV4Engine@QQmlEnginePrivate@@SAPAUExecutionEngine@QV4@@PAVQQmlEngine@@@Z @2395
?getV8Engine@QQmlEnginePrivate@@SAPAVQV8Engine@@PAVQQmlEngine@@@Z @2396
?getValue@Object@QV4@@QBE_KPBUProperty@2@UPropertyAttributes@2@@Z @2397
?getValue@Object@QV4@@SA_KUValueRef@2@PBUProperty@2@UPropertyAttributes@2@@Z @2398
?getValue@QJSValuePrivate@@QAE_KPAUExecutionEngine@QV4@@@Z @2399
?getWorkerScriptEngine@QQmlEnginePrivate@@QAEPAVQQuickWorkerScriptEngine@@XZ @2400
?global@QV8Engine@@QAE_KXZ @2401
?globalObject@QJSEngine@@QBE?AVQJSValue@@XZ @2402
?greaterEqual@Runtime@QV4@@SA_KUValueRef@2@0@Z @2403
?greaterThan@Runtime@QV4@@SA_KUValueRef@2@0@Z @2404
?group@QAbstractAnimationJob@@QBEPAVQAnimationGroupJob@@XZ @2405
?groups@QQmlDelegateModel@@QAE?AV?$QQmlListProperty@VQQmlDelegateModelGroup@@@@XZ @2406
?handle@QJSEngine@@QBEPAVQV8Engine@@XZ @2407
?hasAccessorProperty@Object@QV4@@QBE_NXZ @2408
?hasAttributes@ArrayData@QV4@@QBE_NXZ @2409
?hasBindingBit@QQmlData@@QBE_NH@Z @2410
?hasDebuggingClient@QQmlDebugServer@@QBE_NXZ @2411
?hasDebuggingClient@QQmlDebugService@@SA_NXZ @2412
?hasEngine@QQmlCleanup@@QBE_NXZ @2413
?hasError@QQmlDirParser@@QBE_NXZ @2414
?hasError@QQmlExpression@@QBE_NXZ @2415
?hasExtendedData@QQmlData@@QBE_NXZ @2416
?hasMetaObject@QQmlMetaObject@@QBE_NXZ @2417
?hasNext@QJSValueIterator@@QBE_NXZ @2418
?hasNotifySignal@QQmlProperty@@QBE_NXZ @2419
?hasOwnProperty@Object@QV4@@QBE_NI@Z @2420
?hasOwnProperty@Object@QV4@@QBE_NPAUString@2@@Z @2421
?hasOwnProperty@QJSValue@@QBE_NABVQString@@@Z @2422
?hasPendingBindingBit@QQmlData@@QBE_NH@Z @2423
?hasProperty@Object@QV4@@QBE_NI@Z @2424
?hasProperty@Object@QV4@@QBE_NPAUString@2@@Z @2425
?hasProperty@QJSValue@@QBE_NABVQString@@@Z @2426
?hasStartAnimationPending@QQmlAnimationTimer@@QBE_NXZ @2427
?hasValue@QQmlOpenMetaObject@@QBE_NH@Z @2428
?hashValue@String@QV4@@QBEIXZ @2429
?height@QQmlRectFValueType@@QBENXZ @2430
?height@QQmlRectValueType@@QBEHXZ @2431
?height@QQmlSizeFValueType@@QBENXZ @2432
?height@QQmlSizeValueType@@QBEHXZ @2433
?idForObject@QQmlDebugService@@SAHPAVQObject@@@Z @2434
?idObjectsArray@QmlContextWrapper@QV4@@QAE_KXZ @2435
?identifier@Codegen@QQmlJS@@IAEPAUExpr@IR@QV4@@ABVQString@@HH@Z @2436
?identifier@String@QV4@@QBEPAUIdentifier@2@XZ @2437
?illegalNames@QV8Engine@@QBEABV?$QSet@VQString@@@@XZ @2438
?imageProvider@QQmlEngine@@QBEPAVQQmlImageProviderBase@@ABVQString@@@Z @2439
?importFile@Directives@QQmlJS@@UAEXABVQString@@0@Z @2440
?importModule@Directives@QQmlJS@@UAEXABVQString@@00@Z @2441
?importPathList@QQmlEngine@@QBE?AVQStringList@@XZ @2442
?importPlugin@QQmlEngine@@QAE_NABVQString@@0PAV?$QList@VQQmlError@@@@@Z @2443
?imports@Blob@QQmlTypeLoader@@QBEABVQQmlImports@@XZ @2444
?in@Runtime@QV4@@SA_KPAUExecutionContext@2@UValueRef@2@1@Z @2445
?inUse@Managed@QV4@@QBE_NXZ @2446
?increment@Runtime@QV4@@SA_KUValueRef@2@@Z @2447
?incubate@QQmlEnginePrivate@@QAEXAAVQQmlIncubator@@PAVQQmlContextData@@@Z @2448
?incubateFor@QQmlIncubationController@@QAEXH@Z @2449
?incubateObject@QQmlComponent@@IAEXPAVQQmlV4Function@@@Z @2450
?incubateWhile@QQmlIncubationController@@QAEXPC_NH@Z @2451
?incubatingObjectCount@QQmlIncubationController@@QBEHXZ @2452
?incubatingObjectCountChanged@QQmlIncubationController@@MAEXH@Z @2453
?incubationController@QQmlEngine@@QBEPAVQQmlIncubationController@@XZ @2454
?incubationMode@QQmlIncubator@@QBE?AW4IncubationMode@1@XZ @2455
?index@QQmlBoundSignal@@UBEHXZ @2456
?index@QQmlListModel@@UBE?AVQModelIndex@@HHABV2@@Z @2457
?index@QQmlProperty@@QBEHXZ @2458
?index@QQmlType@@QBEHXZ @2459
?indexForCurrentTime@QSequentialAnimationGroupJob@@ABE?AUAnimationIndex@1@XZ @2460
?indexOf@QQmlDelegateModel@@UBEHPAVQObject@@0@Z @2461
?indexOf@QQmlObjectModel@@UBEHPAVQObject@@0@Z @2462
?init@FunctionObject@QV4@@QAEXPAUString@2@_N@Z @2463
?init@Object@QmlIR@@QAEXPAVMemoryPool@QQmlJS@@HHABVSourceLocation@AST@4@@Z @2464
?init@ObjectIterator@QV4@@QAEXPAUObject@2@@Z @2465
?init@PersistentValuePrivate@QV4@@QAEXXZ @2466
?init@QQmlApplicationEnginePrivate@@QAEXXZ @2467
?init@QQmlBoundSignalExpression@@AAEXPAVQQmlContextData@@PAVQObject@@@Z @2468
?init@QQmlData@@SAXXZ @2469
?init@QQmlEnginePrivate@@QAEXXZ @2470
?init@QQmlPropertyMap@@AAEXPBUQMetaObject@@@Z @2471
?init@QQmlValueTypeProvider@@EAE_NHPAXI@Z @2472
?init@SingletonInstanceInfo@QQmlType@@QAEXPAVQQmlEngine@@@Z @2473
?initClosure@InstructionSelection@JIT@QV4@@MAEXPAUClosure@IR@3@PAUExpr@53@@Z @2474
?initClosure@InstructionSelection@Moth@QV4@@MAEXPAUClosure@IR@3@PAUExpr@53@@Z @2475
?initDefault@QQmlPropertyPrivate@@QAEXPAVQObject@@@Z @2476
?initItem@QQmlInstanceModel@@QAEXHPAVQObject@@@Z @2477
?initProperty@QQmlPropertyPrivate@@QAEXPAVQObject@@ABVQString@@@Z @2478
?initProto@QmlValueTypeWrapper@QV4@@SAXPAUExecutionEngine@2@@Z @2479
?initQmlGlobalObject@QV8Engine@@QAEXXZ @2480
?initRootContext@ExecutionEngine@QV4@@QAEXXZ @2481
?initSparseArray@Object@QV4@@QAEXXZ @2482
?initValueType@QQmlValueTypeProvider@@QAE_NHPAXI@Z @2483
?initialValue@QQmlOpenMetaObject@@UAE?AVQVariant@@H@Z @2484
?initializeBindings@QObjectWrapper@QV4@@SAXPAUExecutionEngine@2@@Z @2485
?initializeEngine@QQmlExtensionPlugin@@UAEXPAVQQmlEngine@@PBD@Z @2486
?initializeGlobal@QV8Engine@@IAEXXZ @2487
?initializeObjectWithInitialProperties@QQmlComponentPrivate@@QAEXUValueRef@QV4@@0PAVQObject@@@Z @2488
?initialized@?1??init@QQmlData@@SAXXZ@4_NA @2489
?inputMethod@QQmlGuiProvider@@UAEPAVQObject@@XZ @2490
?insert@ArrayData@QV4@@SAPAUProperty@2@PAUObject@2@I_N@Z @2491
?insert@QQmlChangeSet@@QAEXABV?$QVector@UChange@QQmlChangeSet@@@@@Z @2492
?insert@QQmlChangeSet@@QAEXHH@Z @2493
?insert@QQmlDelegateModelGroup@@QAEXPAVQQmlV4Function@@@Z @2494
?insert@QQmlListModel@@QAEXPAVQQmlV4Function@@@Z @2495
?insert@QQmlPropertyMap@@QAEXABVQString@@ABVQVariant@@@Z @2496
?insert@SparseArray@QV4@@QAEPAUSparseArrayNode@2@I@Z @2497
?insertMember@Object@QV4@@QAEXPAUString@2@ABUProperty@2@UPropertyAttributes@2@@Z @2498
?insertMember@Object@QV4@@QAEXPAUString@2@UValueRef@2@UPropertyAttributes@2@@Z @2499
?insertSorted@Object@QmlIR@@QAEXPAUBinding@2@@Z @2500
?inserts@QQmlChangeSet@@QBEABV?$QVector@UChange@QQmlChangeSet@@@@XZ @2501
?installTranslatorFunctions@QJSEngine@@QAEXABVQJSValue@@@Z @2502
?instance@QQmlAnimationTimer@@SAPAV1@XZ @2503
?instance@QQmlAnimationTimer@@SAPAV1@_N@Z @2504
?instance@QQmlDebugServer@@SAPAV1@XZ @2505
?instance@QQmlEngineDebugService@@SAPAV1@XZ @2506
?instance@QQmlInspectorService@@SAPAV1@XZ @2507
?instance@QQmlProfilerService@@SAPAV1@XZ @2508
?instanceof@Runtime@QV4@@SA_KPAUExecutionContext@2@UValueRef@2@1@Z @2509
?integerCompatible@Value@QV4@@QBE_NXZ @2510
?integerCompatible@Value@QV4@@SA_NU12@0@Z @2511
?integerValue@Value@QV4@@QBEHXZ @2512
?intercept@QQmlFileSelectorInterceptor@@MAE?AVQUrl@@ABV2@W4DataType@QQmlAbstractUrlInterceptor@@@Z @2513
?interfaceIId@QQmlMetaType@@SAPBDH@Z @2514
?interfaceIId@QQmlType@@QBEPBDXZ @2515
?internalClass@Managed@QV4@@QBEPAUInternalClass@2@XZ @2516
?internalDeleteIndexedProperty@Object@QV4@@AAE_NI@Z @2517
?internalDeleteProperty@Object@QV4@@AAE_NPAUString@2@@Z @2518
?internalGet@Object@QV4@@AAE_KPAUString@2@PA_N@Z @2519
?internalGetIndexed@Object@QV4@@AAE_KIPA_N@Z @2520
?internalPut@Object@QV4@@AAEXPAUString@2@UValueRef@2@@Z @2521
?internalPutIndexed@Object@QV4@@AAEXIUValueRef@2@@Z @2522
?interval@QQmlTimer@@QBEHXZ @2523
?intervalChanged@QQmlTimer@@QAEXXZ @2524
?invalidParameterName@QQmlBoundSignalExpression@@ABE_NXZ @2525
?invalidate@QQmlContextData@@QAEXXZ @2526
?invalidate@QQmlPropertyCache@@QAEXPAVQQmlEngine@@PBUQMetaObject@@@Z @2527
?isAddedToObject@QQmlAbstractBinding@@ABE_NXZ @2528
?isAllowedInRevision@QQmlPropertyCache@@QBE_NPAVQQmlPropertyData@@@Z @2529
?isAnyModule@QQmlMetaType@@SA_NABVQString@@@Z @2530
?isArray@QJSValue@@QBE_NXZ @2531
?isArrayObject@Managed@QV4@@QBE_NXZ @2532
?isAttachedProperty@Binding@CompiledData@QV4@@QBE_NXZ @2533
?isBool@QJSValue@@QBE_NXZ @2534
?isBoolean@Value@QV4@@QBE_NXZ @2535
?isBundle@QQmlFile@@SA_NABVQString@@@Z @2536
?isBundle@QQmlFile@@SA_NABVQUrl@@@Z @2537
?isBundleHeader@QQmlBundle@@SA_NPBDH@Z @2538
?isCallable@QJSValue@@QBE_NXZ @2539
?isComplete@QQmlDataBlob@@QBE_NXZ @2540
?isCompleteOrError@QQmlDataBlob@@QBE_NXZ @2541
?isComposite@QQmlType@@QBE_NXZ @2542
?isCompositeSingleton@QQmlType@@QBE_NXZ @2543
?isCreatable@QQmlType@@QBE_NXZ @2544
?isDate@QJSValue@@QBE_NXZ @2545
?isDebuggingEnabled@QQmlDebugService@@SA_NXZ @2546
?isDecimalDigit@Lexer@QQmlJS@@CA_NG@Z @2547
?isDescendantOf@QQmlDelegateModel@@ABE_NABVQPersistentModelIndex@@ABV?$QList@VQPersistentModelIndex@@@@@Z @2548
?isDesignable@QQmlProperty@@QBE_NXZ @2549
?isDouble@Value@QV4@@QBE_NXZ @2550
?isDynamicMetaObject@QQmlPropertyCache@@SA_NPBUQMetaObject@@@Z @2551
?isEmpty@ArrayData@QV4@@QBE_NI@Z @2552
?isEmpty@QQmlChangeSet@@QBE_NXZ @2553
?isEmpty@QQmlPropertyMap@@QBE_NXZ @2554
?isEmpty@QQmlScriptString@@QBE_NXZ @2555
?isEmpty@Value@QV4@@QBE_NXZ @2556
?isEnabled@QQmlMemoryProfiler@@SA_NXZ @2557
?isEngineThread@QQmlEnginePrivate@@QBE_NXZ @2558
?isEngineThread@QQmlEnginePrivate@@SA_NPBVQQmlEngine@@@Z @2559
?isEqual@?$QQmlValueTypeBase@VQEasingCurve@@@@UBE_NABVQVariant@@@Z @2560
?isEqual@?$QQmlValueTypeBase@VQPoint@@@@UBE_NABVQVariant@@@Z @2561
?isEqual@?$QQmlValueTypeBase@VQPointF@@@@UBE_NABVQVariant@@@Z @2562
?isEqual@?$QQmlValueTypeBase@VQRect@@@@UBE_NABVQVariant@@@Z @2563
?isEqual@?$QQmlValueTypeBase@VQRectF@@@@UBE_NABVQVariant@@@Z @2564
?isEqual@?$QQmlValueTypeBase@VQSize@@@@UBE_NABVQVariant@@@Z @2565
?isEqual@?$QQmlValueTypeBase@VQSizeF@@@@UBE_NABVQVariant@@@Z @2566
?isEqual@QmlValueTypeWrapper@QV4@@QAE_NABVQVariant@@@Z @2567
?isEqualTo@Managed@QV4@@QAE_NPAU12@@Z @2568
?isEqualTo@Managed@QV4@@SA_NPAU12@0@Z @2569
?isEqualTo@QObjectWrapper@QV4@@KA_NPAUManaged@2@0@Z @2570
?isEqualTo@QmlTypeWrapper@QV4@@SA_NPAUManaged@2@0@Z @2571
?isEqualTo@QmlValueTypeWrapper@QV4@@SA_NPAUManaged@2@0@Z @2572
?isEqualTo@String@QV4@@KA_NPAUManaged@2@0@Z @2573
?isEqualTo@String@QV4@@QBE_NPBU12@@Z @2574
?isError@DiagnosticMessage@QQmlJS@@QBE_NXZ @2575
?isError@QJSValue@@QBE_NXZ @2576
?isError@QQmlComponent@@QBE_NXZ @2577
?isError@QQmlDataBlob@@QBE_NXZ @2578
?isError@QQmlFile@@QBE_NXZ @2579
?isError@QQmlIncubator@@QBE_NXZ @2580
?isEvaluating@QQmlBoundSignal@@UBE_NXZ @2581
?isExtendedType@QQmlType@@QBE_NXZ @2582
?isExtensible@Object@QV4@@QBE_NXZ @2583
?isFileName@FileEntry@QQmlBundle@@QBE_NABVQString@@@Z @2584
?isGCBlocked@MemoryManager@QV4@@QBE_NXZ @2585
?isGroup@QAbstractAnimationJob@@QBE_NXZ @2586
?isGroupProperty@Binding@CompiledData@QV4@@QBE_NXZ @2587
?isHexDigit@Lexer@QQmlJS@@CA_NVQChar@@@Z @2588
?isIdentLetter@Lexer@QQmlJS@@CA_NVQChar@@@Z @2589
?isInSSA@Optimizer@IR@QV4@@QBE_NXZ @2590
?isInt32@Value@QV4@@QAE_NXZ @2591
?isInteger@Value@QV4@@QBE_NXZ @2592
?isInterface@QQmlMetaType@@SA_NH@Z @2593
?isInterface@QQmlType@@QBE_NXZ @2594
?isLineTerminator@Lexer@QQmlJS@@ABE_NXZ @2595
?isLineTerminatorSequence@Lexer@QQmlJS@@ABEIXZ @2596
?isList@QQmlEnginePrivate@@QBE_NH@Z @2597
?isList@QQmlMetaType@@SA_NH@Z @2598
?isListType@Managed@QV4@@QBE_NXZ @2599
?isLoading@QQmlComponent@@QBE_NXZ @2600
?isLoading@QQmlDataBlob@@QBE_NXZ @2601
?isLoading@QQmlFile@@QBE_NXZ @2602
?isLoading@QQmlIncubator@@QBE_NXZ @2603
?isLocal@QQmlImports@@SA_NABVQString@@@Z @2604
?isLocal@QQmlImports@@SA_NABVQUrl@@@Z @2605
?isLocalFile@QQmlFile@@SA_NABVQString@@@Z @2606
?isLocalFile@QQmlFile@@SA_NABVQUrl@@@Z @2607
?isLockedModule@QQmlMetaType@@SA_NABVQString@@H@Z @2608
?isManaged@Value@QV4@@QBE_NXZ @2609
?isManipulable@QQmlListReference@@QBE_NXZ @2610
?isModule@QQmlMetaType@@SA_NABVQString@@HH@Z @2611
?isNaN@Value@QV4@@QBE_NXZ @2612
?isNamedExpression@Function@QV4@@QBE_NXZ @2613
?isNull@QJSValue@@QBE_NXZ @2614
?isNull@QQmlComponent@@QBE_NXZ @2615
?isNull@QQmlDataBlob@@QBE_NXZ @2616
?isNull@QQmlFile@@QBE_NXZ @2617
?isNull@QQmlIncubator@@QBE_NXZ @2618
?isNull@QQmlMetaObject@@QBE_NXZ @2619
?isNull@Value@QV4@@QBE_NXZ @2620
?isNullLiteral@QQmlScriptString@@QBE_NXZ @2621
?isNullOrUndefined@PersistentValue@QV4@@QBE_NXZ @2622
?isNullOrUndefined@Value@QV4@@QBE_NXZ @2623
?isNullOrUndefined@WeakValue@QV4@@QBE_NXZ @2624
?isNumber@QJSValue@@QBE_NXZ @2625
?isNumber@Value@QV4@@QBE_NXZ @2626
?isObject@QJSValue@@QBE_NXZ @2627
?isObject@Value@QV4@@QBE_NXZ @2628
?isOctalDigit@Lexer@QQmlJS@@CA_NG@Z @2629
?isPaused@QAbstractAnimationJob@@QAE_NXZ @2630
?isPrimitive@Value@QV4@@QBE_NXZ @2631
?isProperty@Collector@Debugger@Debugging@QV4@@IBE_NXZ @2632
?isProperty@QQmlProperty@@QBE_NXZ @2633
?isQObject@QJSValue@@QBE_NXZ @2634
?isQObject@QQmlEnginePrivate@@QAE_NH@Z @2635
?isQObject@QQmlMetaType@@SA_NH@Z @2636
?isReadable@QQmlListReference@@QBE_NXZ @2637
?isReady@QQmlComponent@@QBE_NXZ @2638
?isReady@QQmlFile@@QBE_NXZ @2639
?isReady@QQmlIncubator@@QBE_NXZ @2640
?isRegExp@QJSValue@@QBE_NXZ @2641
?isRenderThreadJob@QAbstractAnimationJob@@QBE_NXZ @2642
?isRenderThreadProxy@QAbstractAnimationJob@@QBE_NXZ @2643
?isRepeating@QQmlTimer@@QBE_NXZ @2644
?isResettable@QQmlProperty@@QBE_NXZ @2645
?isRunning@QAbstractAnimationJob@@QAE_NXZ @2646
?isRunning@QQmlAbstractProfilerAdapter@@QBE_NXZ @2647
?isRunning@QQmlTimer@@QBE_NXZ @2648
?isScriptLoaded@QQmlEnginePrivate@@QBE_NABVQUrl@@@Z @2649
?isSignalConnected@QQmlData@@SA_NPAVQAbstractDeclarativeData@@PBVQObject@@H@Z @2650
?isSignalHandler@Binding@CompiledData@QV4@@QBE_NXZ @2651
?isSignalProperty@QQmlProperty@@QBE_NXZ @2652
?isSignalPropertyName@IRBuilder@QmlIR@@SA_NABVQString@@@Z @2653
?isSingleton@QQmlType@@QBE_NXZ @2654
?isSingleton@QmlTypeWrapper@QV4@@QBE_NXZ @2655
?isSparse@ArrayData@QV4@@QBE_NXZ @2656
?isStatementNodeScript@IRBuilder@QmlIR@@SA_NPAVStatement@AST@QQmlJS@@@Z @2657
?isStopped@QAbstractAnimationJob@@QAE_NXZ @2658
?isStrict@Function@QV4@@QBE_NXZ @2659
?isString@QJSValue@@QBE_NXZ @2660
?isString@Value@QV4@@QBE_NXZ @2661
?isStringObject@Managed@QV4@@QBE_NXZ @2662
?isSynchronous@QQmlFile@@SA_NABVQString@@@Z @2663
?isSynchronous@QQmlFile@@SA_NABVQUrl@@@Z @2664
?isTypeLoaded@QQmlEnginePrivate@@QBE_NABVQUrl@@@Z @2665
?isUndefined@PersistentValue@QV4@@QBE_NXZ @2666
?isUndefined@QJSValue@@QBE_NXZ @2667
?isUndefined@Value@QV4@@QBE_NXZ @2668
?isUndefined@WeakValue@QV4@@QBE_NXZ @2669
?isUndefinedLiteral@QQmlScriptString@@QBE_NXZ @2670
?isUnicodeEscapeSequence@Lexer@QQmlJS@@CA_NPBVQChar@@@Z @2671
?isValid@QQmlAbstractExpression@@QBE_NXZ @2672
?isValid@QQmlContext@@QBE_NXZ @2673
?isValid@QQmlContextData@@QBE_NXZ @2674
?isValid@QQmlDelegateModel@@UBE_NXZ @2675
?isValid@QQmlError@@QBE_NXZ @2676
?isValid@QQmlListReference@@QBE_NXZ @2677
?isValid@QQmlObjectModel@@UBE_NXZ @2678
?isValid@QQmlProperty@@QBE_NXZ @2679
?isValueBinding@Binding@CompiledData@QV4@@QBE_NXZ @2680
?isValueBindingNoAlias@Binding@CompiledData@QV4@@QBE_NXZ @2681
?isValueBindingToAlias@Binding@CompiledData@QV4@@QBE_NXZ @2682
?isValueType@QQmlPropertyPrivate@@QBE_NXZ @2683
?isValueType@QQmlValueTypeFactory@@SA_NH@Z @2684
?isVariant@QJSValue@@QBE_NXZ @2685
?isWaiting@QQmlDataBlob@@QBE_NXZ @2686
?isWarning@DiagnosticMessage@QQmlJS@@QBE_NXZ @2687
?isWritable@QQmlProperty@@QBE_NXZ @2688
?items@QQmlDelegateModel@@QAEPAVQQmlDelegateModelGroup@@XZ @2689
?jitCompileRegexps@ISelFactory@JIT@QV4@@UBE_NXZ @2690
?jitCompileRegexps@ISelFactory@Moth@QV4@@UBE_NXZ @2691
?jsUnitGenerator@EvalInstructionSelection@QV4@@QBEPAUJSUnitGenerator@Compiler@2@XZ @2692
?keepAliveDuringGarbageCollection@QQmlData@@SA_NPBVQObject@@@Z @2693
?keys@QQmlPropertyMap@@QBE?AVQStringList@@XZ @2694
?keys@SparseArray@QV4@@QBE?AV?$QList@H@@XZ @2695
?lastChild@QAnimationGroupJob@@QBEPAVQAbstractAnimationJob@@XZ @2696
?lastSourceLocation@ArgumentList@AST@QQmlJS@@UBE?AVSourceLocation@23@XZ @2697
?lastSourceLocation@ArrayLiteral@AST@QQmlJS@@UBE?AVSourceLocation@23@XZ @2698
?lastSourceLocation@ArrayMemberExpression@AST@QQmlJS@@UBE?AVSourceLocation@23@XZ @2699
?lastSourceLocation@BinaryExpression@AST@QQmlJS@@UBE?AVSourceLocation@23@XZ @2700
?lastSourceLocation@Block@AST@QQmlJS@@UBE?AVSourceLocation@23@XZ @2701
?lastSourceLocation@BreakStatement@AST@QQmlJS@@UBE?AVSourceLocation@23@XZ @2702
?lastSourceLocation@CallExpression@AST@QQmlJS@@UBE?AVSourceLocation@23@XZ @2703
?lastSourceLocation@CaseBlock@AST@QQmlJS@@UBE?AVSourceLocation@23@XZ @2704
?lastSourceLocation@CaseClause@AST@QQmlJS@@UBE?AVSourceLocation@23@XZ @2705
?lastSourceLocation@CaseClauses@AST@QQmlJS@@UBE?AVSourceLocation@23@XZ @2706
?lastSourceLocation@Catch@AST@QQmlJS@@UBE?AVSourceLocation@23@XZ @2707
?lastSourceLocation@ConditionalExpression@AST@QQmlJS@@UBE?AVSourceLocation@23@XZ @2708
?lastSourceLocation@ContinueStatement@AST@QQmlJS@@UBE?AVSourceLocation@23@XZ @2709
?lastSourceLocation@DebuggerStatement@AST@QQmlJS@@UBE?AVSourceLocation@23@XZ @2710
?lastSourceLocation@DefaultClause@AST@QQmlJS@@UBE?AVSourceLocation@23@XZ @2711
?lastSourceLocation@DeleteExpression@AST@QQmlJS@@UBE?AVSourceLocation@23@XZ @2712
?lastSourceLocation@DoWhileStatement@AST@QQmlJS@@UBE?AVSourceLocation@23@XZ @2713
?lastSourceLocation@ElementList@AST@QQmlJS@@UBE?AVSourceLocation@23@XZ @2714
?lastSourceLocation@Elision@AST@QQmlJS@@UBE?AVSourceLocation@23@XZ @2715
?lastSourceLocation@EmptyStatement@AST@QQmlJS@@UBE?AVSourceLocation@23@XZ @2716
?lastSourceLocation@Expression@AST@QQmlJS@@UBE?AVSourceLocation@23@XZ @2717
?lastSourceLocation@ExpressionStatement@AST@QQmlJS@@UBE?AVSourceLocation@23@XZ @2718
?lastSourceLocation@FalseLiteral@AST@QQmlJS@@UBE?AVSourceLocation@23@XZ @2719
?lastSourceLocation@FieldMemberExpression@AST@QQmlJS@@UBE?AVSourceLocation@23@XZ @2720
?lastSourceLocation@Finally@AST@QQmlJS@@UBE?AVSourceLocation@23@XZ @2721
?lastSourceLocation@ForEachStatement@AST@QQmlJS@@UBE?AVSourceLocation@23@XZ @2722
?lastSourceLocation@ForStatement@AST@QQmlJS@@UBE?AVSourceLocation@23@XZ @2723
?lastSourceLocation@FormalParameterList@AST@QQmlJS@@UBE?AVSourceLocation@23@XZ @2724
?lastSourceLocation@FunctionBody@AST@QQmlJS@@UBE?AVSourceLocation@23@XZ @2725
?lastSourceLocation@FunctionExpression@AST@QQmlJS@@UBE?AVSourceLocation@23@XZ @2726
?lastSourceLocation@FunctionSourceElement@AST@QQmlJS@@UBE?AVSourceLocation@23@XZ @2727
?lastSourceLocation@IdentifierExpression@AST@QQmlJS@@UBE?AVSourceLocation@23@XZ @2728
?lastSourceLocation@IfStatement@AST@QQmlJS@@UBE?AVSourceLocation@23@XZ @2729
?lastSourceLocation@LabelledStatement@AST@QQmlJS@@UBE?AVSourceLocation@23@XZ @2730
?lastSourceLocation@LocalForEachStatement@AST@QQmlJS@@UBE?AVSourceLocation@23@XZ @2731
?lastSourceLocation@LocalForStatement@AST@QQmlJS@@UBE?AVSourceLocation@23@XZ @2732
?lastSourceLocation@NestedExpression@AST@QQmlJS@@UBE?AVSourceLocation@23@XZ @2733
?lastSourceLocation@NewExpression@AST@QQmlJS@@UBE?AVSourceLocation@23@XZ @2734
?lastSourceLocation@NewMemberExpression@AST@QQmlJS@@UBE?AVSourceLocation@23@XZ @2735
?lastSourceLocation@NotExpression@AST@QQmlJS@@UBE?AVSourceLocation@23@XZ @2736
?lastSourceLocation@NullExpression@AST@QQmlJS@@UBE?AVSourceLocation@23@XZ @2737
?lastSourceLocation@NumericLiteral@AST@QQmlJS@@UBE?AVSourceLocation@23@XZ @2738
?lastSourceLocation@ObjectLiteral@AST@QQmlJS@@UBE?AVSourceLocation@23@XZ @2739
?lastSourceLocation@PostDecrementExpression@AST@QQmlJS@@UBE?AVSourceLocation@23@XZ @2740
?lastSourceLocation@PostIncrementExpression@AST@QQmlJS@@UBE?AVSourceLocation@23@XZ @2741
?lastSourceLocation@PreDecrementExpression@AST@QQmlJS@@UBE?AVSourceLocation@23@XZ @2742
?lastSourceLocation@PreIncrementExpression@AST@QQmlJS@@UBE?AVSourceLocation@23@XZ @2743
?lastSourceLocation@Program@AST@QQmlJS@@UBE?AVSourceLocation@23@XZ @2744
?lastSourceLocation@PropertyAssignmentList@AST@QQmlJS@@UBE?AVSourceLocation@23@XZ @2745
?lastSourceLocation@PropertyGetterSetter@AST@QQmlJS@@UBE?AVSourceLocation@23@XZ @2746
?lastSourceLocation@PropertyName@AST@QQmlJS@@UBE?AVSourceLocation@23@XZ @2747
?lastSourceLocation@PropertyNameAndValue@AST@QQmlJS@@UBE?AVSourceLocation@23@XZ @2748
?lastSourceLocation@RegExpLiteral@AST@QQmlJS@@UBE?AVSourceLocation@23@XZ @2749
?lastSourceLocation@ReturnStatement@AST@QQmlJS@@UBE?AVSourceLocation@23@XZ @2750
?lastSourceLocation@SourceElements@AST@QQmlJS@@UBE?AVSourceLocation@23@XZ @2751
?lastSourceLocation@StatementList@AST@QQmlJS@@UBE?AVSourceLocation@23@XZ @2752
?lastSourceLocation@StatementSourceElement@AST@QQmlJS@@UBE?AVSourceLocation@23@XZ @2753
?lastSourceLocation@StringLiteral@AST@QQmlJS@@UBE?AVSourceLocation@23@XZ @2754
?lastSourceLocation@SwitchStatement@AST@QQmlJS@@UBE?AVSourceLocation@23@XZ @2755
?lastSourceLocation@ThisExpression@AST@QQmlJS@@UBE?AVSourceLocation@23@XZ @2756
?lastSourceLocation@ThrowStatement@AST@QQmlJS@@UBE?AVSourceLocation@23@XZ @2757
?lastSourceLocation@TildeExpression@AST@QQmlJS@@UBE?AVSourceLocation@23@XZ @2758
?lastSourceLocation@TrueLiteral@AST@QQmlJS@@UBE?AVSourceLocation@23@XZ @2759
?lastSourceLocation@TryStatement@AST@QQmlJS@@UBE?AVSourceLocation@23@XZ @2760
?lastSourceLocation@TypeOfExpression@AST@QQmlJS@@UBE?AVSourceLocation@23@XZ @2761
?lastSourceLocation@UiArrayBinding@AST@QQmlJS@@UBE?AVSourceLocation@23@XZ @2762
?lastSourceLocation@UiArrayMemberList@AST@QQmlJS@@UBE?AVSourceLocation@23@XZ @2763
?lastSourceLocation@UiHeaderItemList@AST@QQmlJS@@UBE?AVSourceLocation@23@XZ @2764
?lastSourceLocation@UiImport@AST@QQmlJS@@UBE?AVSourceLocation@23@XZ @2765
?lastSourceLocation@UiObjectBinding@AST@QQmlJS@@UBE?AVSourceLocation@23@XZ @2766
?lastSourceLocation@UiObjectDefinition@AST@QQmlJS@@UBE?AVSourceLocation@23@XZ @2767
?lastSourceLocation@UiObjectInitializer@AST@QQmlJS@@UBE?AVSourceLocation@23@XZ @2768
?lastSourceLocation@UiObjectMemberList@AST@QQmlJS@@UBE?AVSourceLocation@23@XZ @2769
?lastSourceLocation@UiParameterList@AST@QQmlJS@@UBE?AVSourceLocation@23@XZ @2770
?lastSourceLocation@UiPragma@AST@QQmlJS@@UBE?AVSourceLocation@23@XZ @2771
?lastSourceLocation@UiProgram@AST@QQmlJS@@UBE?AVSourceLocation@23@XZ @2772
?lastSourceLocation@UiPublicMember@AST@QQmlJS@@UBE?AVSourceLocation@23@XZ @2773
?lastSourceLocation@UiQualifiedId@AST@QQmlJS@@UBE?AVSourceLocation@23@XZ @2774
?lastSourceLocation@UiQualifiedPragmaId@AST@QQmlJS@@UBE?AVSourceLocation@23@XZ @2775
?lastSourceLocation@UiScriptBinding@AST@QQmlJS@@UBE?AVSourceLocation@23@XZ @2776
?lastSourceLocation@UiSourceElement@AST@QQmlJS@@UBE?AVSourceLocation@23@XZ @2777
?lastSourceLocation@UnaryMinusExpression@AST@QQmlJS@@UBE?AVSourceLocation@23@XZ @2778
?lastSourceLocation@UnaryPlusExpression@AST@QQmlJS@@UBE?AVSourceLocation@23@XZ @2779
?lastSourceLocation@VariableDeclaration@AST@QQmlJS@@UBE?AVSourceLocation@23@XZ @2780
?lastSourceLocation@VariableDeclarationList@AST@QQmlJS@@UBE?AVSourceLocation@23@XZ @2781
?lastSourceLocation@VariableStatement@AST@QQmlJS@@UBE?AVSourceLocation@23@XZ @2782
?lastSourceLocation@VoidExpression@AST@QQmlJS@@UBE?AVSourceLocation@23@XZ @2783
?lastSourceLocation@WhileStatement@AST@QQmlJS@@UBE?AVSourceLocation@23@XZ @2784
?lastSourceLocation@WithStatement@AST@QQmlJS@@UBE?AVSourceLocation@23@XZ @2785
?leaveEnvironment@Codegen@QQmlJS@@IAEXXZ @2786
?leaveLoop@Codegen@QQmlJS@@IAEXXZ @2787
?leavingFunction@Debugger@Debugging@QV4@@QAEXAB_K@Z @2788
?len@SimpleArrayData@QV4@@QAEAAIXZ @2789
?len@SimpleArrayData@QV4@@QBEIXZ @2790
?length@ArrayData@QV4@@QBEIXZ @2791
?length@Data@String@QV4@@QBEHXZ @2792
?length@SimpleArrayData@QV4@@SAIPBUArrayData@2@@Z @2793
?length@SparseArrayData@QV4@@SAIPBUArrayData@2@@Z @2794
?lessEqual@Runtime@QV4@@SA_KUValueRef@2@0@Z @2795
?lessThan@Runtime@QV4@@SA_KUValueRef@2@0@Z @2796
?lex@Lexer@QQmlJS@@QAEHXZ @2797
?lexer@Engine@QQmlJS@@QBEPAVLexer@2@XZ @2798
?lifeTimeIntervals@Optimizer@IR@QV4@@QBE?AV?$QSharedPointer@VLifeTimeIntervals@IR@QV4@@@@XZ @2799
?lighter@QQmlColorProvider@@UAE?AVQVariant@@ABV2@N@Z @2800
?line@QQmlError@@QBEHXZ @2801
?lineNumber@QQmlExpression@@QBEHXZ @2802
?link@QQmlBundle@@QBEPBUFileEntry@1@PBU21@ABVQString@@@Z @2803
?linkToEngine@CompilationUnit@CompiledData@QV4@@QAEPAUFunction@3@PAUExecutionEngine@3@@Z @2804
?listChanged@QQmlVMEMetaObject@@QAEXH@Z @2805
?listElementType@QQmlListReference@@QBEPBUQMetaObject@@XZ @2806
?listModelData@QV8Engine@@QAEPAUDeletable@1@XZ @2807
?listType@QQmlEnginePrivate@@QBEHH@Z @2808
?listType@QQmlMetaType@@SAHH@Z @2809
?list_append@QQmlVMEMetaObject@@SAXPAV?$QQmlListProperty@VQObject@@@@PAVQObject@@@Z @2810
?list_at@QQmlVMEMetaObject@@SAPAVQObject@@PAV?$QQmlListProperty@VQObject@@@@H@Z @2811
?list_clear@QQmlVMEMetaObject@@SAXPAV?$QQmlListProperty@VQObject@@@@@Z @2812
?list_count@QQmlVMEMetaObject@@SAHPAV?$QQmlListProperty@VQObject@@@@@Z @2813
?load@QQmlApplicationEngine@@QAEXABVQString@@@Z @2814
?load@QQmlApplicationEngine@@QAEXABVQUrl@@@Z @2815
?load@QQmlFile@@QAEXPAVQQmlEngine@@ABVQString@@@Z @2816
?load@QQmlFile@@QAEXPAVQQmlEngine@@ABVQUrl@@@Z @2817
?loadConst@InstructionSelection@JIT@QV4@@MAEXPAUConst@IR@3@PAUExpr@53@@Z @2818
?loadConst@InstructionSelection@Moth@QV4@@MAEXPAUConst@IR@3@PAUExpr@53@@Z @2819
?loadData@QQmlApplicationEngine@@QAEXABVQByteArray@@ABVQUrl@@@Z @2820
?loadInspectorPlugins@QQmlInspectorService@@AAEXXZ @2821
?loadQmlContextObject@InstructionSelection@JIT@QV4@@MAEXPAUExpr@IR@3@@Z @2822
?loadQmlContextObject@InstructionSelection@Moth@QV4@@MAEXPAUExpr@IR@3@@Z @2823
?loadQmlIdArray@InstructionSelection@JIT@QV4@@MAEXPAUExpr@IR@3@@Z @2824
?loadQmlIdArray@InstructionSelection@Moth@QV4@@MAEXPAUExpr@IR@3@@Z @2825
?loadQmlImportedScripts@InstructionSelection@JIT@QV4@@MAEXPAUExpr@IR@3@@Z @2826
?loadQmlImportedScripts@InstructionSelection@Moth@QV4@@MAEXPAUExpr@IR@3@@Z @2827
?loadQmlScopeObject@InstructionSelection@JIT@QV4@@MAEXPAUExpr@IR@3@@Z @2828
?loadQmlScopeObject@InstructionSelection@Moth@QV4@@MAEXPAUExpr@IR@3@@Z @2829
?loadQmlSingleton@InstructionSelection@JIT@QV4@@MAEXABVQString@@PAUExpr@IR@3@@Z @2830
?loadQmlSingleton@InstructionSelection@Moth@QV4@@MAEXABVQString@@PAUExpr@IR@3@@Z @2831
?loadRegexp@InstructionSelection@JIT@QV4@@MAEXPAURegExp@IR@3@PAUExpr@53@@Z @2832
?loadRegexp@InstructionSelection@Moth@QV4@@MAEXPAURegExp@IR@3@PAUExpr@53@@Z @2833
?loadString@InstructionSelection@JIT@QV4@@MAEXABVQString@@PAUExpr@IR@3@@Z @2834
?loadString@InstructionSelection@Moth@QV4@@MAEXABVQString@@PAUExpr@IR@3@@Z @2835
?loadThisObject@InstructionSelection@JIT@QV4@@MAEXPAUExpr@IR@3@@Z @2836
?loadThisObject@InstructionSelection@Moth@QV4@@MAEXPAUExpr@IR@3@@Z @2837
?loadTranslations@QQmlApplicationEnginePrivate@@QAEXABVQUrl@@@Z @2838
?loadUrl@QQmlComponent@@QAEXABVQUrl@@@Z @2839
?loadUrl@QQmlComponent@@QAEXABVQUrl@@W4CompilationMode@1@@Z @2840
?loadUrl@QQmlComponentPrivate@@QAEXABVQUrl@@W4CompilationMode@QQmlComponent@@@Z @2841
?loc@Parser@QQmlJS@@IAEAAVSourceLocation@AST@2@H@Z @2842
?locateQmldir@QQmlImports@@QAE_NPAVQQmlImportDatabase@@ABVQString@@HHPAV3@2@Z @2843
?lookupQmlCompliantProperty@JSCodeGen@QmlIR@@AAEPAVQQmlPropertyData@@PAVQQmlPropertyCache@@ABVQString@@PA_N@Z @2844
?loopCount@QAbstractAnimationJob@@QBEHXZ @2845
?loopStartEndBlocks@Optimizer@IR@QV4@@QBE?AV?$QHash@PAUBasicBlock@IR@QV4@@PAU123@@@XZ @2846
?lowerBound@SparseArray@QV4@@QAEPAUSparseArrayNode@2@I@Z @2847
?lowerBound@SparseArray@QV4@@QBEPBUSparseArrayNode@2@I@Z @2848
?majorVersion@QQmlType@@QBEHXZ @2849
?makeIdentifier@String@QV4@@QBEXXZ @2850
?makeIdentifierImpl@String@QV4@@QBEXXZ @2851
?managed@Value@QV4@@QBEPAUManaged@2@XZ @2852
?mappedIndex@SimpleArrayData@QV4@@QBEII@Z @2853
?mappedIndex@SparseArrayData@QV4@@QBEII@Z @2854
?mark@Managed@QV4@@QAEXPAUExecutionEngine@2@@Z @2855
?mark@MemoryManager@QV4@@AAEXXZ @2856
?mark@QQmlVMEMetaObject@@QAEXPAUExecutionEngine@QV4@@@Z @2857
?mark@Value@QV4@@QBEXPAUExecutionEngine@2@@Z @2858
?markAsDeleted@QQmlData@@SAXPAVQObject@@@Z @2859
?markBit@Managed@QV4@@QBE_NXZ @2860
?markObjects@CompilationUnit@CompiledData@QV4@@QAEXPAUExecutionEngine@3@@Z @2861
?markObjects@ExecutionContext@QV4@@SAXPAUManaged@2@PAUExecutionEngine@2@@Z @2862
?markObjects@ExecutionEngine@QV4@@QAEXXZ @2863
?markObjects@FunctionObject@QV4@@SAXPAUManaged@2@PAUExecutionEngine@2@@Z @2864
?markObjects@Object@QV4@@KAXPAUManaged@2@PAUExecutionEngine@2@@Z @2865
?markObjects@QObjectWrapper@QV4@@CAXPAUManaged@2@PAUExecutionEngine@2@@Z @2866
?markObjects@QmlBindingWrapper@QV4@@SAXPAUManaged@2@PAUExecutionEngine@2@@Z @2867
?markObjects@QmlContextWrapper@QV4@@SAXPAUManaged@2@PAUExecutionEngine@2@@Z @2868
?markObjects@QmlExtensions@QV4@@QAEXPAUExecutionEngine@2@@Z @2869
?markObjects@SimpleArrayData@QV4@@SAXPAUManaged@2@PAUExecutionEngine@2@@Z @2870
?markObjects@SparseArrayData@QV4@@SAXPAUManaged@2@PAUExecutionEngine@2@@Z @2871
?markObjects@String@QV4@@KAXPAUManaged@2@PAUExecutionEngine@2@@Z @2872
?markOnce@WeakValue@QV4@@QAEXPAUExecutionEngine@2@@Z @2873
?maybeBreakAtInstruction@Debugger@Debugging@QV4@@QAEXXZ @2874
?member@Codegen@QQmlJS@@IAEPAUExpr@IR@QV4@@PAU345@PBVQString@@@Z @2875
?memberData@Object@QV4@@QAEAAUMembers@2@XZ @2876
?memberData@Object@QV4@@QBEABUMembers@2@XZ @2877
?messageReceived@QQmlDebugService@@MAEXABVQByteArray@@@Z @2878
?messageReceived@QQmlEngineDebugService@@MAEXABVQByteArray@@@Z @2879
?messageReceived@QQmlInspectorService@@MAEXABVQByteArray@@@Z @2880
?messageReceived@QQmlProfilerService@@MAEXABVQByteArray@@@Z @2881
?metaCall@QQmlOpenMetaObject@@MAEHW4Call@QMetaObject@@HPAPAX@Z @2882
?metaCall@QQmlVMEMetaObject@@MAEHW4Call@QMetaObject@@HPAPAX@Z @2883
?metaData@QQmlFile@@QBE?AVQByteArray@@ABVQString@@@Z @2884
?metaObject@DebuggerAgent@Debugging@QV4@@UBEPBUQMetaObject@@XZ @2885
?metaObject@Profiler@Profiling@QV4@@UBEPBUQMetaObject@@XZ @2886
?metaObject@QJSEngine@@UBEPBUQMetaObject@@XZ @2887
?metaObject@QQmlAbstractProfilerAdapter@@UBEPBUQMetaObject@@XZ @2888
?metaObject@QQmlAnimationTimer@@UBEPBUQMetaObject@@XZ @2889
?metaObject@QQmlApplication@@UBEPBUQMetaObject@@XZ @2890
?metaObject@QQmlApplicationEngine@@UBEPBUQMetaObject@@XZ @2891
?metaObject@QQmlComponent@@UBEPBUQMetaObject@@XZ @2892
?metaObject@QQmlComponentAttached@@UBEPBUQMetaObject@@XZ @2893
?metaObject@QQmlContext@@UBEPBUQMetaObject@@XZ @2894
?metaObject@QQmlDebugServer@@UBEPBUQMetaObject@@XZ @2895
?metaObject@QQmlDebugService@@UBEPBUQMetaObject@@XZ @2896
?metaObject@QQmlDelegateModel@@UBEPBUQMetaObject@@XZ @2897
?metaObject@QQmlDelegateModelGroup@@UBEPBUQMetaObject@@XZ @2898
?metaObject@QQmlEasingValueType@@UBEPBUQMetaObject@@XZ @2899
?metaObject@QQmlEngine@@UBEPBUQMetaObject@@XZ @2900
?metaObject@QQmlEngineDebugService@@UBEPBUQMetaObject@@XZ @2901
?metaObject@QQmlExpression@@UBEPBUQMetaObject@@XZ @2902
?metaObject@QQmlExtensionPlugin@@UBEPBUQMetaObject@@XZ @2903
?metaObject@QQmlFileSelector@@UBEPBUQMetaObject@@XZ @2904
?metaObject@QQmlInspectorService@@UBEPBUQMetaObject@@XZ @2905
?metaObject@QQmlInstanceModel@@UBEPBUQMetaObject@@XZ @2906
?metaObject@QQmlListModel@@UBEPBUQMetaObject@@XZ @2907
?metaObject@QQmlMetaObject@@QBEPBUQMetaObject@@XZ @2908
?metaObject@QQmlObjectModel@@UBEPBUQMetaObject@@XZ @2909
?metaObject@QQmlOpenMetaObjectType@@QBEPAUQMetaObject@@XZ @2910
?metaObject@QQmlPlatform@@UBEPBUQMetaObject@@XZ @2911
?metaObject@QQmlPointFValueType@@UBEPBUQMetaObject@@XZ @2912
?metaObject@QQmlPointValueType@@UBEPBUQMetaObject@@XZ @2913
?metaObject@QQmlProfilerService@@UBEPBUQMetaObject@@XZ @2914
?metaObject@QQmlPropertyCache@@QBEPBUQMetaObject@@XZ @2915
?metaObject@QQmlPropertyMap@@UBEPBUQMetaObject@@XZ @2916
?metaObject@QQmlRectFValueType@@UBEPBUQMetaObject@@XZ @2917
?metaObject@QQmlRectValueType@@UBEPBUQMetaObject@@XZ @2918
?metaObject@QQmlSizeFValueType@@UBEPBUQMetaObject@@XZ @2919
?metaObject@QQmlSizeValueType@@UBEPBUQMetaObject@@XZ @2920
?metaObject@QQmlTimer@@UBEPBUQMetaObject@@XZ @2921
?metaObject@QQmlType@@QBEPBUQMetaObject@@XZ @2922
?metaObject@QQmlValueType@@UBEPBUQMetaObject@@XZ @2923
?metaObjectForType@QQmlEnginePrivate@@QBE?AVQQmlMetaObject@@H@Z @2924
?metaObjectRevision@QQmlType@@QBEHXZ @2925
?metaTypeFromJS@QV8Engine@@QAE_NUValueRef@QV4@@HPAX@Z @2926
?metaTypeToJS@QV8Engine@@QAE_KHPBX@Z @2927
?method@QQmlProperty@@QBE?AVQMetaMethod@@XZ @2928
?method@QQmlPropertyCache@@QBEPAVQQmlPropertyData@@H@Z @2929
?method@QQmlVMEMetaObject@@QAE_KH@Z @2930
?methodCount@QQmlPropertyCache@@QBEHXZ @2931
?methodIndex@QObjectMethod@QV4@@QBEHXZ @2932
?methodIndexToSignalIndex@QQmlPropertyCache@@QBEHH@Z @2933
?methodOffset@QQmlPropertyCache@@QBEHXZ @2934
?methodOffset@QQmlVMEMetaObject@@QBEHXZ @2935
?methodParameterTypes@QQmlPropertyCache@@SAPAHPAVQObject@@HAAV?$QVarLengthArray@H$08@@PAVQByteArray@@@Z @2936
?methodReturnType@QQmlPropertyCache@@SAHPAVQObject@@ABVQQmlPropertyData@@PAVQByteArray@@@Z @2937
?method_connect@QObjectWrapper@QV4@@CA_KPAUCallContext@2@@Z @2938
?method_destroy@QObjectMethod@QV4@@QAE_KPAUExecutionContext@2@UValueRef@2@H@Z @2939
?method_disconnect@QObjectWrapper@QV4@@CA_KPAUCallContext@2@@Z @2940
?method_toString@QObjectMethod@QV4@@QAE_KPAUExecutionContext@2@@Z @2941
?method_toString@QmlValueTypeWrapper@QV4@@SA_KPAUCallContext@2@@Z @2942
?midRef@Engine@QQmlJS@@QAE?AVQStringRef@@HH@Z @2943
?minorVersion@QQmlType@@QBEHXZ @2944
?mod@Runtime@QV4@@SA_KUValueRef@2@0@Z @2945
?model@QQmlDelegateModel@@QBE?AVQVariant@@XZ @2946
?modelIndex@QQmlDelegateModel@@QBE?AVQVariant@@H@Z @2947
?modelUpdated@QQmlInstanceModel@@QAEXABVQQmlChangeSet@@_N@Z @2948
?module@QQmlType@@QBEABVQHashedString@@XZ @2949
?move@Codegen@QQmlJS@@IAEPAUStmt@IR@QV4@@PAUExpr@45@0W4AluOp@45@@Z @2950
?move@QQmlChangeSet@@QAEXABV?$QVector@UChange@QQmlChangeSet@@@@0@Z @2951
?move@QQmlChangeSet@@QAEXHHHH@Z @2952
?move@QQmlDelegateModelGroup@@QAEXPAVQQmlV4Function@@@Z @2953
?move@QQmlListModel@@QAEXHHH@Z @2954
?mul@Runtime@QV4@@SA_KUValueRef@2@0@Z @2955
?nEntries@SparseArray@QV4@@QBEIXZ @2956
?name@Function@QV4@@QAEPAUString@2@XZ @2957
?name@FunctionObject@QV4@@QAE_KXZ @2958
?name@QJSValueIterator@@QBE?AVQString@@XZ @2959
?name@QQmlApplication@@QBE?AVQString@@XZ @2960
?name@QQmlDebugService@@QBE?AVQString@@XZ @2961
?name@QQmlDelegateModelGroup@@QBE?AVQString@@XZ @2962
?name@QQmlOpenMetaObject@@QBE?AVQByteArray@@H@Z @2963
?name@QQmlProperty@@QBE?AVQString@@XZ @2964
?nameChanged@QQmlApplication@@QAEXXZ @2965
?nameChanged@QQmlDelegateModelGroup@@QAEXXZ @2966
?nameForObject@QQmlContext@@QBE?AVQString@@PAVQObject@@@Z @2967
?namespaceContainsRegistrations@QQmlMetaType@@SA_NABVQString@@@Z @2968
?needsActivation@Function@QV4@@QBE_NXZ @2969
?needsActivation@FunctionObject@QV4@@QBE_NXZ @2970
?needsNotifySignal@QQmlProperty@@QBE_NXZ @2971
?networkAccessManager@QQmlEngine@@QBEPAVQNetworkAccessManager@@XZ @2972
?networkAccessManager@QV8Engine@@UAEPAVQNetworkAccessManager@@XZ @2973
?networkAccessManagerFactory@QQmlEngine@@QBEPAVQQmlNetworkAccessManagerFactory@@XZ @2974
?networkError@QQmlDataBlob@@MAEXW4NetworkError@QNetworkReply@@@Z @2975
?newArray@QJSEngine@@QAE?AVQJSValue@@I@Z @2976
?newArrayObject@ExecutionEngine@QV4@@QAEPAU?$Returned@UArrayObject@QV4@@@2@ABVQStringList@@@Z @2977
?newArrayObject@ExecutionEngine@QV4@@QAEPAU?$Returned@UArrayObject@QV4@@@2@H@Z @2978
?newArrayObject@ExecutionEngine@QV4@@QAEPAU?$Returned@UArrayObject@QV4@@@2@PAUInternalClass@2@@Z @2979
?newBooleanObject@ExecutionEngine@QV4@@QAEPAU?$Returned@UObject@QV4@@@2@UValueRef@2@@Z @2980
?newCallContext@ExecutionContext@QV4@@QAEPAUHeapObject@2@PAUFunctionObject@2@PAUCallData@2@@Z @2981
?newCatchContext@ExecutionContext@QV4@@QAEPAUCatchContext@2@PAUString@2@UValueRef@2@@Z @2982
?newClass@ExecutionEngine@QV4@@QAEPAUInternalClass@2@ABU32@@Z @2983
?newDateObject@ExecutionEngine@QV4@@QAEPAU?$Returned@UDateObject@QV4@@@2@ABVQDateTime@@@Z @2984
?newDateObject@ExecutionEngine@QV4@@QAEPAU?$Returned@UDateObject@QV4@@@2@UValueRef@2@@Z @2985
?newEnvironment@Codegen@QQmlJS@@IAEPAUEnvironment@12@PAVNode@AST@2@PAU312@W4CompilationMode@12@@Z @2986
?newErrorObject@ExecutionEngine@QV4@@QAEPAU?$Returned@UObject@QV4@@@2@UValueRef@2@@Z @2987
?newForEachIteratorObject@ExecutionEngine@QV4@@QAEPAU?$Returned@UObject@QV4@@@2@PAUExecutionContext@2@PAUObject@2@@Z @2988
?newFunction@Module@IR@QV4@@QAEPAUFunction@23@ABVQString@@PAU423@@Z @2989
?newIdentifier@ExecutionEngine@QV4@@QAEPAUString@2@ABVQString@@@Z @2990
?newInstance@FunctionObject@QV4@@QAE_KXZ @2991
?newNumberObject@ExecutionEngine@QV4@@QAEPAU?$Returned@UObject@QV4@@@2@UValueRef@2@@Z @2992
?newObject@ExecutionEngine@QV4@@QAEPAU?$Returned@UObject@QV4@@@2@PAUInternalClass@2@@Z @2993
?newObject@ExecutionEngine@QV4@@QAEPAU?$Returned@UObject@QV4@@@2@XZ @2994
?newObject@QJSEngine@@QAE?AVQJSValue@@XZ @2995
?newQObject@QJSEngine@@QAE?AVQJSValue@@PAVQObject@@@Z @2996
?newQmlContext@ExecutionContext@QV4@@QAEPAUCallContext@2@PAUFunctionObject@2@PAUObject@2@@Z @2997
?newRangeErrorObject@ExecutionEngine@QV4@@QAEPAU?$Returned@UObject@QV4@@@2@ABVQString@@@Z @2998
?newReferenceErrorObject@ExecutionEngine@QV4@@QAEPAU?$Returned@UObject@QV4@@@2@ABVQString@@0HH@Z @2999
?newReferenceErrorObject@ExecutionEngine@QV4@@QAEPAU?$Returned@UObject@QV4@@@2@ABVQString@@@Z @3000
?newRegExpObject@ExecutionEngine@QV4@@QAEPAU?$Returned@URegExpObject@QV4@@@2@ABVQRegExp@@@Z @3001
?newRegExpObject@ExecutionEngine@QV4@@QAEPAU?$Returned@URegExpObject@QV4@@@2@ABVQString@@H@Z @3002
?newRegExpObject@ExecutionEngine@QV4@@QAEPAU?$Returned@URegExpObject@QV4@@@2@PAURegExp@2@_N@Z @3003
?newString@ExecutionEngine@QV4@@QAEPAU?$Returned@UString@QV4@@@2@ABVQString@@@Z @3004
?newStringObject@ExecutionEngine@QV4@@QAEPAU?$Returned@UObject@QV4@@@2@UValueRef@2@@Z @3005
?newStringRef@Engine@QQmlJS@@QAE?AVQStringRef@@ABVQString@@@Z @3006
?newStringRef@Engine@QQmlJS@@QAE?AVQStringRef@@PBVQChar@@H@Z @3007
?newSyntaxErrorObject@ExecutionEngine@QV4@@QAEPAU?$Returned@UObject@QV4@@@2@ABVQString@@0HH@Z @3008
?newSyntaxErrorObject@ExecutionEngine@QV4@@QAEPAU?$Returned@UObject@QV4@@@2@ABVQString@@@Z @3009
?newTypeErrorObject@ExecutionEngine@QV4@@QAEPAU?$Returned@UObject@QV4@@@2@ABVQString@@@Z @3010
?newURIErrorObject@ExecutionEngine@QV4@@QAEPAU?$Returned@UObject@QV4@@@2@UValueRef@2@@Z @3011
?newVariantObject@ExecutionEngine@QV4@@QAEPAU?$Returned@UObject@QV4@@@2@ABVQVariant@@@Z @3012
?newWithContext@ExecutionContext@QV4@@QAEPAUWithContext@2@PAUObject@2@@Z @3013
?newpage@QQmlPool@@AAEXXZ @3014
?next@ObjectIterator@QV4@@QAEXAAPAUString@2@PAIPAUProperty@2@PAUPropertyAttributes@2@@Z @3015
?next@QJSValueIterator@@QAE_NXZ @3016
?nextBinding@QQmlAbstractBinding@@ABEPAV1@XZ @3017
?nextFree@Managed@QV4@@QAEPAU12@XZ @3018
?nextFreeRef@Managed@QV4@@QAEPAPAU12@XZ @3019
?nextPropertyName@ObjectIterator@QV4@@QAE_KUValueRef@2@@Z @3020
?nextPropertyNameAsString@ObjectIterator@QV4@@QAE_KUValueRef@2@@Z @3021
?nextPropertyNameAsString@ObjectIterator@QV4@@QAE_KXZ @3022
?nextSibling@QAbstractAnimationJob@@QBEPAV1@XZ @3023
?noCreationReason@QQmlType@@QBE?AVQString@@XZ @3024
?notEqual@Runtime@QV4@@SA_KUValueRef@2@0@Z @3025
?notify@QQmlData@@QAEPAVQQmlNotifierEndpoint@@H@Z @3026
?notify@QQmlNotifier@@QAEXXZ @3027
?notifyAllWaitingOnMe@QQmlDataBlob@@AAEXXZ @3028
?notifyComplete@QQmlDataBlob@@AAEXPAV1@@Z @3029
?notifyOnValueChanged@QQmlExpression@@QBE_NXZ @3030
?nullValue@Primitive@QV4@@SA?AU12@XZ @3031
?numberLiteral@QQmlScriptString@@QBENPA_N@Z @3032
?numberToString@RuntimeHelpers@QV4@@SAXPAVQString@@NH@Z @3033
?object@QObjectMethod@QV4@@QBEPAVQObject@@XZ @3034
?object@QObjectWrapper@QV4@@QBEPAVQObject@@XZ @3035
?object@QQmlAbstractBinding@@QBEPAVQObject@@XZ @3036
?object@QQmlBinding@@QBEPAVQObject@@XZ @3037
?object@QQmlBinding@@SAPAVQObject@@PBVQQmlAbstractBinding@@@Z @3038
?object@QQmlDelegateModel@@UAEPAVQObject@@H_N@Z @3039
?object@QQmlError@@QBEPAVQObject@@XZ @3040
?object@QQmlIncubator@@QBEPAVQObject@@XZ @3041
?object@QQmlListReference@@QBEPAVQObject@@XZ @3042
?object@QQmlObjectModel@@UAEPAVQObject@@H_N@Z @3043
?object@QQmlOpenMetaObject@@QBEPAVQObject@@XZ @3044
?object@QQmlProperty@@QBEPAVQObject@@XZ @3045
?objectCreated@QQmlApplicationEngine@@QAEXPAVQObject@@ABVQUrl@@@Z @3046
?objectCreated@QQmlEngineDebugService@@QAEXPAVQQmlEngine@@PAVQObject@@@Z @3047
?objectData@QQmlEngineDebugService@@AAE?AUQQmlObjectData@1@PAVQObject@@@Z @3048
?objectDefaultValue@RuntimeHelpers@QV4@@SA_KPAUObject@2@H@Z @3049
?objectForId@QQmlDebugService@@SAPAVQObject@@H@Z @3050
?objectForLocationInfo@QQmlDebugService@@SA?AV?$QList@PAVQObject@@@@ABVQString@@HH@Z @3051
?objectLiteral@Runtime@QV4@@SA_KPAUExecutionContext@2@PBUValue@2@HHH@Z @3052
?objectOwnership@QQmlEngine@@SA?AW4ObjectOwnership@1@PAVQObject@@@Z @3053
?objectToString@QQmlDebugService@@SA?AVQString@@PAVQObject@@@Z @3054
?objectToVariant@QV8Engine@@QAE?AVQVariant@@PAUObject@QV4@@PAV?$QSet@PAUObject@QV4@@@@@Z @3055
?objectValue@Value@QV4@@QBEPAUObject@2@XZ @3056
?offlineStoragePath@QQmlEngine@@QBE?AVQString@@XZ @3057
?onLoad@QQmlValueType@@UAEXXZ @3058
?open@QQmlBundle@@QAE_NV?$QFlags@W4OpenModeFlag@QIODevice@@@@@Z @3059
?openUrlExternally@QQmlGuiProvider@@UAE_NAAVQUrl@@@Z @3060
?organization@QQmlApplication@@QBE?AVQString@@XZ @3061
?organizationChanged@QQmlApplication@@QAEXXZ @3062
?originalClone@QQmlPropertyCache@@QAEHH@Z @3063
?originalClone@QQmlPropertyCache@@SAHPAVQObject@@H@Z @3064
?os@QQmlPlatform@@SA?AVQString@@XZ @3065
?outgoingArgumentTempStart@InstructionSelection@Moth@QV4@@ABEHXZ @3066
?outputWarningsToStandardError@QQmlEngine@@QBE_NXZ @3067
?overrideData@QQmlPropertyCache@@QBEPAVQQmlPropertyData@@PAV2@@Z @3068
?overshoot@QQmlEasingValueType@@QBENXZ @3069
?parent@QQmlOpenMetaObject@@IBEPAUQAbstractDynamicMetaObject@@XZ @3070
?parent@QQmlPropertyCache@@QBEPAV1@XZ @3071
?parentChanged@QQmlData@@QAEXPAVQObject@@0@Z @3072
?parentChanged@QQmlData@@SAXPAVQAbstractDeclarativeData@@PAVQObject@@1@Z @3073
?parentContext@QQmlContext@@QBEPAV1@XZ @3074
?parentFunctions@QQmlMetaType@@SA?AV?$QList@P6A?AW4AutoParentResult@QQmlPrivate@@PAVQObject@@0@Z@@XZ @3075
?parentModelIndex@QQmlDelegateModel@@QBE?AVQVariant@@XZ @3076
?parentVMEMetaObject@QQmlVMEMetaObject@@QBEPAV1@XZ @3077
?parse@Parser@QQmlJS@@IAE_NH@Z @3078
?parse@Parser@QQmlJS@@QAE_NXZ @3079
?parse@QQmlDirParser@@QAE_NABVQString@@@Z @3080
?parse@Script@QV4@@QAEXXZ @3081
?parseExpression@Parser@QQmlJS@@QAE_NXZ @3082
?parseProgram@Parser@QQmlJS@@QAE_NXZ @3083
?parseSourceElement@Parser@QQmlJS@@QAE_NXZ @3084
?parseStatement@Parser@QQmlJS@@QAE_NXZ @3085
?parseUiObjectMember@Parser@QQmlJS@@QAE_NXZ @3086
?parserStatusCast@QQmlType@@QBEHXZ @3087
?parts@QQmlDelegateModel@@QAEPAVQObject@@XZ @3088
?patchJumpAddresses@InstructionSelection@Moth@QV4@@AAEXXZ @3089
?pause@Debugger@Debugging@QV4@@QAEXXZ @3090
?pause@DebuggerAgent@Debugging@QV4@@QBEXPAVDebugger@23@@Z @3091
?pause@QAbstractAnimationJob@@QAEXXZ @3092
?pauseAll@DebuggerAgent@Debugging@QV4@@QBEXXZ @3093
?pauseAndWait@Debugger@Debugging@QV4@@AAEXW4PauseReason@23@@Z @3094
?pauseAtNextOpportunity@Debugger@Debugging@QV4@@QBE_NXZ @3095
?period@QQmlEasingValueType@@QBENXZ @3096
?persistedItems@QQmlDelegateModel@@QAEPAVQQmlDelegateModelGroup@@XZ @3097
?pluginPathList@QQmlEngine@@QBE?AVQStringList@@XZ @3098
?plugins@QQmlDirParser@@QBE?AV?$QList@UPlugin@QQmlDirParser@@@@XZ @3099
?pointFFromString@QQmlStringConverters@@YA?AVQPointF@@ABVQString@@PA_N@Z @3100
?pool@Engine@QQmlJS@@QAEPAVMemoryPool@2@XZ @3101
?popContext@ExecutionEngine@QV4@@QAEPAUExecutionContext@2@XZ @3102
?popExceptionHandler@Codegen@QQmlJS@@IAEXXZ @3103
?popForGC@ExecutionEngine@QV4@@QAEPAUManaged@2@XZ @3104
?popScope@Runtime@QV4@@SAPAUExecutionContext@2@PAU32@@Z @3105
?pop_back@SparseArray@QV4@@QAEII@Z @3106
?pop_front@SimpleArrayData@QV4@@SA_KPAUObject@2@@Z @3107
?pop_front@SparseArray@QV4@@QAEIXZ @3108
?pop_front@SparseArrayData@QV4@@SA_KPAUObject@2@@Z @3109
?populateCache@QQmlImports@@QBEXPAVQQmlTypeNameCache@@@Z @3110
?postVisit@Visitor@AST@QQmlJS@@UAEXPAVNode@23@@Z @3111
?pragmaLibrary@Directives@QQmlJS@@UAEXXZ @3112
?preVisit@Visitor@AST@QQmlJS@@UAE_NPAVNode@23@@Z @3113
?precompile@Script@QV4@@SA?AV?$QQmlRefPointer@UCompilationUnit@CompiledData@QV4@@@@PAUModule@IR@2@PAUJSUnitGenerator@Compiler@2@PAUExecutionEngine@2@ABVQUrl@@ABVQString@@PAV?$QList@VQQmlError@@@@@Z @3114
?prepareCallArgs@InstructionSelection@Moth@QV4@@AAEXPAUExprList@IR@3@AAIPAI@Z @3115
?prepareCallData@InstructionSelection@JIT@QV4@@AAEHPAUExprList@IR@3@PAUExpr@53@@Z @3116
?prepareDeferredObjects@QQmlEngineDebugService@@AAEXPAVQObject@@@Z @3117
?prepareVariableArguments@InstructionSelection@JIT@QV4@@AAEHPAUExprList@IR@3@@Z @3118
?prependAnimation@QAnimationGroupJob@@QAEXPAVQAbstractAnimationJob@@@Z @3119
?prevTerminator@Lexer@QQmlJS@@QBE_NXZ @3120
?previousSibling@QAbstractAnimationJob@@QBEPAV1@XZ @3121
?printBindingLoopError@QQmlAbstractBinding@@SAXAAVQQmlProperty@@@Z @3122
?processMessage@QQmlEngineDebugService@@AAEXABVQByteArray@@@Z @3123
?processMessage@QQmlInspectorService@@AAEXABVQByteArray@@@Z @3124
?profilingDisabled@QQmlAbstractProfilerAdapter@@QAEXXZ @3125
?profilingDisabledWhileWaiting@QQmlAbstractProfilerAdapter@@QAEXXZ @3126
?profilingEnabled@QQmlAbstractProfilerAdapter@@QAEX_K@Z @3127
?profilingEnabledWhileWaiting@QQmlAbstractProfilerAdapter@@QAEX_K@Z @3128
?program@Codegen@QQmlJS@@IAEXPAVProgram@AST@2@@Z @3129
?progress@QQmlComponent@@QBENXZ @3130
?progress@QQmlDataBlob@@QBENXZ @3131
?progressChanged@QQmlComponent@@QAEXN@Z @3132
?propOffset@QQmlVMEMetaObject@@QBEHXZ @3133
?property@PropertyResolver@QmlIR@@QAEPAVQQmlPropertyData@@ABVQString@@PA_NPAVQObject@@PAVQQmlContextData@@@Z @3134
?property@PropertyResolver@QmlIR@@QAEPAVQQmlPropertyData@@H@Z @3135
?property@QJSValue@@QBE?AV1@ABVQString@@@Z @3136
?property@QJSValue@@QBE?AV1@I@Z @3137
?property@QQmlBinding@@QBE?AVQQmlProperty@@XZ @3138
?property@QQmlProperty@@QBE?AVQMetaProperty@@XZ @3139
?property@QQmlPropertyCache@@QBEPAVQQmlPropertyData@@H@Z @3140
?property@QQmlPropertyCache@@SAPAVQQmlPropertyData@@PAVQQmlEngine@@PAVQObject@@ABVQString@@PAVQQmlContextData@@AAV2@@Z @3141
?property@QQmlPropertyCache@@SAPAVQQmlPropertyData@@PAVQQmlEngine@@PAVQObject@@PBUString@QV4@@PAVQQmlContextData@@AAV2@@Z @3142
?propertyAt@Object@QV4@@QBEPAUProperty@2@I@Z @3143
?propertyCache@QQmlMetaObject@@QBEPAVQQmlPropertyCache@@PAVQQmlEnginePrivate@@@Z @3144
?propertyCache@QQmlVMEMetaObject@@QBEPAVQQmlPropertyCache@@XZ @3145
?propertyCacheForType@QQmlEnginePrivate@@QAEPAVQQmlPropertyCache@@H@Z @3146
?propertyChanged@QQmlEngineDebugService@@AAEXHHABVQMetaProperty@@ABVQVariant@@@Z @3147
?propertyCount@Object@QmlIR@@QBEHXZ @3148
?propertyCount@QQmlMetaObject@@QBEHXZ @3149
?propertyCount@QQmlOpenMetaObjectType@@QBEHXZ @3150
?propertyCount@QQmlPropertyCache@@QBEHXZ @3151
?propertyCreated@QQmlOpenMetaObject@@MAEXHAAVQMetaPropertyBuilder@@@Z @3152
?propertyCreated@QQmlOpenMetaObjectType@@MAEXHAAVQMetaPropertyBuilder@@@Z @3153
?propertyData@QQmlEngineDebugService@@AAE?AUQQmlObjectProperty@1@PAVQObject@@H@Z @3154
?propertyIndex@QQmlAbstractBinding@@QBEHXZ @3155
?propertyIndex@QQmlBinding@@QBEHXZ @3156
?propertyIndex@QQmlBinding@@SAHPBVQQmlAbstractBinding@@@Z @3157
?propertyName@QQmlOpenMetaObjectType@@QBE?AVQByteArray@@H@Z @3158
?propertyNames@QQmlPropertyCache@@QBE?AVQStringList@@XZ @3159
?propertyOffset@QQmlOpenMetaObjectType@@QBEHXZ @3160
?propertyOffset@QQmlPropertyCache@@QBEHXZ @3161
?propertyRead@QQmlOpenMetaObject@@MAEXH@Z @3162
?propertyType@QQmlProperty@@QBEHXZ @3163
?propertyType@QQmlPropertyPrivate@@QBEHXZ @3164
?propertyTypeCategory@QQmlProperty@@QBE?AW4PropertyTypeCategory@1@XZ @3165
?propertyTypeCategory@QQmlPropertyPrivate@@QBE?AW4PropertyTypeCategory@QQmlProperty@@XZ @3166
?propertyTypeName@QQmlProperty@@QBEPBDXZ @3167
?propertyValueInterceptorCast@QQmlType@@QBEHXZ @3168
?propertyValueSourceCast@QQmlType@@QBEHXZ @3169
?propertyWrite@QQmlOpenMetaObject@@MAEXH@Z @3170
?propertyWriteValue@QQmlOpenMetaObject@@MAE?AVQVariant@@HABV2@@Z @3171
?propertyWritten@QQmlOpenMetaObject@@MAEXH@Z @3172
?protectNamespace@QQmlMetaType@@SAXABVQString@@@Z @3173
?protoHasArray@Object@QV4@@QAE_NXZ @3174
?protoProperty@FunctionObject@QV4@@QAE_KXZ @3175
?prototype@Object@QV4@@QBEPAU12@XZ @3176
?prototype@QJSValue@@QBE?AV1@XZ @3177
?publicEngine@QV8Engine@@QAEPAVQJSEngine@@XZ @3178
?pushCatchScope@Runtime@QV4@@SAPAUExecutionContext@2@PAU32@PAUString@2@@Z @3179
?pushContext@ExecutionEngine@QV4@@QAEXPAUCallContext@2@@Z @3180
?pushExceptionHandler@Codegen@QQmlJS@@IAEXPAUBasicBlock@IR@QV4@@@Z @3181
?pushForGC@ExecutionEngine@QV4@@QAEXPAUManaged@2@@Z @3182
?pushGlobalContext@ExecutionEngine@QV4@@QAEPAUExecutionContext@2@XZ @3183
?pushWithScope@Runtime@QV4@@SAPAUExecutionContext@2@UValueRef@2@PAU32@@Z @3184
?push_back@Object@QV4@@QAEXUValueRef@2@@Z @3185
?push_back@SparseArray@QV4@@QAEXII@Z @3186
?push_front@SimpleArrayData@QV4@@SAXPAUObject@2@PAUValue@2@I@Z @3187
?push_front@SparseArray@QV4@@QAEXI@Z @3188
?push_front@SparseArrayData@QV4@@SAXPAUObject@2@PAUValue@2@I@Z @3189
?put@Object@QV4@@KAXPAUManaged@2@PAUString@2@UValueRef@2@@Z @3190
?put@Object@QV4@@QAEXPAUExecutionContext@2@ABVQString@@UValueRef@2@@Z @3191
?put@Object@QV4@@QAEXPAUString@2@UValueRef@2@@Z @3192
?put@QObjectWrapper@QV4@@CAXPAUManaged@2@PAUString@2@UValueRef@2@@Z @3193
?put@QmlContextWrapper@QV4@@SAXPAUManaged@2@PAUString@2@UValueRef@2@@Z @3194
?put@QmlListWrapper@QV4@@SAXPAUManaged@2@PAUString@2@UValueRef@2@@Z @3195
?put@QmlTypeWrapper@QV4@@SAXPAUManaged@2@PAUString@2@UValueRef@2@@Z @3196
?put@QmlValueTypeWrapper@QV4@@SAXPAUManaged@2@PAUString@2@UValueRef@2@@Z @3197
?put@SimpleArrayData@QV4@@SA_NPAUObject@2@IUValueRef@2@@Z @3198
?put@SparseArrayData@QV4@@SA_NPAUObject@2@IUValueRef@2@@Z @3199
?put@String@QV4@@KAXPAUManaged@2@PAU12@UValueRef@2@@Z @3200
?putArray@SimpleArrayData@QV4@@SA_NPAUObject@2@IPAUValue@2@I@Z @3201
?putArray@SparseArrayData@QV4@@SA_NPAUObject@2@IPAUValue@2@I@Z @3202
?putIndexed@Object@QV4@@KAXPAUManaged@2@IUValueRef@2@@Z @3203
?putIndexed@Object@QV4@@QAEXIUValueRef@2@@Z @3204
?putIndexed@String@QV4@@KAXPAUManaged@2@IUValueRef@2@@Z @3205
?putValue@Object@QV4@@QAEXPAUProperty@2@UPropertyAttributes@2@UValueRef@2@@Z @3206
?qListTypeId@QQmlType@@QBEHXZ @3207
?q_func@QQmlApplicationEnginePrivate@@AAEPAVQQmlApplicationEngine@@XZ @3208
?q_func@QQmlApplicationEnginePrivate@@ABEPBVQQmlApplicationEngine@@XZ @3209
?q_func@QQmlComponentPrivate@@AAEPAVQQmlComponent@@XZ @3210
?q_func@QQmlComponentPrivate@@ABEPBVQQmlComponent@@XZ @3211
?q_func@QQmlEnginePrivate@@AAEPAVQQmlEngine@@XZ @3212
?q_func@QQmlEnginePrivate@@ABEPBVQQmlEngine@@XZ @3213
?q_func@QQmlFileSelectorPrivate@@AAEPAVQQmlFileSelector@@XZ @3214
?q_func@QQmlFileSelectorPrivate@@ABEPBVQQmlFileSelector@@XZ @3215
?qdeclarativeelement_destructor@QQmlPrivate@@YAXPAVQObject@@@Z @3216
?qmlAllTypes@QQmlMetaType@@SA?AV?$QList@PAVQQmlType@@@@XZ @3217
?qmlAttachedProperties@QQmlComponent@@SAPAVQQmlComponentAttached@@PAVQObject@@@Z @3218
?qmlAttachedProperties@QQmlDelegateModel@@SAPAVQQmlDelegateModelAttached@@PAVQObject@@@Z @3219
?qmlAttachedProperties@QQmlObjectModel@@SAPAVQQmlObjectModelAttached@@PAVQObject@@@Z @3220
?qmlAttachedPropertiesObject@@YAPAVQObject@@PAHPBV1@PBUQMetaObject@@_N@Z @3221
?qmlAttachedPropertiesObject@QtQml@@YAPAVQObject@@PAHPBV2@PBUQMetaObject@@_N@Z @3222
?qmlAttachedPropertiesObjectById@@YAPAVQObject@@HPBV1@_N@Z @3223
?qmlAttachedPropertiesObjectById@QtQml@@YAPAVQObject@@HPBV2@_N@Z @3224
?qmlBinding@Script@QV4@@QAE_KXZ @3225
?qmlClearTypeRegistrations@@YAXXZ @3226
?qmlContext@@YAPAVQQmlContext@@PBVQObject@@@Z @3227
?qmlContext@QtQml@@YAPAVQQmlContext@@PBVQObject@@@Z @3228
?qmlContextObject@ExecutionEngine@QV4@@QBEPAU?$Returned@UObject@QV4@@@2@XZ @3229
?qmlEngine@@YAPAVQQmlEngine@@PBVQObject@@@Z @3230
?qmlEngine@QQmlPropertyCache@@QBEPAVQQmlEngine@@XZ @3231
?qmlEngine@QtQml@@YAPAVQQmlEngine@@PBVQObject@@@Z @3232
?qmlErrors@Codegen@QQmlJS@@QBE?AV?$QList@VQQmlError@@@@XZ @3233
?qmlExecuteDeferred@@YAXPAVQObject@@@Z @3234
?qmlExecuteDeferred@QtQml@@YAXPAVQObject@@@Z @3235
?qmlExtensions@ExecutionEngine@QV4@@QAEPAUQmlExtensions@2@XZ @3236
?qmlInfo@QtQml@@YA?AVQQmlInfo@@PBVQObject@@@Z @3237
?qmlInfo@QtQml@@YA?AVQQmlInfo@@PBVQObject@@ABV?$QList@VQQmlError@@@@@Z @3238
?qmlInfo@QtQml@@YA?AVQQmlInfo@@PBVQObject@@ABVQQmlError@@@Z @3239
?qmlMode@Lexer@QQmlJS@@QBE_NXZ @3240
?qmlProtectModule@@YA_NPBDH@Z @3241
?qmlRegisterBaseTypes@@YAXPBDHH@Z @3242
?qmlRegisterTypeNotAvailable@@YAHPBDHH0ABVQString@@@Z @3243
?qmlScope@QmlContextWrapper@QV4@@SA_KPAVQV8Engine@@PAVQQmlContextData@@PAVQObject@@@Z @3244
?qmlSingletonTypes@QQmlMetaType@@SA?AV?$QList@PAVQQmlType@@@@XZ @3245
?qmlSingletonWrapper@QmlContextWrapper@QV4@@QAE_KPAVQV8Engine@@PAUString@2@@Z @3246
?qmlType@QQmlMetaType@@SAPAVQQmlType@@ABVQHashedStringRef@@0HH@Z @3247
?qmlType@QQmlMetaType@@SAPAVQQmlType@@ABVQString@@HH@Z @3248
?qmlType@QQmlMetaType@@SAPAVQQmlType@@ABVQUrl@@_N@Z @3249
?qmlType@QQmlMetaType@@SAPAVQQmlType@@H@Z @3250
?qmlType@QQmlMetaType@@SAPAVQQmlType@@PBUQMetaObject@@@Z @3251
?qmlType@QQmlMetaType@@SAPAVQQmlType@@PBUQMetaObject@@ABVQHashedStringRef@@HH@Z @3252
?qmlTypeFromIndex@QQmlMetaType@@SAPAVQQmlType@@H@Z @3253
?qmlTypeName@QQmlType@@QBEABVQString@@XZ @3254
?qmlTypeNames@QQmlMetaType@@SA?AV?$QList@VQString@@@@XZ @3255
?qmlTypes@QQmlMetaType@@SA?AV?$QList@PAVQQmlType@@@@XZ @3256
?qml_debugging_enabled@QQmlEnginePrivate@@2_NA @3257
?qmldirDataAvailable@Blob@QQmlTypeLoader@@EAE_NPAVQQmlQmldirData@@PAV?$QList@VQQmlError@@@@@Z @3258
?qmlregister@QQmlPrivate@@YAHW4RegistrationType@1@PAX@Z @3259
?qobjectApi@SingletonInstanceInfo@QQmlType@@QBEPAVQObject@@PAVQQmlEngine@@@Z @3260
?qtObjectFromJS@QV8Engine@@QAEPAVQObject@@UValueRef@QV4@@@Z @3261
?qt_metacall@DebuggerAgent@Debugging@QV4@@UAEHW4Call@QMetaObject@@HPAPAX@Z @3262
?qt_metacall@Profiler@Profiling@QV4@@UAEHW4Call@QMetaObject@@HPAPAX@Z @3263
?qt_metacall@QJSEngine@@UAEHW4Call@QMetaObject@@HPAPAX@Z @3264
?qt_metacall@QQmlAbstractProfilerAdapter@@UAEHW4Call@QMetaObject@@HPAPAX@Z @3265
?qt_metacall@QQmlAnimationTimer@@UAEHW4Call@QMetaObject@@HPAPAX@Z @3266
?qt_metacall@QQmlApplication@@UAEHW4Call@QMetaObject@@HPAPAX@Z @3267
?qt_metacall@QQmlApplicationEngine@@UAEHW4Call@QMetaObject@@HPAPAX@Z @3268
?qt_metacall@QQmlComponent@@UAEHW4Call@QMetaObject@@HPAPAX@Z @3269
?qt_metacall@QQmlComponentAttached@@UAEHW4Call@QMetaObject@@HPAPAX@Z @3270
?qt_metacall@QQmlContext@@UAEHW4Call@QMetaObject@@HPAPAX@Z @3271
?qt_metacall@QQmlDebugServer@@UAEHW4Call@QMetaObject@@HPAPAX@Z @3272
?qt_metacall@QQmlDebugService@@UAEHW4Call@QMetaObject@@HPAPAX@Z @3273
?qt_metacall@QQmlDelegateModel@@UAEHW4Call@QMetaObject@@HPAPAX@Z @3274
?qt_metacall@QQmlDelegateModelGroup@@UAEHW4Call@QMetaObject@@HPAPAX@Z @3275
?qt_metacall@QQmlEasingValueType@@UAEHW4Call@QMetaObject@@HPAPAX@Z @3276
?qt_metacall@QQmlEngine@@UAEHW4Call@QMetaObject@@HPAPAX@Z @3277
?qt_metacall@QQmlEngineDebugService@@UAEHW4Call@QMetaObject@@HPAPAX@Z @3278
?qt_metacall@QQmlExpression@@UAEHW4Call@QMetaObject@@HPAPAX@Z @3279
?qt_metacall@QQmlExtensionPlugin@@UAEHW4Call@QMetaObject@@HPAPAX@Z @3280
?qt_metacall@QQmlFileSelector@@UAEHW4Call@QMetaObject@@HPAPAX@Z @3281
?qt_metacall@QQmlInspectorService@@UAEHW4Call@QMetaObject@@HPAPAX@Z @3282
?qt_metacall@QQmlInstanceModel@@UAEHW4Call@QMetaObject@@HPAPAX@Z @3283
?qt_metacall@QQmlListModel@@UAEHW4Call@QMetaObject@@HPAPAX@Z @3284
?qt_metacall@QQmlObjectModel@@UAEHW4Call@QMetaObject@@HPAPAX@Z @3285
?qt_metacall@QQmlPlatform@@UAEHW4Call@QMetaObject@@HPAPAX@Z @3286
?qt_metacall@QQmlPointFValueType@@UAEHW4Call@QMetaObject@@HPAPAX@Z @3287
?qt_metacall@QQmlPointValueType@@UAEHW4Call@QMetaObject@@HPAPAX@Z @3288
?qt_metacall@QQmlProfilerService@@UAEHW4Call@QMetaObject@@HPAPAX@Z @3289
?qt_metacall@QQmlPropertyMap@@UAEHW4Call@QMetaObject@@HPAPAX@Z @3290
?qt_metacall@QQmlRectFValueType@@UAEHW4Call@QMetaObject@@HPAPAX@Z @3291
?qt_metacall@QQmlRectValueType@@UAEHW4Call@QMetaObject@@HPAPAX@Z @3292
?qt_metacall@QQmlSizeFValueType@@UAEHW4Call@QMetaObject@@HPAPAX@Z @3293
?qt_metacall@QQmlSizeValueType@@UAEHW4Call@QMetaObject@@HPAPAX@Z @3294
?qt_metacall@QQmlTimer@@UAEHW4Call@QMetaObject@@HPAPAX@Z @3295
?qt_metacall@QQmlValueType@@UAEHW4Call@QMetaObject@@HPAPAX@Z @3296
?qt_metacast@DebuggerAgent@Debugging@QV4@@UAEPAXPBD@Z @3297
?qt_metacast@Profiler@Profiling@QV4@@UAEPAXPBD@Z @3298
?qt_metacast@QJSEngine@@UAEPAXPBD@Z @3299
?qt_metacast@QQmlAbstractProfilerAdapter@@UAEPAXPBD@Z @3300
?qt_metacast@QQmlAnimationTimer@@UAEPAXPBD@Z @3301
?qt_metacast@QQmlApplication@@UAEPAXPBD@Z @3302
?qt_metacast@QQmlApplicationEngine@@UAEPAXPBD@Z @3303
?qt_metacast@QQmlComponent@@UAEPAXPBD@Z @3304
?qt_metacast@QQmlComponentAttached@@UAEPAXPBD@Z @3305
?qt_metacast@QQmlContext@@UAEPAXPBD@Z @3306
?qt_metacast@QQmlDebugServer@@UAEPAXPBD@Z @3307
?qt_metacast@QQmlDebugService@@UAEPAXPBD@Z @3308
?qt_metacast@QQmlDelegateModel@@UAEPAXPBD@Z @3309
?qt_metacast@QQmlDelegateModelGroup@@UAEPAXPBD@Z @3310
?qt_metacast@QQmlEasingValueType@@UAEPAXPBD@Z @3311
?qt_metacast@QQmlEngine@@UAEPAXPBD@Z @3312
?qt_metacast@QQmlEngineDebugService@@UAEPAXPBD@Z @3313
?qt_metacast@QQmlExpression@@UAEPAXPBD@Z @3314
?qt_metacast@QQmlExtensionPlugin@@UAEPAXPBD@Z @3315
?qt_metacast@QQmlFileSelector@@UAEPAXPBD@Z @3316
?qt_metacast@QQmlInspectorService@@UAEPAXPBD@Z @3317
?qt_metacast@QQmlInstanceModel@@UAEPAXPBD@Z @3318
?qt_metacast@QQmlListModel@@UAEPAXPBD@Z @3319
?qt_metacast@QQmlObjectModel@@UAEPAXPBD@Z @3320
?qt_metacast@QQmlPlatform@@UAEPAXPBD@Z @3321
?qt_metacast@QQmlPointFValueType@@UAEPAXPBD@Z @3322
?qt_metacast@QQmlPointValueType@@UAEPAXPBD@Z @3323
?qt_metacast@QQmlProfilerService@@UAEPAXPBD@Z @3324
?qt_metacast@QQmlPropertyMap@@UAEPAXPBD@Z @3325
?qt_metacast@QQmlRectFValueType@@UAEPAXPBD@Z @3326
?qt_metacast@QQmlRectValueType@@UAEPAXPBD@Z @3327
?qt_metacast@QQmlSizeFValueType@@UAEPAXPBD@Z @3328
?qt_metacast@QQmlSizeValueType@@UAEPAXPBD@Z @3329
?qt_metacast@QQmlTimer@@UAEPAXPBD@Z @3330
?qt_metacast@QQmlValueType@@UAEPAXPBD@Z @3331
?qt_static_metacall@DebuggerAgent@Debugging@QV4@@CAXPAVQObject@@W4Call@QMetaObject@@HPAPAX@Z @3332
?qt_static_metacall@Profiler@Profiling@QV4@@CAXPAVQObject@@W4Call@QMetaObject@@HPAPAX@Z @3333
?qt_static_metacall@QJSEngine@@CAXPAVQObject@@W4Call@QMetaObject@@HPAPAX@Z @3334
?qt_static_metacall@QQmlAbstractProfilerAdapter@@CAXPAVQObject@@W4Call@QMetaObject@@HPAPAX@Z @3335
?qt_static_metacall@QQmlAnimationTimer@@CAXPAVQObject@@W4Call@QMetaObject@@HPAPAX@Z @3336
?qt_static_metacall@QQmlApplication@@CAXPAVQObject@@W4Call@QMetaObject@@HPAPAX@Z @3337
?qt_static_metacall@QQmlApplicationEngine@@CAXPAVQObject@@W4Call@QMetaObject@@HPAPAX@Z @3338
?qt_static_metacall@QQmlComponent@@CAXPAVQObject@@W4Call@QMetaObject@@HPAPAX@Z @3339
?qt_static_metacall@QQmlComponentAttached@@CAXPAVQObject@@W4Call@QMetaObject@@HPAPAX@Z @3340
?qt_static_metacall@QQmlContext@@CAXPAVQObject@@W4Call@QMetaObject@@HPAPAX@Z @3341
?qt_static_metacall@QQmlDebugServer@@CAXPAVQObject@@W4Call@QMetaObject@@HPAPAX@Z @3342
?qt_static_metacall@QQmlDebugService@@CAXPAVQObject@@W4Call@QMetaObject@@HPAPAX@Z @3343
?qt_static_metacall@QQmlDelegateModel@@CAXPAVQObject@@W4Call@QMetaObject@@HPAPAX@Z @3344
?qt_static_metacall@QQmlDelegateModelGroup@@CAXPAVQObject@@W4Call@QMetaObject@@HPAPAX@Z @3345
?qt_static_metacall@QQmlEasingValueType@@CAXPAVQObject@@W4Call@QMetaObject@@HPAPAX@Z @3346
?qt_static_metacall@QQmlEngine@@CAXPAVQObject@@W4Call@QMetaObject@@HPAPAX@Z @3347
?qt_static_metacall@QQmlEngineDebugService@@CAXPAVQObject@@W4Call@QMetaObject@@HPAPAX@Z @3348
?qt_static_metacall@QQmlExpression@@CAXPAVQObject@@W4Call@QMetaObject@@HPAPAX@Z @3349
?qt_static_metacall@QQmlExtensionPlugin@@CAXPAVQObject@@W4Call@QMetaObject@@HPAPAX@Z @3350
?qt_static_metacall@QQmlFileSelector@@CAXPAVQObject@@W4Call@QMetaObject@@HPAPAX@Z @3351
?qt_static_metacall@QQmlInspectorService@@CAXPAVQObject@@W4Call@QMetaObject@@HPAPAX@Z @3352
?qt_static_metacall@QQmlInstanceModel@@CAXPAVQObject@@W4Call@QMetaObject@@HPAPAX@Z @3353
?qt_static_metacall@QQmlListModel@@CAXPAVQObject@@W4Call@QMetaObject@@HPAPAX@Z @3354
?qt_static_metacall@QQmlObjectModel@@CAXPAVQObject@@W4Call@QMetaObject@@HPAPAX@Z @3355
?qt_static_metacall@QQmlPlatform@@CAXPAVQObject@@W4Call@QMetaObject@@HPAPAX@Z @3356
?qt_static_metacall@QQmlPointFValueType@@CAXPAVQObject@@W4Call@QMetaObject@@HPAPAX@Z @3357
?qt_static_metacall@QQmlPointValueType@@CAXPAVQObject@@W4Call@QMetaObject@@HPAPAX@Z @3358
?qt_static_metacall@QQmlProfilerService@@CAXPAVQObject@@W4Call@QMetaObject@@HPAPAX@Z @3359
?qt_static_metacall@QQmlPropertyMap@@CAXPAVQObject@@W4Call@QMetaObject@@HPAPAX@Z @3360
?qt_static_metacall@QQmlRectFValueType@@CAXPAVQObject@@W4Call@QMetaObject@@HPAPAX@Z @3361
?qt_static_metacall@QQmlRectValueType@@CAXPAVQObject@@W4Call@QMetaObject@@HPAPAX@Z @3362
?qt_static_metacall@QQmlSizeFValueType@@CAXPAVQObject@@W4Call@QMetaObject@@HPAPAX@Z @3363
?qt_static_metacall@QQmlSizeValueType@@CAXPAVQObject@@W4Call@QMetaObject@@HPAPAX@Z @3364
?qt_static_metacall@QQmlTimer@@CAXPAVQObject@@W4Call@QMetaObject@@HPAPAX@Z @3365
?qt_static_metacall@QQmlValueType@@CAXPAVQObject@@W4Call@QMetaObject@@HPAPAX@Z @3366
?query@Object@QV4@@KA?AUPropertyAttributes@2@PBUManaged@2@PAUString@2@@Z @3367
?query@Object@QV4@@QBE?AUPropertyAttributes@2@PAUString@2@@Z @3368
?query@QObjectWrapper@QV4@@CA?AUPropertyAttributes@2@PBUManaged@2@PAUString@2@@Z @3369
?query@QmlTypeWrapper@QV4@@SA?AUPropertyAttributes@2@PBUManaged@2@PAUString@2@@Z @3370
?query@QmlValueTypeWrapper@QV4@@SA?AUPropertyAttributes@2@PBUManaged@2@PAUString@2@@Z @3371
?query@String@QV4@@KA?AUPropertyAttributes@2@PBUManaged@2@PAU12@@Z @3372
?queryIndexed@Object@QV4@@KA?AUPropertyAttributes@2@PBUManaged@2@I@Z @3373
?queryIndexed@Object@QV4@@QBE?AUPropertyAttributes@2@I@Z @3374
?queryIndexed@String@QV4@@KA?AUPropertyAttributes@2@PBUManaged@2@I@Z @3375
?quit@QQmlEngine@@QAEXXZ @3376
?rawMetaObjectForType@QQmlEnginePrivate@@QBE?AVQQmlMetaObject@@H@Z @3377
?rawMetaObjectForType@QQmlPropertyPrivate@@SA?AVQQmlMetaObject@@PAVQQmlEnginePrivate@@H@Z @3378
?rawPropertyCacheForType@QQmlEnginePrivate@@QAEPAVQQmlPropertyCache@@H@Z @3379
?rawValue@Value@QV4@@QBE_KXZ @3380
?read@?$QQmlValueTypeBase@VQEasingCurve@@@@UAEXPAVQObject@@H@Z @3381
?read@?$QQmlValueTypeBase@VQPoint@@@@UAEXPAVQObject@@H@Z @3382
?read@?$QQmlValueTypeBase@VQPointF@@@@UAEXPAVQObject@@H@Z @3383
?read@?$QQmlValueTypeBase@VQRect@@@@UAEXPAVQObject@@H@Z @3384
?read@?$QQmlValueTypeBase@VQRectF@@@@UAEXPAVQObject@@H@Z @3385
?read@?$QQmlValueTypeBase@VQSize@@@@UAEXPAVQObject@@H@Z @3386
?read@?$QQmlValueTypeBase@VQSizeF@@@@UAEXPAVQObject@@H@Z @3387
?read@QQmlProperty@@QBE?AVQVariant@@XZ @3388
?read@QQmlProperty@@SA?AVQVariant@@PBVQObject@@ABVQString@@@Z @3389
?read@QQmlProperty@@SA?AVQVariant@@PBVQObject@@ABVQString@@PAVQQmlContext@@@Z @3390
?read@QQmlProperty@@SA?AVQVariant@@PBVQObject@@ABVQString@@PAVQQmlEngine@@@Z @3391
?read@QQmlValueTypeProvider@@EAE_NHPBXIHPAX@Z @3392
?readProperty@QQmlValueType@@IAEXPAVQObject@@HPAX@Z @3393
?readPropertyAsVariant@QQmlVMEMetaObject@@QAE?AVQVariant@@H@Z @3394
?readValueProperty@QQmlPropertyPrivate@@QAE?AVQVariant@@XZ @3395
?readValueType@QQmlValueTypeProvider@@QAE_NHPBXIHPAX@Z @3396
?readVarProperty@QQmlVMEMetaObject@@QAE_KH@Z @3397
?readVariantValue@?$QQmlValueTypeBase@VQEasingCurve@@@@UAEXPAVQObject@@HPAVQVariant@@@Z @3398
?readVariantValue@?$QQmlValueTypeBase@VQPoint@@@@UAEXPAVQObject@@HPAVQVariant@@@Z @3399
?readVariantValue@?$QQmlValueTypeBase@VQPointF@@@@UAEXPAVQObject@@HPAVQVariant@@@Z @3400
?readVariantValue@?$QQmlValueTypeBase@VQRect@@@@UAEXPAVQObject@@HPAVQVariant@@@Z @3401
?readVariantValue@?$QQmlValueTypeBase@VQRectF@@@@UAEXPAVQObject@@HPAVQVariant@@@Z @3402
?readVariantValue@?$QQmlValueTypeBase@VQSize@@@@UAEXPAVQObject@@HPAVQVariant@@@Z @3403
?readVariantValue@?$QQmlValueTypeBase@VQSizeF@@@@UAEXPAVQObject@@HPAVQVariant@@@Z @3404
?realloc@ArrayData@QV4@@SAXPAUObject@2@W4Type@12@I_N@Z @3405
?reallocate@SimpleArrayData@QV4@@SAPAUArrayData@2@PAUObject@2@I_N@Z @3406
?reallocate@SparseArrayData@QV4@@SAPAUArrayData@2@PAUObject@2@I_N@Z @3407
?reallocateStack@Parser@QQmlJS@@IAEXXZ @3408
?reallyHitTheBreakPoint@Debugger@Debugging@QV4@@AAE_NABVQString@@H@Z @3409
?rebalance@SparseArray@QV4@@AAEXPAUSparseArrayNode@2@@Z @3410
?recalcMostLeftNode@SparseArray@QV4@@AAEXXZ @3411
?receiveMessage@QQmlDebugServer@@QAEXABVQByteArray@@@Z @3412
?receivers@QQmlData@@SAHPAVQAbstractDeclarativeData@@PBVQObject@@H@Z @3413
?recheckCStackLimits@ExecutionEngine@QV4@@QAE_NXZ @3414
?recordError@IRBuilder@QmlIR@@QAEXABVSourceLocation@AST@QQmlJS@@ABVQString@@@Z @3415
?rectFFromString@QQmlStringConverters@@YA?AVQRectF@@ABVQString@@PA_N@Z @3416
?ref@PersistentValuePrivate@QV4@@QAEXXZ @3417
?reference@Codegen@QQmlJS@@IAEPAUExpr@IR@QV4@@PAU345@@Z @3418
?referenceScarceResources@QQmlEnginePrivate@@QAEXXZ @3419
?referenceTimeKnown@QQmlAbstractProfilerAdapter@@QAEXABVQElapsedTimer@@@Z @3420
?refresh@QQmlAbstractExpression@@UAEXXZ @3421
?refresh@QQmlBinding@@UAEXXZ @3422
?refreshExpressions@QQmlContextData@@QAEXXZ @3423
?refreshExpressionsRecursive@QQmlContextData@@AAEXPAVQQmlAbstractExpression@@@Z @3424
?refreshExpressionsRecursive@QQmlContextData@@AAEX_N@Z @3425
?regExpFlags@Lexer@QQmlJS@@QBEHXZ @3426
?regExpPattern@Lexer@QQmlJS@@QBE?AVQString@@XZ @3427
?regexpLiteral@Runtime@QV4@@SA_KPAUExecutionContext@2@H@Z @3428
?registerAnimation@QQmlAnimationTimer@@SAXPAVQAbstractAnimationJob@@_N@Z @3429
?registerBaseTypes@QQmlEnginePrivate@@SAXPBDHH@Z @3430
?registerConstant@JSUnitGenerator@Compiler@QV4@@QAEH_K@Z @3431
?registerCustomStringConverter@QQmlMetaType@@SAXHP6A?AVQVariant@@ABVQString@@@Z@Z @3432
?registerDeletable@MemoryManager@QV4@@QAEXPAUGCDeletable@2@@Z @3433
?registerExtension@QV8Engine@@SAHXZ @3434
?registerFinalizeCallback@QQmlEnginePrivate@@QAEXPAVQObject@@H@Z @3435
?registerGetterLookup@EvalInstructionSelection@QV4@@QAEIABVQString@@@Z @3436
?registerGetterLookup@JSUnitGenerator@Compiler@QV4@@QAEIABVQString@@@Z @3437
?registerGlobalGetterLookup@EvalInstructionSelection@QV4@@QAEIABVQString@@@Z @3438
?registerGlobalGetterLookup@JSUnitGenerator@Compiler@QV4@@QAEIABVQString@@@Z @3439
?registerIndexedGetterLookup@EvalInstructionSelection@QV4@@QAEIXZ @3440
?registerIndexedGetterLookup@JSUnitGenerator@Compiler@QV4@@QAEIXZ @3441
?registerIndexedSetterLookup@EvalInstructionSelection@QV4@@QAEIXZ @3442
?registerIndexedSetterLookup@JSUnitGenerator@Compiler@QV4@@QAEIXZ @3443
?registerInterceptor@QQmlVMEMetaObject@@QAEXHHPAVQQmlPropertyValueInterceptor@@@Z @3444
?registerInternalCompositeType@QQmlEnginePrivate@@QAEXPAVQQmlCompiledData@@@Z @3445
?registerJSClass@EvalInstructionSelection@QV4@@QAEHHPAUExprList@IR@2@@Z @3446
?registerJSClass@JSUnitGenerator@Compiler@QV4@@QAEHHPAUExprList@IR@3@@Z @3447
?registerProperties@QQmlAccessorProperties@@YAXPBUQMetaObject@@HPAUProperty@1@@Z @3448
?registerQmlDependencies@QmlContextWrapper@QV4@@SAXPAUExecutionEngine@2@PBUFunction@CompiledData@2@@Z @3449
?registerQtQuick2Types@QQmlEnginePrivate@@SAXPBDHH@Z @3450
?registerRegExp@EvalInstructionSelection@QV4@@QAEHPAURegExp@IR@2@@Z @3451
?registerRegExp@JSUnitGenerator@Compiler@QV4@@QAEHPAURegExp@IR@3@@Z @3452
?registerRunningAnimation@QQmlAnimationTimer@@AAEXPAVQAbstractAnimationJob@@@Z @3453
?registerService@QQmlDebugService@@IAE?AW4State@1@XZ @3454
?registerSetterLookup@EvalInstructionSelection@QV4@@QAEIABVQString@@@Z @3455
?registerSetterLookup@JSUnitGenerator@Compiler@QV4@@QAEIABVQString@@@Z @3456
?registerString@Document@QmlIR@@QAEHABVQString@@@Z @3457
?registerString@EvalInstructionSelection@QV4@@QAEHABVQString@@@Z @3458
?registerString@IRBuilder@QmlIR@@QBEIABVQString@@@Z @3459
?registerString@JSUnitGenerator@Compiler@QV4@@QAEHABVQString@@@Z @3460
?registerString@StringTableGenerator@Compiler@QV4@@QAEHABVQString@@@Z @3461
?registerValueTypes@QQmlValueTypeFactory@@SAXPBDHH@Z @3462
?registrationMutex@QV8Engine@@SAPAVQMutex@@XZ @3463
?release@QQmlDelegateModel@@UAE?AV?$QFlags@W4ReleaseFlag@QQmlInstanceModel@@@@PAVQObject@@@Z @3464
?release@QQmlObjectModel@@UAE?AV?$QFlags@W4ReleaseFlag@QQmlInstanceModel@@@@PAVQObject@@@Z @3465
?release@QQmlRefCount@@QAEXXZ @3466
?rem@QQmlComponentAttached@@QAEXXZ @3467
?remove@QQmlBundle@@QAEXPBUFileEntry@1@@Z @3468
?remove@QQmlChangeSet@@AAEXPAV?$QVector@UChange@QQmlChangeSet@@@@0@Z @3469
?remove@QQmlChangeSet@@QAEXABV?$QVector@UChange@QQmlChangeSet@@@@PAV2@@Z @3470
?remove@QQmlChangeSet@@QAEXHH@Z @3471
?remove@QQmlDelegateModelGroup@@QAEXPAVQQmlV4Function@@@Z @3472
?remove@QQmlListModel@@QAEXPAVQQmlV4Function@@@Z @3473
?removeAllBreakPoints@DebuggerAgent@Debugging@QV4@@QAEXXZ @3474
?removeAnimation@QAnimationGroupJob@@QAEXPAVQAbstractAnimationJob@@@Z @3475
?removeAnimationChangeListener@QAbstractAnimationJob@@QAEXPAVQAnimationJobChangeListener@@V?$QFlags@W4ChangeType@QAbstractAnimationJob@@@@@Z @3476
?removeBreakPoint@Debugger@Debugging@QV4@@QAEXABVQString@@H@Z @3477
?removeBreakPoint@DebuggerAgent@Debugging@QV4@@QAEXH@Z @3478
?removeDebugger@DebuggerAgent@Debugging@QV4@@QAEXPAVDebugger@23@@Z @3479
?removeEngine@QQmlDebugServer@@QAEXPAVQQmlEngine@@@Z @3480
?removeFromList@PersistentValuePrivate@QV4@@QAEXXZ @3481
?removeFromObject@QQmlAbstractBinding@@QAEXXZ @3482
?removeFromObject@QQmlAbstractBoundSignal@@QAEXXZ @3483
?removeGlobalProfiler@QQmlProfilerService@@QAEXPAVQQmlAbstractProfilerAdapter@@@Z @3484
?removeGroups@QQmlDelegateModelGroup@@QAEXPAVQQmlV4Function@@@Z @3485
?removeImageProvider@QQmlEngine@@QAEXABVQString@@@Z @3486
?removeInvalidObjectsFromHash@QQmlDebugService@@SAXXZ @3487
?removeProfilerFromStartTimes@QQmlProfilerService@@AAEXPBVQQmlAbstractProfilerAdapter@@@Z @3488
?removeScriptPragmas@Document@QmlIR@@SAXAAVQString@@@Z @3489
?removeService@QQmlDebugServer@@QAE_NPAVQQmlDebugService@@@Z @3490
?removeView@QQmlInspectorService@@QAEXPAVQObject@@@Z @3491
?removes@QQmlChangeSet@@QBEABV?$QVector@UChange@QQmlChangeSet@@@@XZ @3492
?reparseAsQualifiedId@Parser@QQmlJS@@IAEPAVUiQualifiedId@AST@2@PAVExpressionNode@42@@Z @3493
?reparseAsQualifiedPragmaId@Parser@QQmlJS@@IAEPAVUiQualifiedPragmaId@AST@2@PAVExpressionNode@42@@Z @3494
?repeatChanged@QQmlTimer@@QAEXXZ @3495
?reportData@Profiler@Profiling@QV4@@QAEXXZ @3496
?reportData@QQmlAbstractProfilerAdapter@@QAEXXZ @3497
?reportError@QQmlDirParser@@AAEXGGABVQString@@@Z @3498
?requireArgumentsAccessors@ExecutionEngine@QV4@@QAEXH@Z @3499
?reset@MemoryPool@QQmlJS@@QAEXXZ @3500
?reset@QQmlProperty@@QBE_NXZ @3501
?resetBinding@QQmlEngineDebugService@@AAE_NHABVQString@@@Z @3502
?resetFilterGroup@QQmlDelegateModel@@QAEXXZ @3503
?resetUncontrolledAnimationFinishTime@QAnimationGroupJob@@IAEXPAVQAbstractAnimationJob@@@Z @3504
?resetUncontrolledAnimationsFinishTime@QAnimationGroupJob@@IAEXXZ @3505
?resolve@QQmlDelegateModelGroup@@QAEXPAVQQmlV4Function@@@Z @3506
?resolve@QQmlPropertyCache@@ABEXPAVQQmlPropertyData@@@Z @3507
?resolveQualifiedId@IRBuilder@QmlIR@@QAE_NPAPAVUiQualifiedId@AST@QQmlJS@@PAPAUObject@2@_N@Z @3508
?resolveType@QQmlCustomParser@@IBEPBUQMetaObject@@ABVQString@@@Z @3509
?resolveType@QQmlImports@@QBE_NABVQHashedStringRef@@PAPAVQQmlType@@PAH2PAPAVQQmlImportNamespace@@PAV?$QList@VQQmlError@@@@@Z @3510
?resolveType@QQmlImports@@QBE_NPAVQQmlImportNamespace@@ABVQHashedStringRef@@PAPAVQQmlType@@PAH3@Z @3511
?resolvedCompositeSingletons@QQmlImports@@QBE?AV?$QList@UCompositeSingletonReference@QQmlImports@@@@XZ @3512
?resolvedScripts@QQmlImports@@QBE?AV?$QList@UScriptReference@QQmlImports@@@@XZ @3513
?resolvedUrl@ExecutionEngine@QV4@@QAE?AVQUrl@@ABVQString@@@Z @3514
?resolvedUrl@QQmlContext@@QAE?AVQUrl@@ABV2@@Z @3515
?resolvedUrl@QQmlContextData@@QAE?AVQUrl@@ABV2@@Z @3516
?restart@QQmlTimer@@QAEXXZ @3517
?restart@QSequentialAnimationGroupJob@@AAEXXZ @3518
?restartAnimationTimer@QQmlAnimationTimer@@UAEXXZ @3519
?restore@QQmlPropertyPrivate@@SA?AVQQmlProperty@@PAVQObject@@ABVQQmlPropertyData@@PAVQQmlContextData@@@Z @3520
?resume@Debugger@Debugging@QV4@@QAEXW4Speed@123@@Z @3521
?resume@QAbstractAnimationJob@@QAEXXZ @3522
?resumeAll@DebuggerAgent@Debugging@QV4@@QBEXXZ @3523
?retargetBinding@QQmlAbstractBinding@@IAEXPAVQObject@@H@Z @3524
?retargetBinding@QQmlBinding@@QAEXPAVQObject@@H@Z @3525
?retargetBinding@QQmlBinding@@SAXPAVQQmlAbstractBinding@@PAVQObject@@H@Z @3526
?rewindForwards@QSequentialAnimationGroupJob@@AAEXABUAnimationIndex@1@@Z @3527
?rgbaFromString@QQmlColorProvider@@UAEIABVQString@@PA_N@Z @3528
?rgbaFromString@QQmlStringConverters@@YAIABVQString@@PA_N@Z @3529
?roleNames@QQmlListModel@@UBE?AV?$QHash@HVQByteArray@@@@XZ @3530
?root@SparseArray@QV4@@ABEPAUSparseArrayNode@2@XZ @3531
?rootContext@QQmlEngine@@QBEPAVQQmlContext@@XZ @3532
?rootIndex@QQmlDelegateModel@@QBE?AVQVariant@@XZ @3533
?rootIndexChanged@QQmlDelegateModel@@QAEXXZ @3534
?rootNode@Parser@QQmlJS@@QBEPAVNode@AST@2@XZ @3535
?rootObjects@QQmlApplicationEngine@@QAE?AV?$QList@PAVQObject@@@@XZ @3536
?rotateLeft@SparseArray@QV4@@AAEXPAUSparseArrayNode@2@@Z @3537
?rotateRight@SparseArray@QV4@@AAEXPAUSparseArrayNode@2@@Z @3538
?rowCount@QQmlListModel@@UBEHABVQModelIndex@@@Z @3539
?run@InstructionSelection@JIT@QV4@@UAEXH@Z @3540
?run@InstructionSelection@Moth@QV4@@UAEXH@Z @3541
?run@Optimizer@IR@QV4@@QAEXPAVQQmlEnginePrivate@@_N1@Z @3542
?run@Script@QV4@@QAE_KXZ @3543
?runGC@MemoryManager@QV4@@QAEXXZ @3544
?runInEngine@Debugger@Debugging@QV4@@AAEXPAVJob@123@@Z @3545
?runInEngine_havingLock@Debugger@Debugging@QV4@@AAEXPAVJob@123@@Z @3546
?runningAnimationCount@QQmlAnimationTimer@@UAEHXZ @3547
?runningChanged@QQmlTimer@@QAEXXZ @3548
?s_dataStreamVersion@QQmlDebugServer@@2HA @3549
?s_designerMode@QQmlEnginePrivate@@0_NA @3550
?s_enableComponentComplete@QQmlVME@@0_NA @3551
?sameValue@Value@QV4@@QBE_NU12@@Z @3552
?sanityCheckFunctionNames@Object@QmlIR@@QAE?AVQString@@ABV?$QSet@VQString@@@@PAVSourceLocation@AST@QQmlJS@@@Z @3553
?save@QQmlMemoryProfiler@@SAXPBD@Z @3554
?saveValueType@QQmlPropertyPrivate@@SA?AVQQmlPropertyData@@ABV2@PBUQMetaObject@@HPAVQQmlEngine@@@Z @3555
?scanChar@Lexer@QQmlJS@@AAEXXZ @3556
?scanDirectives@Lexer@QQmlJS@@QAE_NPAVDirectives@2@@Z @3557
?scanNumber@Lexer@QQmlJS@@AAEHVQChar@@@Z @3558
?scanRegExp@Lexer@QQmlJS@@QAE_NW4RegExpBodyPrefix@12@@Z @3559
?scanToken@Lexer@QQmlJS@@AAEHXZ @3560
?scope@FunctionObject@QV4@@QAEPAUExecutionContext@2@XZ @3561
?scopeObject@QQmlExpression@@QBEPAVQObject@@XZ @3562
?scratchTempIndex@InstructionSelection@Moth@QV4@@ABEHXZ @3563
?scriptApi@SingletonInstanceInfo@QQmlType@@QBE?AVQJSValue@@PAVQQmlEngine@@@Z @3564
?scriptImported@Blob@QQmlTypeLoader@@EAEXPAVQQmlScriptBlob@@ABULocation@CompiledData@QV4@@ABVQString@@2@Z @3565
?scripts@QQmlDirParser@@QBE?AV?$QList@UScript@QQmlDirParser@@@@XZ @3566
?sendMessage@QQmlDebugService@@QAEXABVQByteArray@@@Z @3567
?sendMessage@QQmlInspectorService@@QAEXABVQByteArray@@@Z @3568
?sendMessages@QQmlDebugServer@@QAEXPAVQQmlDebugService@@ABV?$QList@VQByteArray@@@@@Z @3569
?sendMessages@QQmlDebugService@@QAEXABV?$QList@VQByteArray@@@@@Z @3570
?sendMessages@QQmlProfilerService@@AAEXXZ @3571
?sendQuit@QQmlEnginePrivate@@QAEXXZ @3572
?serialize@StringTableGenerator@Compiler@QV4@@QAEXPAUUnit@CompiledData@3@@Z @3573
?serviceNames@QQmlDebugServer@@QBE?AVQStringList@@XZ @3574
?services@QQmlDebugServer@@QBE?AV?$QList@PAVQQmlDebugService@@@@XZ @3575
?set@QQmlListModel@@QAEXHABVQQmlV4Handle@@@Z @3576
?setActivationProperty@InstructionSelection@JIT@QV4@@MAEXPAUExpr@IR@3@ABVQString@@@Z @3577
?setActivationProperty@InstructionSelection@Moth@QV4@@MAEXPAUExpr@IR@3@ABVQString@@@Z @3578
?setActivationProperty@Runtime@QV4@@SAXPAUExecutionContext@2@PAUString@2@UValueRef@2@@Z @3579
?setAddedToObject@QQmlAbstractBinding@@AAEX_N@Z @3580
?setAlloc@ArrayData@QV4@@QAEXI@Z @3581
?setAmplitude@QQmlEasingValueType@@QAEXN@Z @3582
?setArrayAttributes@Object@QV4@@QAEXIUPropertyAttributes@2@@Z @3583
?setArrayData@Object@QV4@@QAEXPAUArrayData@2@@Z @3584
?setArrayLength@Object@QV4@@QAE_NI@Z @3585
?setArrayLengthUnchecked@Object@QV4@@QAEXI@Z @3586
?setArrayType@Object@QV4@@QAEXW4Type@ArrayData@2@@Z @3587
?setAttribute@SimpleArrayData@QV4@@SAXPAUObject@2@IUPropertyAttributes@2@@Z @3588
?setAttribute@SparseArrayData@QV4@@SAXPAUObject@2@IUPropertyAttributes@2@@Z @3589
?setAttrs@ArrayData@QV4@@QAEXPAUPropertyAttributes@2@@Z @3590
?setBaseUrl@QQmlContext@@QAEXABVQUrl@@@Z @3591
?setBaseUrl@QQmlEngine@@QAEXABVQUrl@@@Z @3592
?setBaseUrl@QQmlImports@@QAEXABVQUrl@@ABVQString@@@Z @3593
?setBezierCurve@QQmlEasingValueType@@QAEXABV?$QList@VQVariant@@@@@Z @3594
?setBinding@QQmlEngineDebugService@@AAE_NHABVQString@@ABVQVariant@@_NV2@HH@Z @3595
?setBinding@QQmlPropertyPrivate@@SAPAVQQmlAbstractBinding@@ABVQQmlProperty@@PAV2@V?$QFlags@W4WriteFlag@QQmlPropertyPrivate@@@@@Z @3596
?setBinding@QQmlPropertyPrivate@@SAPAVQQmlAbstractBinding@@PAVQObject@@HHPAV2@V?$QFlags@W4WriteFlag@QQmlPropertyPrivate@@@@@Z @3597
?setBindingBit@QQmlData@@QAEXPAVQObject@@H@Z @3598
?setBindingNoEnable@QQmlPropertyPrivate@@SAPAVQQmlAbstractBinding@@PAVQObject@@HHPAV2@@Z @3599
?setBindingValue@IRBuilder@QmlIR@@QAEXPAUBinding@CompiledData@QV4@@PAVStatement@AST@QQmlJS@@@Z @3600
?setBreakOnThrow@Debugger@Debugging@QV4@@QAEX_N@Z @3601
?setBreakOnThrow@DebuggerAgent@Debugging@QV4@@QAEX_N@Z @3602
?setCached@QQmlOpenMetaObject@@QAEX_N@Z @3603
?setCode@Engine@QQmlJS@@QAEXABVQString@@@Z @3604
?setCode@Lexer@QQmlJS@@QAEXABVQString@@H_N@Z @3605
?setColumn@QQmlError@@QAEXH@Z @3606
?setContext@QQmlAbstractExpression@@QAEXPAVQQmlContextData@@@Z @3607
?setContextForObject@QQmlEngine@@SAXPAVQObject@@PAVQQmlContext@@@Z @3608
?setContextObject@QQmlContext@@QAEXPAVQObject@@@Z @3609
?setContextProperty@QQmlContext@@QAEXABVQString@@ABVQVariant@@@Z @3610
?setContextProperty@QQmlContext@@QAEXABVQString@@PAVQObject@@@Z @3611
?setCurrentAnimation@QSequentialAnimationGroupJob@@AAEXPAVQAbstractAnimationJob@@_N@Z @3612
?setCurrentTime@QAbstractAnimationJob@@QAEXH@Z @3613
?setData@QQmlComponent@@QAEXABVQByteArray@@ABVQUrl@@@Z @3614
?setDebugChangesCache@QQmlEnginePrivate@@QAEXABV?$QHash@VQUrl@@VQByteArray@@@@@Z @3615
?setDefaultInclude@QQmlDelegateModelGroup@@QAEX_N@Z @3616
?setDelegate@QQmlDelegateModel@@QAEXPAVQQmlComponent@@@Z @3617
?setDescription@QQmlError@@QAEXABVQString@@@Z @3618
?setDesignerSupportRequired@QQmlImports@@SAX_N@Z @3619
?setDirection@QAbstractAnimationJob@@QAEXW4Direction@1@@Z @3620
?setDisableUserControl@QAbstractAnimationJob@@QAEXXZ @3621
?setDomain@QQmlApplication@@QAEXABVQString@@@Z @3622
?setDouble@Value@QV4@@QAEXN@Z @3623
?setDuration@QPauseAnimationJob@@QAEXH@Z @3624
?setDynamicRoles@QQmlListModel@@QAEX_N@Z @3625
?setElement@InstructionSelection@JIT@QV4@@MAEXPAUExpr@IR@3@00@Z @3626
?setElement@InstructionSelection@Moth@QV4@@MAEXPAUExpr@IR@3@00@Z @3627
?setElement@Runtime@QV4@@SAXPAUExecutionContext@2@UValueRef@2@11@Z @3628
?setEnableUserControl@QAbstractAnimationJob@@QAEXXZ @3629
?setEnabled@QQmlAbstractBinding@@QAEX_N@Z @3630
?setEnabled@QQmlAbstractBinding@@QAEX_NV?$QFlags@W4WriteFlag@QQmlPropertyPrivate@@@@@Z @3631
?setEnabled@QQmlBinding@@QAEX_NV?$QFlags@W4WriteFlag@QQmlPropertyPrivate@@@@@Z @3632
?setEnabled@QQmlBinding@@SAXPAVQQmlAbstractBinding@@_NV?$QFlags@W4WriteFlag@QQmlPropertyPrivate@@@@@Z @3633
?setEnabledFlag@QQmlBinding@@AAEX_N@Z @3634
?setEngine@QV8Engine@@QAEXPAVQQmlEngine@@@Z @3635
?setError@QQmlDataBlob@@IAEXABV?$QList@VQQmlError@@@@@Z @3636
?setError@QQmlDataBlob@@IAEXABVQQmlError@@@Z @3637
?setError@QQmlDirParser@@QAEXABVQQmlError@@@Z @3638
?setExecutionEngine@MemoryManager@QV4@@QAEXPAUExecutionEngine@2@@Z @3639
?setExpression@QQmlBoundSignal@@UAE?AVQQmlBoundSignalExpressionPointer@@PAVQQmlBoundSignalExpression@@@Z @3640
?setExpression@QQmlExpression@@QAEXABVQString@@@Z @3641
?setExpressionFunctionValid@QQmlBoundSignalExpression@@AAEX_N@Z @3642
?setExtensible@Object@QV4@@QAEX_N@Z @3643
?setExtensionData@QV8Engine@@QAEXHPAUDeletable@1@@Z @3644
?setExtraSelectors@QQmlFileSelector@@QAEXAAVQStringList@@@Z @3645
?setExtraSelectors@QQmlFileSelector@@QAEXABVQStringList@@@Z @3646
?setFileName@Module@IR@QV4@@QAEXABVQString@@@Z @3647
?setFilterGroup@QQmlDelegateModel@@QAEXABVQString@@@Z @3648
?setGCBlocked@MemoryManager@QV4@@QAEX_N@Z @3649
?setGroups@QQmlDelegateModelGroup@@QAEXPAVQQmlV4Function@@@Z @3650
?setHasAccessorProperty@Object@QV4@@QAEXXZ @3651
?setHeight@QQmlRectFValueType@@QAEXN@Z @3652
?setHeight@QQmlRectValueType@@QAEXH@Z @3653
?setHeight@QQmlSizeFValueType@@QAEXN@Z @3654
?setHeight@QQmlSizeValueType@@QAEXH@Z @3655
?setId@IRBuilder@QmlIR@@QAE_NABVSourceLocation@AST@QQmlJS@@PAVStatement@45@@Z @3656
?setIdProperty@QQmlContextData@@QAEXHPAVQObject@@@Z @3657
?setIdPropertyData@QQmlContextData@@QAEXABV?$QVector@UObjectIdMapping@QQmlContextData@@@@@Z @3658
?setImplicitDestructible@QQmlData@@QAEXXZ @3659
?setImportPathList@QQmlEngine@@QAEXABVQStringList@@@Z @3660
?setIncubationController@QQmlEngine@@QAEXPAVQQmlIncubationController@@@Z @3661
?setInitialState@QQmlIncubator@@MAEXPAVQObject@@@Z @3662
?setInternalClass@Managed@QV4@@QAEXPAUInternalClass@2@@Z @3663
?setInterval@QQmlTimer@@QAEXH@Z @3664
?setInvalidParameterName@QQmlBoundSignalExpression@@AAEX_N@Z @3665
?setIsProperty@Collector@Debugger@Debugging@QV4@@IAEX_N@Z @3666
?setLexer@Engine@QQmlJS@@QAEXPAVLexer@2@@Z @3667
?setLine@QQmlError@@QAEXH@Z @3668
?setListModelData@QV8Engine@@QAEXPAUDeletable@1@@Z @3669
?setLookup@Object@QV4@@KAXPAUManaged@2@PAULookup@2@UValueRef@2@@Z @3670
?setLookup@Object@QV4@@QAEXPAULookup@2@UValueRef@2@@Z @3671
?setLoopCount@QAbstractAnimationJob@@QAEXH@Z @3672
?setMethodBody@QQmlEngineDebugService@@AAE_NHABVQString@@0@Z @3673
?setModel@QQmlDelegateModel@@QAEXABVQVariant@@@Z @3674
?setName@QQmlApplication@@QAEXABVQString@@@Z @3675
?setName@QQmlDelegateModelGroup@@QAEXABVQString@@@Z @3676
?setNetworkAccessManagerFactory@QQmlEngine@@QAEXPAVQQmlNetworkAccessManagerFactory@@@Z @3677
?setNextBinding@QQmlAbstractBinding@@AAEXPAV1@@Z @3678
?setNextFree@Managed@QV4@@QAEXPAU12@@Z @3679
?setNotifyOnValueChanged@QQmlBinding@@QAEX_N@Z @3680
?setNotifyOnValueChanged@QQmlExpression@@QAEX_N@Z @3681
?setObject@QQmlError@@QAEXPAVQObject@@@Z @3682
?setObjectOwnership@QQmlEngine@@SAXPAVQObject@@W4ObjectOwnership@1@@Z @3683
?setOfflineStoragePath@QQmlEngine@@QAEXABVQString@@@Z @3684
?setOrganization@QQmlApplication@@QAEXABVQString@@@Z @3685
?setOutputWarningsToStandardError@QQmlEngine@@QAEX_N@Z @3686
?setOvershoot@QQmlEasingValueType@@QAEXN@Z @3687
?setParent@QQmlContextData@@QAEXPAV1@_N@Z @3688
?setParent@QQmlPropertyCache@@QAEXPAV1@@Z @3689
?setPendingBindingBit@QQmlData@@QAEXPAVQObject@@H@Z @3690
?setPeriod@QQmlEasingValueType@@QAEXN@Z @3691
?setPluginPathList@QQmlEngine@@QAEXABVQStringList@@@Z @3692
?setProperty@ExecutionContext@QV4@@QAEXPAUString@2@UValueRef@2@@Z @3693
?setProperty@InstructionSelection@JIT@QV4@@MAEXPAUExpr@IR@3@0ABVQString@@@Z @3694
?setProperty@InstructionSelection@Moth@QV4@@MAEXPAUExpr@IR@3@0ABVQString@@@Z @3695
?setProperty@QJSValue@@QAEXABVQString@@ABV1@@Z @3696
?setProperty@QJSValue@@QAEXIABV1@@Z @3697
?setProperty@QObjectWrapper@QV4@@CAXPAVQObject@@PAUExecutionContext@2@PAVQQmlPropertyData@@UValueRef@2@@Z @3698
?setProperty@QObjectWrapper@QV4@@QAEXPAUExecutionContext@2@HUValueRef@2@@Z @3699
?setProperty@QQmlListModel@@QAEXHABVQString@@ABVQVariant@@@Z @3700
?setProperty@Runtime@QV4@@SAXPAUExecutionContext@2@UValueRef@2@PAUString@2@1@Z @3701
?setPrototype@Object@QV4@@QAE_NPAU12@@Z @3702
?setPrototype@QJSValue@@QAEXABV1@@Z @3703
?setQObjectApi@SingletonInstanceInfo@QQmlType@@QAEXPAVQQmlEngine@@PAVQObject@@@Z @3704
?setQObjectProperty@InstructionSelection@JIT@QV4@@MAEXPAUExpr@IR@3@0H@Z @3705
?setQObjectProperty@InstructionSelection@Moth@QV4@@MAEXPAUExpr@IR@3@0H@Z @3706
?setQmlProperty@QObjectWrapper@QV4@@SA_NPAUExecutionContext@2@PAVQQmlContextData@@PAVQObject@@PAUString@2@W4RevisionMode@12@UValueRef@2@@Z @3707
?setQmlQObjectProperty@Runtime@QV4@@SAXPAUExecutionContext@2@UValueRef@2@H1@Z @3708
?setQueuedForDeletion@QQmlData@@SAXPAVQObject@@@Z @3709
?setReadOnly@QmlContextWrapper@QV4@@QAEX_N@Z @3710
?setRepeating@QQmlTimer@@QAEX_N@Z @3711
?setRootIndex@QQmlDelegateModel@@QAEXABVQVariant@@@Z @3712
?setRunning@QQmlTimer@@QAEX_N@Z @3713
?setScriptApi@SingletonInstanceInfo@QQmlType@@QAEXPAVQQmlEngine@@VQJSValue@@@Z @3714
?setSelector@QQmlFileSelector@@QAEXPAVQFileSelector@@@Z @3715
?setSignalExpression@QQmlPropertyPrivate@@SA?AVQQmlBoundSignalExpressionPointer@@ABVQQmlProperty@@PAVQQmlBoundSignalExpression@@@Z @3716
?setSourceLocation@QQmlExpression@@QAEXABVQString@@HH@Z @3717
?setSparse@SparseArrayData@QV4@@QAEXPAUSparseArray@2@@Z @3718
?setState@QAbstractAnimationJob@@IAEXW4State@1@@Z @3719
?setStatesDelegate@QQmlEngineDebugService@@QAEXPAVQQmlDebugStatesDelegate@@@Z @3720
?setSubtype@Managed@QV4@@QBEXE@Z @3721
?setTarget@QQmlBinding@@QAEXABVQQmlProperty@@@Z @3722
?setTarget@QQmlBinding@@QAEXPAVQObject@@ABVQQmlPropertyData@@PAVQQmlContextData@@@Z @3723
?setTimer@Profiler@Profiling@QV4@@QAEXABVQElapsedTimer@@@Z @3724
?setTriggeredOnStart@QQmlTimer@@QAEX_N@Z @3725
?setType@ArrayData@QV4@@QAEXW4Type@12@@Z @3726
?setType@QQmlEasingValueType@@QAEXW4Type@1@@Z @3727
?setTypeNamespace@QQmlDirParser@@QAEXABVQString@@@Z @3728
?setTypeRegistrationNamespace@QQmlMetaType@@SAXABVQString@@@Z @3729
?setUncontrolledAnimationFinishTime@QAnimationGroupJob@@IAEXPAVQAbstractAnimationJob@@H@Z @3730
?setUpdatingFlag@QQmlBinding@@AAEX_N@Z @3731
?setUrl@QQmlError@@QAEXABVQUrl@@@Z @3732
?setUrlInterceptor@QQmlEngine@@QAEXPAVQQmlAbstractUrlInterceptor@@@Z @3733
?setUseFastLookups@EvalInstructionSelection@QV4@@QAEX_N@Z @3734
?setUseTypeInference@EvalInstructionSelection@QV4@@QAEX_N@Z @3735
?setVMEProperty@QQmlVMEMetaObject@@QAEXHUValueRef@QV4@@@Z @3736
?setVTable@Data@Managed@QV4@@QAEXPBUManagedVTable@3@@Z @3737
?setVTable@Managed@QV4@@QAEXPBUManagedVTable@2@@Z @3738
?setValue@?$QQmlValueTypeBase@VQEasingCurve@@@@UAEXABVQVariant@@@Z @3739
?setValue@?$QQmlValueTypeBase@VQPoint@@@@UAEXABVQVariant@@@Z @3740
?setValue@?$QQmlValueTypeBase@VQPointF@@@@UAEXABVQVariant@@@Z @3741
?setValue@?$QQmlValueTypeBase@VQRect@@@@UAEXABVQVariant@@@Z @3742
?setValue@?$QQmlValueTypeBase@VQRectF@@@@UAEXABVQVariant@@@Z @3743
?setValue@?$QQmlValueTypeBase@VQSize@@@@UAEXABVQVariant@@@Z @3744
?setValue@?$QQmlValueTypeBase@VQSizeF@@@@UAEXABVQVariant@@@Z @3745
?setValue@QQmlOpenMetaObject@@QAEXHABVQVariant@@@Z @3746
?setValue@QQmlOpenMetaObject@@QAE_NABVQByteArray@@ABVQVariant@@@Z @3747
?setVersion@QQmlApplication@@QAEXABVQString@@@Z @3748
?setVmeMethod@QQmlVMEMetaObject@@QAEXHUValueRef@QV4@@@Z @3749
?setWatchedRoles@QQmlDelegateModel@@UAEXV?$QList@VQByteArray@@@@@Z @3750
?setWatchedRoles@QQmlObjectModel@@UAEXV?$QList@VQByteArray@@@@@Z @3751
?setWidth@QQmlRectFValueType@@QAEXN@Z @3752
?setWidth@QQmlRectValueType@@QAEXH@Z @3753
?setWidth@QQmlSizeFValueType@@QAEXN@Z @3754
?setWidth@QQmlSizeValueType@@QAEXH@Z @3755
?setX@QQmlPointFValueType@@QAEXN@Z @3756
?setX@QQmlPointValueType@@QAEXH@Z @3757
?setX@QQmlRectFValueType@@QAEXN@Z @3758
?setX@QQmlRectValueType@@QAEXH@Z @3759
?setY@QQmlPointFValueType@@QAEXN@Z @3760
?setY@QQmlPointValueType@@QAEXH@Z @3761
?setY@QQmlRectFValueType@@QAEXN@Z @3762
?setY@QQmlRectValueType@@QAEXH@Z @3763
?setupArgumentsObject@Runtime@QV4@@SA_KPAUExecutionContext@2@@Z @3764
?shl@Runtime@QV4@@SA_KUValueRef@2@0@Z @3765
?shouldAnimationStart@QParallelAnimationGroupJob@@ABE_NPAVQAbstractAnimationJob@@_N@Z @3766
?showMeTheCode@Optimizer@IR@QV4@@SAXPAUFunction@23@@Z @3767
?shr@Runtime@QV4@@SA_KUValueRef@2@0@Z @3768
?signal@PropertyResolver@QmlIR@@QAEPAVQQmlPropertyData@@ABVQString@@PA_NPAVQObject@@PAVQQmlContextData@@@Z @3769
?signal@QQmlPropertyCache@@ABEPAVQQmlPropertyData@@HPAPAV1@@Z @3770
?signal@QQmlPropertyCache@@QBEPAVQQmlPropertyData@@H@Z @3771
?signalCount@Object@QmlIR@@QBEHXZ @3772
?signalCount@QQmlPropertyCache@@QBEHXZ @3773
?signalCount@QQmlVMEMetaObject@@QBEHXZ @3774
?signalEmitted@QQmlData@@SAXPAVQAbstractDeclarativeData@@PAVQObject@@HPAPAX@Z @3775
?signalExpression@QQmlPropertyPrivate@@SAPAVQQmlBoundSignalExpression@@ABVQQmlProperty@@@Z @3776
?signalHasEndpoint@QQmlData@@QAE_NH@Z @3777
?signalIndex@QQmlPropertyPrivate@@QBEHXZ @3778
?signalOffset@QQmlOpenMetaObjectType@@QBEHXZ @3779
?signalOffset@QQmlPropertyCache@@QBEHXZ @3780
?signalOffset@QQmlVMEMetaObject@@QBEHXZ @3781
?signalParameterNames@QQmlPropertyCache@@QBE?AV?$QList@VQByteArray@@@@H@Z @3782
?signalParameterStringForJS@QQmlPropertyCache@@QAE?AVQString@@HPAV2@@Z @3783
?signalParameterStringForJS@QQmlPropertyCache@@SA?AVQString@@PAVQQmlEngine@@ABV?$QList@VQByteArray@@@@PAV2@@Z @3784
?simplifyString@Data@String@QV4@@QBEXXZ @3785
?singletonInstanceInfo@QQmlType@@QBEPAVSingletonInstanceInfo@1@XZ @3786
?singletonObject@QmlTypeWrapper@QV4@@QBEPAVQObject@@XZ @3787
?size@QQmlFile@@QBE_JXZ @3788
?size@QQmlPropertyMap@@QBEHXZ @3789
?sizeFFromString@QQmlStringConverters@@YA?AVQSizeF@@ABVQString@@PA_N@Z @3790
?sizeOfTableAndData@StringTableGenerator@Compiler@QV4@@QBEIXZ @3791
?sort@ArrayData@QV4@@SAXPAUExecutionContext@2@PAUObject@2@UValueRef@2@I@Z @3792
?sourceElement@Codegen@QQmlJS@@IAE?AUResult@12@PAVSourceElement@AST@2@@Z @3793
?sourceElements@Codegen@QQmlJS@@IAEXPAVSourceElements@AST@2@@Z @3794
?sourceFile@Function@QV4@@QBE?AVQString@@XZ @3795
?sourceFile@QQmlExpression@@QBE?AVQString@@XZ @3796
?sourceLocation@QQmlBoundSignalExpression@@QBE?AUQQmlSourceLocation@@XZ @3797
?sourceUrl@QQmlType@@QBE?AVQUrl@@XZ @3798
?sparse@SparseArrayData@QV4@@QBEPAUSparseArray@2@XZ @3799
?sparseBegin@Object@QV4@@QAEPAUSparseArrayNode@2@XZ @3800
?sparseEnd@Object@QV4@@QAEPAUSparseArrayNode@2@XZ @3801
?squeezeCode@InstructionSelection@Moth@QV4@@ABE?AVQByteArray@@XZ @3802
?stackPop@ExecutionEngine@QV4@@QAEXI@Z @3803
?stackPush@ExecutionEngine@QV4@@QAEPAUValue@2@I@Z @3804
?stackTrace@Debugger@Debugging@QV4@@QBE?AV?$QVector@UStackFrame@QV4@@@@H@Z @3805
?stackTrace@ExecutionEngine@QV4@@QBE?AV?$QVector@UStackFrame@QV4@@@@H@Z @3806
?start@QAbstractAnimationJob@@QAEXXZ @3807
?start@QQmlTimer@@QAEXXZ @3808
?startAnimations@QQmlAnimationTimer@@QAEXXZ @3809
?startLoad@QQmlApplicationEnginePrivate@@QAEXABVQUrl@@ABVQByteArray@@_N@Z @3810
?startLoading@QQmlDataBlob@@QAEXPAVQQmlDataLoader@@@Z @3811
?startProfiling@Profiler@Profiling@QV4@@QAEX_K@Z @3812
?startProfiling@QQmlAbstractProfilerAdapter@@QAEX_K@Z @3813
?startProfiling@QQmlProfilerService@@QAEXPAVQQmlEngine@@_K@Z @3814
?startTimer@QV8Engine@@QAEXABVQString@@@Z @3815
?startWaiting@QQmlAbstractProfilerAdapter@@QAEXXZ @3816
?startsWithUpper@String@QV4@@QBE_NXZ @3817
?state@Debugger@Debugging@QV4@@QBE?AW4State@123@XZ @3818
?state@QAbstractAnimationJob@@QBE?AW4State@1@XZ @3819
?state@QQmlDebugService@@QBE?AW4State@1@XZ @3820
?stateAboutToBeChanged@QQmlDebugService@@MAEXW4State@1@@Z @3821
?stateAboutToBeChanged@QQmlProfilerService@@MAEXW4State@QQmlDebugService@@@Z @3822
?stateChanged@QAbstractAnimationJob@@IAEXW4State@1@0@Z @3823
?stateChanged@QQmlDebugService@@MAEXW4State@1@@Z @3824
?stateChanged@QQmlInspectorService@@MAEXW4State@QQmlDebugService@@@Z @3825
?statement@Codegen@QQmlJS@@IAEXPAVExpressionNode@AST@2@@Z @3826
?statement@Codegen@QQmlJS@@IAEXPAVStatement@AST@2@@Z @3827
?statement@Parser@QQmlJS@@QBEPAVStatement@AST@2@XZ @3828
?statementCast@Node@AST@QQmlJS@@UAEPAVStatement@23@XZ @3829
?statementCast@Statement@AST@QQmlJS@@UAEPAV123@XZ @3830
?staticMetaObject@DebuggerAgent@Debugging@QV4@@2UQMetaObject@@B @3831
?staticMetaObject@Profiler@Profiling@QV4@@2UQMetaObject@@B @3832
?staticMetaObject@QJSEngine@@2UQMetaObject@@B @3833
?staticMetaObject@QQmlAbstractProfilerAdapter@@2UQMetaObject@@B @3834
?staticMetaObject@QQmlAnimationTimer@@2UQMetaObject@@B @3835
?staticMetaObject@QQmlApplication@@2UQMetaObject@@B @3836
?staticMetaObject@QQmlApplicationEngine@@2UQMetaObject@@B @3837
?staticMetaObject@QQmlComponent@@2UQMetaObject@@B @3838
?staticMetaObject@QQmlComponentAttached@@2UQMetaObject@@B @3839
?staticMetaObject@QQmlContext@@2UQMetaObject@@B @3840
?staticMetaObject@QQmlDebugServer@@2UQMetaObject@@B @3841
?staticMetaObject@QQmlDebugService@@2UQMetaObject@@B @3842
?staticMetaObject@QQmlDelegateModel@@2UQMetaObject@@B @3843
?staticMetaObject@QQmlDelegateModelGroup@@2UQMetaObject@@B @3844
?staticMetaObject@QQmlEasingValueType@@2UQMetaObject@@B @3845
?staticMetaObject@QQmlEngine@@2UQMetaObject@@B @3846
?staticMetaObject@QQmlEngineDebugService@@2UQMetaObject@@B @3847
?staticMetaObject@QQmlExpression@@2UQMetaObject@@B @3848
?staticMetaObject@QQmlExtensionPlugin@@2UQMetaObject@@B @3849
?staticMetaObject@QQmlFileSelector@@2UQMetaObject@@B @3850
?staticMetaObject@QQmlInspectorService@@2UQMetaObject@@B @3851
?staticMetaObject@QQmlInstanceModel@@2UQMetaObject@@B @3852
?staticMetaObject@QQmlListModel@@2UQMetaObject@@B @3853
?staticMetaObject@QQmlObjectModel@@2UQMetaObject@@B @3854
?staticMetaObject@QQmlPlatform@@2UQMetaObject@@B @3855
?staticMetaObject@QQmlPointFValueType@@2UQMetaObject@@B @3856
?staticMetaObject@QQmlPointValueType@@2UQMetaObject@@B @3857
?staticMetaObject@QQmlProfilerService@@2UQMetaObject@@B @3858
?staticMetaObject@QQmlPropertyMap@@2UQMetaObject@@B @3859
?staticMetaObject@QQmlRectFValueType@@2UQMetaObject@@B @3860
?staticMetaObject@QQmlRectValueType@@2UQMetaObject@@B @3861
?staticMetaObject@QQmlSizeFValueType@@2UQMetaObject@@B @3862
?staticMetaObject@QQmlSizeValueType@@2UQMetaObject@@B @3863
?staticMetaObject@QQmlTimer@@2UQMetaObject@@B @3864
?staticMetaObject@QQmlValueType@@2UQMetaObject@@B @3865
?staticVTable@ArrayData@QV4@@SAPBUManagedVTable@2@XZ @3866
?staticVTable@BuiltinFunction@QV4@@SAPBUManagedVTable@2@XZ @3867
?staticVTable@EvalFunction@QV4@@SAPBUManagedVTable@2@XZ @3868
?staticVTable@ExecutionContext@QV4@@SAPBUManagedVTable@2@XZ @3869
?staticVTable@FunctionObject@QV4@@SAPBUManagedVTable@2@XZ @3870
?staticVTable@Managed@QV4@@SAPBUManagedVTable@2@XZ @3871
?staticVTable@Object@QV4@@SAPBUManagedVTable@2@XZ @3872
?staticVTable@QObjectMethod@QV4@@SAPBUManagedVTable@2@XZ @3873
?staticVTable@QObjectWrapper@QV4@@SAPBUManagedVTable@2@XZ @3874
?staticVTable@QmlBindingWrapper@QV4@@SAPBUManagedVTable@2@XZ @3875
?staticVTable@QmlContextWrapper@QV4@@SAPBUManagedVTable@2@XZ @3876
?staticVTable@QmlListWrapper@QV4@@SAPBUManagedVTable@2@XZ @3877
?staticVTable@QmlTypeWrapper@QV4@@SAPBUManagedVTable@2@XZ @3878
?staticVTable@QmlValueTypeWrapper@QV4@@SAPBUManagedVTable@2@XZ @3879
?staticVTable@SimpleArrayData@QV4@@SAPBUManagedVTable@2@XZ @3880
?staticVTable@SparseArrayData@QV4@@SAPBUManagedVTable@2@XZ @3881
?staticVTable@String@QV4@@SAPBUManagedVTable@2@XZ @3882
?static_vtbl@ArrayData@QV4@@2UManagedVTable@2@B @3883
?static_vtbl@BuiltinFunction@QV4@@2UObjectVTable@2@B @3884
?static_vtbl@EvalFunction@QV4@@2UObjectVTable@2@B @3885
?static_vtbl@ExecutionContext@QV4@@2UManagedVTable@2@B @3886
?static_vtbl@FunctionObject@QV4@@2UObjectVTable@2@B @3887
?static_vtbl@Managed@QV4@@2UManagedVTable@2@B @3888
?static_vtbl@Object@QV4@@2UObjectVTable@2@B @3889
?static_vtbl@QObjectMethod@QV4@@2UObjectVTable@2@B @3890
?static_vtbl@QObjectWrapper@QV4@@2UObjectVTable@2@B @3891
?static_vtbl@QmlBindingWrapper@QV4@@2UObjectVTable@2@B @3892
?static_vtbl@QmlContextWrapper@QV4@@2UObjectVTable@2@B @3893
?static_vtbl@QmlListWrapper@QV4@@2UObjectVTable@2@B @3894
?static_vtbl@QmlTypeWrapper@QV4@@2UObjectVTable@2@B @3895
?static_vtbl@QmlValueTypeWrapper@QV4@@2UObjectVTable@2@B @3896
?static_vtbl@SimpleArrayData@QV4@@2UArrayVTable@2@B @3897
?static_vtbl@SparseArrayData@QV4@@2UArrayVTable@2@B @3898
?static_vtbl@String@QV4@@2UObjectVTable@2@B @3899
?stats@QQmlMemoryProfiler@@SAXPAH0@Z @3900
?status@QQmlComponent@@QBE?AW4Status@1@XZ @3901
?status@QQmlDataBlob@@QBE?AW4Status@1@XZ @3902
?status@QQmlFile@@QBE?AW4Status@1@XZ @3903
?status@QQmlIncubator@@QBE?AW4Status@1@XZ @3904
?statusChanged@QQmlComponent@@QAEXW4Status@1@@Z @3905
?statusChanged@QQmlIncubator@@MAEXW4Status@1@@Z @3906
?stop@QAbstractAnimationJob@@QAEXXZ @3907
?stop@QQmlTimer@@QAEXXZ @3908
?stopProfiling@Profiler@Profiling@QV4@@QAEXXZ @3909
?stopProfiling@QQmlAbstractProfilerAdapter@@QAEXXZ @3910
?stopProfiling@QQmlProfilerService@@QAEXPAVQQmlEngine@@@Z @3911
?stopTimer@QQmlAnimationTimer@@QAEXXZ @3912
?stopTimer@QV8Engine@@QAE_JABVQString@@PA_N@Z @3913
?stopWaiting@QQmlAbstractProfilerAdapter@@QAEXXZ @3914
?store@QQmlValueTypeProvider@@EAE_NHPBXPAXI@Z @3915
?storeObjectIds@QQmlEngineDebugService@@AAEXPAVQObject@@@Z @3916
?storeValueType@QQmlValueTypeProvider@@QAE_NHPBXPAXI@Z @3917
?strictEqual@Runtime@QV4@@SA_KUValueRef@2@0@Z @3918
?strictEqual@RuntimeHelpers@QV4@@SAIUValueRef@2@0@Z @3919
?strictMode@FunctionObject@QV4@@QBE_NXZ @3920
?strictNotEqual@Runtime@QV4@@SA_KUValueRef@2@0@Z @3921
?strictlyEquals@QJSValue@@QBE_NABV1@@Z @3922
?stringAt@Blob@QQmlTypeLoader@@MBE?AVQString@@H@Z @3923
?stringAt@Document@QmlIR@@QBE?AVQString@@H@Z @3924
?stringAt@IRBuilder@QmlIR@@QBE?AVQString@@H@Z @3925
?stringCount@StringTableGenerator@Compiler@QV4@@QBEIXZ @3926
?stringForIndex@JSUnitGenerator@Compiler@QV4@@QBE?AVQString@@H@Z @3927
?stringForIndex@StringTableGenerator@Compiler@QV4@@QBE?AVQString@@H@Z @3928
?stringFromNumber@RuntimeHelpers@QV4@@SAPAU?$Returned@UString@QV4@@@2@PAUExecutionContext@2@N@Z @3929
?stringLiteral@QQmlScriptString@@QBE?AVQString@@XZ @3930
?stringRef@Parser@QQmlJS@@IAEAAVQStringRef@@H@Z @3931
?stringToNumber@RuntimeHelpers@QV4@@SANABVQString@@@Z @3932
?stringValue@QQmlDelegateModel@@UAE?AVQString@@HABV2@@Z @3933
?stringValue@QQmlObjectModel@@UAE?AVQString@@HABV2@@Z @3934
?stringValue@Value@QV4@@QBEPAUString@2@XZ @3935
?sub@Runtime@QV4@@SA_KUValueRef@2@0@Z @3936
?subscript@Codegen@QQmlJS@@IAEPAUExpr@IR@QV4@@PAU345@0@Z @3937
?subtype@Managed@QV4@@QBEEXZ @3938
?superType@QQmlType@@ABEPAV1@XZ @3939
?swapValues@InstructionSelection@JIT@QV4@@MAEXPAUExpr@IR@3@0@Z @3940
?swapValues@InstructionSelection@Moth@QV4@@MAEXPAUExpr@IR@3@0@Z @3941
?sweep@MemoryManager@QV4@@AAEXPADII@Z @3942
?sweep@MemoryManager@QV4@@AAEX_N@Z @3943
?sym@Parser@QQmlJS@@IAEAATValue@12@H@Z @3944
?sync@QQmlListModel@@CAXPAV1@0PAV?$QHash@HPAVQQmlListModel@@@@@Z @3945
?sync@QQmlListModel@@QAEXXZ @3946
?syncProhibitAutomaticSemicolon@Lexer@QQmlJS@@AAEXXZ @3947
?synchronize@QQmlAbstractProfilerAdapter@@QAEXABVQElapsedTimer@@@Z @3948
?take@QQmlBoundSignalExpressionPointer@@QAEAAV1@PAVQQmlBoundSignalExpression@@@Z @3949
?takeContextOwnership@QmlContextWrapper@QV4@@SAXUValueRef@2@@Z @3950
?takeExpression@QQmlBoundSignal@@UAE?AVQQmlBoundSignalExpressionPointer@@PAVQQmlBoundSignalExpression@@@Z @3951
?takeSignalExpression@QQmlPropertyPrivate@@SA?AVQQmlBoundSignalExpressionPointer@@ABVQQmlProperty@@PAVQQmlBoundSignalExpression@@@Z @3952
?target@QQmlBoundSignalExpression@@QBEPAVQObject@@XZ @3953
?textRefAt@IRBuilder@QmlIR@@QBE?AVQStringRef@@ABVSourceLocation@AST@QQmlJS@@0@Z @3954
?textRefAt@IRBuilder@QmlIR@@QBE?AVQStringRef@@ABVSourceLocation@AST@QQmlJS@@@Z @3955
?throwError@ExecutionContext@QV4@@QAE_KABVQString@@@Z @3956
?throwError@ExecutionContext@QV4@@QAE_KUValueRef@2@@Z @3957
?throwException@ExecutionEngine@QV4@@QAE_KUValueRef@2@@Z @3958
?throwException@Runtime@QV4@@SAXPAUExecutionContext@2@UValueRef@2@@Z @3959
?throwRangeError@ExecutionContext@QV4@@QAE_KABVQString@@@Z @3960
?throwRangeError@ExecutionContext@QV4@@QAE_KUValueRef@2@@Z @3961
?throwReferenceError@Codegen@QQmlJS@@MAEXABVSourceLocation@AST@2@ABVQString@@@Z @3962
?throwReferenceError@ExecutionContext@QV4@@QAE_KABVQString@@0HH@Z @3963
?throwReferenceError@ExecutionContext@QV4@@QAE_KUValueRef@2@@Z @3964
?throwSyntaxError@Codegen@QQmlJS@@MAEXABVSourceLocation@AST@2@ABVQString@@@Z @3965
?throwSyntaxError@ExecutionContext@QV4@@QAE_KABVQString@@0HH@Z @3966
?throwSyntaxError@ExecutionContext@QV4@@QAE_KABVQString@@@Z @3967
?throwSyntaxErrorOnEvalOrArgumentsInStrictMode@Codegen@QQmlJS@@IAE_NPAUExpr@IR@QV4@@ABVSourceLocation@AST@2@@Z @3968
?throwTypeError@ExecutionContext@QV4@@QAE_KABVQString@@@Z @3969
?throwTypeError@ExecutionContext@QV4@@QAE_KXZ @3970
?throwURIError@ExecutionContext@QV4@@QAE_KUValueRef@2@@Z @3971
?throwUnimplemented@ExecutionContext@QV4@@QAE_KABVQString@@@Z @3972
?ticked@QQmlTimer@@AAEXXZ @3973
?timeFromString@QQmlStringConverters@@YA?AVQTime@@ABVQString@@PA_N@Z @3974
?tint@QQmlColorProvider@@UAE?AVQVariant@@ABV2@0@Z @3975
?toArrayIndex@String@QV4@@SAIABVQString@@@Z @3976
?toBool@QJSValue@@QBE_NXZ @3977
?toBoolean@Runtime@QV4@@SAIUValueRef@2@@Z @3978
?toBoolean@Value@QV4@@QBE_NXZ @3979
?toDateTime@QJSValue@@QBE?AVQDateTime@@XZ @3980
?toDouble@Runtime@QV4@@SA_KUValueRef@2@@Z @3981
?toDynamicMetaObject@QQmlVMEMetaObject@@UAEPAUQAbstractDynamicMetaObject@@PAVQObject@@@Z @3982
?toInt32@Primitive@QV4@@SAHN@Z @3983
?toInt32@Value@QV4@@QBEHXZ @3984
?toInt@QJSValue@@QBEHXZ @3985
?toInt@Runtime@QV4@@SAHUValueRef@2@@Z @3986
?toInteger@Primitive@QV4@@SANN@Z @3987
?toInteger@Value@QV4@@QBENXZ @3988
?toMetaObjectBuilder@QQmlPropertyCache@@QAEXAAVQMetaObjectBuilder@@@Z @3989
?toNumber@QJSValue@@QBENXZ @3990
?toNumber@RuntimeHelpers@QV4@@SANUValueRef@2@@Z @3991
?toNumber@Value@QV4@@QBENXZ @3992
?toNumberImpl@Value@QV4@@QBENXZ @3993
?toObject@RuntimeHelpers@QV4@@SA_KPAUExecutionContext@2@UValueRef@2@@Z @3994
?toObject@Value@QV4@@QBEPAUObject@2@PAUExecutionContext@2@@Z @3995
?toPrimitive@RuntimeHelpers@QV4@@SA_KUValueRef@2@H@Z @3996
?toQObject@QJSValue@@QBEPAVQObject@@XZ @3997
?toQObject@QQmlEnginePrivate@@QBEPAVQObject@@ABVQVariant@@PA_N@Z @3998
?toQObject@QQmlMetaType@@SAPAVQObject@@ABVQVariant@@PA_N@Z @3999
?toQString@String@QV4@@QBE?AVQString@@XZ @4000
?toQString@Value@QV4@@QBE?AVQString@@XZ @4001
?toQStringNoThrow@Value@QV4@@QBE?AVQString@@XZ @4002
?toString@QJSValue@@QBE?AVQString@@XZ @4003
?toString@QQmlEasingValueType@@UBE?AVQString@@XZ @4004
?toString@QQmlError@@QBE?AVQString@@XZ @4005
?toString@QQmlPointFValueType@@UBE?AVQString@@XZ @4006
?toString@QQmlPointValueType@@UBE?AVQString@@XZ @4007
?toString@QQmlRectFValueType@@UBE?AVQString@@XZ @4008
?toString@QQmlRectValueType@@UBE?AVQString@@XZ @4009
?toString@QQmlSizeFValueType@@UBE?AVQString@@XZ @4010
?toString@QQmlSizeValueType@@UBE?AVQString@@XZ @4011
?toString@QV8Engine@@QAE_KABVQString@@@Z @4012
?toString@RuntimeHelpers@QV4@@SA_KPAUExecutionContext@2@UValueRef@2@@Z @4013
?toString@Value@QV4@@QBEPAUString@2@PAUExecutionContext@2@@Z @4014
?toString@Value@QV4@@QBEPAUString@2@PAUExecutionEngine@2@@Z @4015
?toUInt16@Value@QV4@@QBEHXZ @4016
?toUInt32@Primitive@QV4@@SAIN@Z @4017
?toUInt32@Value@QV4@@QBEIXZ @4018
?toUInt@QJSValue@@QBEIXZ @4019
?toUInt@Runtime@QV4@@SAIUValueRef@2@@Z @4020
?toUInt@String@QV4@@QBEIPA_N@Z @4021
?toVariant@QJSValue@@QBE?AVQVariant@@XZ @4022
?toVariant@QV8Engine@@QAE?AVQVariant@@UValueRef@QV4@@H_NPAV?$QSet@PAUObject@QV4@@@@@Z @4023
?toVariant@QmlListWrapper@QV4@@QBE?AVQVariant@@XZ @4024
?toVariant@QmlTypeWrapper@QV4@@QBE?AVQVariant@@XZ @4025
?toVariant@QmlValueTypeWrapper@QV4@@QBE?AVQVariant@@XZ @4026
?tokenEndColumn@Lexer@QQmlJS@@QBEHXZ @4027
?tokenEndLine@Lexer@QQmlJS@@QBEHXZ @4028
?tokenKind@Lexer@QQmlJS@@QBEHXZ @4029
?tokenLength@Lexer@QQmlJS@@QBEHXZ @4030
?tokenOffset@Lexer@QQmlJS@@QBEHXZ @4031
?tokenSpell@Lexer@QQmlJS@@QBE?AVQStringRef@@XZ @4032
?tokenStartColumn@Lexer@QQmlJS@@QBEHXZ @4033
?tokenStartLine@Lexer@QQmlJS@@QBEHXZ @4034
?tokenText@Lexer@QQmlJS@@QBE?AVQString@@XZ @4035
?tokenValue@Lexer@QQmlJS@@QBENXZ @4036
?topLevelAnimationLoopChanged@QAbstractAnimationJob@@MAEXXZ @4037
?topLevelAnimationLoopChanged@QAnimationGroupJob@@MAEXXZ @4038
?totalDuration@QAbstractAnimationJob@@QBEHXZ @4039
?tr@DebuggerAgent@Debugging@QV4@@SA?AVQString@@PBD0H@Z @4040
?tr@IRBuilder@QmlIR@@SA?AVQString@@PBD0H@Z @4041
?tr@Object@QmlIR@@SA?AVQString@@PBD0H@Z @4042
?tr@Profiler@Profiling@QV4@@SA?AVQString@@PBD0H@Z @4043
?tr@QJSEngine@@SA?AVQString@@PBD0H@Z @4044
?tr@QQmlAbstractProfilerAdapter@@SA?AVQString@@PBD0H@Z @4045
?tr@QQmlAnimationTimer@@SA?AVQString@@PBD0H@Z @4046
?tr@QQmlApplication@@SA?AVQString@@PBD0H@Z @4047
?tr@QQmlApplicationEngine@@SA?AVQString@@PBD0H@Z @4048
?tr@QQmlComponent@@SA?AVQString@@PBD0H@Z @4049
?tr@QQmlComponentAttached@@SA?AVQString@@PBD0H@Z @4050
?tr@QQmlContext@@SA?AVQString@@PBD0H@Z @4051
?tr@QQmlDebugServer@@SA?AVQString@@PBD0H@Z @4052
?tr@QQmlDebugService@@SA?AVQString@@PBD0H@Z @4053
?tr@QQmlDelegateModel@@SA?AVQString@@PBD0H@Z @4054
?tr@QQmlDelegateModelGroup@@SA?AVQString@@PBD0H@Z @4055
?tr@QQmlEasingValueType@@SA?AVQString@@PBD0H@Z @4056
?tr@QQmlEngine@@SA?AVQString@@PBD0H@Z @4057
?tr@QQmlEngineDebugService@@SA?AVQString@@PBD0H@Z @4058
?tr@QQmlExpression@@SA?AVQString@@PBD0H@Z @4059
?tr@QQmlExtensionPlugin@@SA?AVQString@@PBD0H@Z @4060
?tr@QQmlFileSelector@@SA?AVQString@@PBD0H@Z @4061
?tr@QQmlInspectorService@@SA?AVQString@@PBD0H@Z @4062
?tr@QQmlInstanceModel@@SA?AVQString@@PBD0H@Z @4063
?tr@QQmlListModel@@SA?AVQString@@PBD0H@Z @4064
?tr@QQmlObjectModel@@SA?AVQString@@PBD0H@Z @4065
?tr@QQmlPlatform@@SA?AVQString@@PBD0H@Z @4066
?tr@QQmlPointFValueType@@SA?AVQString@@PBD0H@Z @4067
?tr@QQmlPointValueType@@SA?AVQString@@PBD0H@Z @4068
?tr@QQmlProfilerService@@SA?AVQString@@PBD0H@Z @4069
?tr@QQmlPropertyMap@@SA?AVQString@@PBD0H@Z @4070
?tr@QQmlRectFValueType@@SA?AVQString@@PBD0H@Z @4071
?tr@QQmlRectValueType@@SA?AVQString@@PBD0H@Z @4072
?tr@QQmlSizeFValueType@@SA?AVQString@@PBD0H@Z @4073
?tr@QQmlSizeValueType@@SA?AVQString@@PBD0H@Z @4074
?tr@QQmlTimer@@SA?AVQString@@PBD0H@Z @4075
?tr@QQmlValueType@@SA?AVQString@@PBD0H@Z @4076
?trUtf8@DebuggerAgent@Debugging@QV4@@SA?AVQString@@PBD0H@Z @4077
?trUtf8@IRBuilder@QmlIR@@SA?AVQString@@PBD0H@Z @4078
?trUtf8@Object@QmlIR@@SA?AVQString@@PBD0H@Z @4079
?trUtf8@Profiler@Profiling@QV4@@SA?AVQString@@PBD0H@Z @4080
?trUtf8@QJSEngine@@SA?AVQString@@PBD0H@Z @4081
?trUtf8@QQmlAbstractProfilerAdapter@@SA?AVQString@@PBD0H@Z @4082
?trUtf8@QQmlAnimationTimer@@SA?AVQString@@PBD0H@Z @4083
?trUtf8@QQmlApplication@@SA?AVQString@@PBD0H@Z @4084
?trUtf8@QQmlApplicationEngine@@SA?AVQString@@PBD0H@Z @4085
?trUtf8@QQmlComponent@@SA?AVQString@@PBD0H@Z @4086
?trUtf8@QQmlComponentAttached@@SA?AVQString@@PBD0H@Z @4087
?trUtf8@QQmlContext@@SA?AVQString@@PBD0H@Z @4088
?trUtf8@QQmlDebugServer@@SA?AVQString@@PBD0H@Z @4089
?trUtf8@QQmlDebugService@@SA?AVQString@@PBD0H@Z @4090
?trUtf8@QQmlDelegateModel@@SA?AVQString@@PBD0H@Z @4091
?trUtf8@QQmlDelegateModelGroup@@SA?AVQString@@PBD0H@Z @4092
?trUtf8@QQmlEasingValueType@@SA?AVQString@@PBD0H@Z @4093
?trUtf8@QQmlEngine@@SA?AVQString@@PBD0H@Z @4094
?trUtf8@QQmlEngineDebugService@@SA?AVQString@@PBD0H@Z @4095
?trUtf8@QQmlExpression@@SA?AVQString@@PBD0H@Z @4096
?trUtf8@QQmlExtensionPlugin@@SA?AVQString@@PBD0H@Z @4097
?trUtf8@QQmlFileSelector@@SA?AVQString@@PBD0H@Z @4098
?trUtf8@QQmlInspectorService@@SA?AVQString@@PBD0H@Z @4099
?trUtf8@QQmlInstanceModel@@SA?AVQString@@PBD0H@Z @4100
?trUtf8@QQmlListModel@@SA?AVQString@@PBD0H@Z @4101
?trUtf8@QQmlObjectModel@@SA?AVQString@@PBD0H@Z @4102
?trUtf8@QQmlPlatform@@SA?AVQString@@PBD0H@Z @4103
?trUtf8@QQmlPointFValueType@@SA?AVQString@@PBD0H@Z @4104
?trUtf8@QQmlPointValueType@@SA?AVQString@@PBD0H@Z @4105
?trUtf8@QQmlProfilerService@@SA?AVQString@@PBD0H@Z @4106
?trUtf8@QQmlPropertyMap@@SA?AVQString@@PBD0H@Z @4107
?trUtf8@QQmlRectFValueType@@SA?AVQString@@PBD0H@Z @4108
?trUtf8@QQmlRectValueType@@SA?AVQString@@PBD0H@Z @4109
?trUtf8@QQmlSizeFValueType@@SA?AVQString@@PBD0H@Z @4110
?trUtf8@QQmlSizeValueType@@SA?AVQString@@PBD0H@Z @4111
?trUtf8@QQmlTimer@@SA?AVQString@@PBD0H@Z @4112
?trUtf8@QQmlValueType@@SA?AVQString@@PBD0H@Z @4113
?trackAlloc@Profiler@Profiling@QV4@@QAEIIW4MemoryType@23@@Z @4114
?trackDealloc@Profiler@Profiling@QV4@@QAEPAXPAXIW4MemoryType@23@@Z @4115
?triggered@QQmlTimer@@QAEXXZ @4116
?triggeredOnStart@QQmlTimer@@QBE_NXZ @4117
?triggeredOnStartChanged@QQmlTimer@@QAEXXZ @4118
?trimComponentCache@QQmlEngine@@QAEXXZ @4119
?truncate@SimpleArrayData@QV4@@SAIPAUObject@2@I@Z @4120
?truncate@SparseArrayData@QV4@@SAIPAUObject@2@I@Z @4121
?tryDone@QQmlDataBlob@@AAEXXZ @4122
?tryIntegerConversion@Value@QV4@@QAE_NXZ @4123
?type@ArrayData@QV4@@QBE?AW4Type@12@XZ @4124
?type@QQmlDataBlob@@QBE?AW4Type@1@XZ @4125
?type@QQmlEasingValueType@@QBE?AW4Type@1@XZ @4126
?type@QQmlOpenMetaObject@@QBEPAVQQmlOpenMetaObjectType@@XZ @4127
?type@QQmlProperty@@QBE?AW4Type@1@XZ @4128
?type@QQmlPropertyPrivate@@QBE?AW4Type@QQmlProperty@@XZ @4129
?type@Value@QV4@@QBEIXZ @4130
?typeCategory@QQmlEnginePrivate@@QBE?AW4TypeCategory@QQmlMetaType@@H@Z @4131
?typeCategory@QQmlMetaType@@SA?AW4TypeCategory@1@H@Z @4132
?typeDataProgress@QQmlComponentPrivate@@UAEXPAVQQmlTypeData@@N@Z @4133
?typeDataReady@QQmlComponentPrivate@@UAEXPAVQQmlTypeData@@@Z @4134
?typeId@QQmlType@@QBEHXZ @4135
?typeLoader@Blob@QQmlTypeLoader@@QBEPAV2@XZ @4136
?typeModule@QQmlMetaType@@SAPAVQQmlTypeModule@@ABVQString@@H@Z @4137
?typeName@QQmlType@@QBE?AVQByteArray@@XZ @4138
?typeNamespace@QQmlDirParser@@QBE?AVQString@@XZ @4139
?typeRegistrationFailures@QQmlMetaType@@SA?AVQStringList@@XZ @4140
?typeRegistrationLock@QQmlMetaType@@SAPAVQReadWriteLock@@XZ @4141
?typeofElement@Runtime@QV4@@SA_KPAUExecutionContext@2@UValueRef@2@1@Z @4142
?typeofMember@Runtime@QV4@@SA_KPAUExecutionContext@2@UValueRef@2@PAUString@2@@Z @4143
?typeofName@Runtime@QV4@@SA_KPAUExecutionContext@2@PAUString@2@@Z @4144
?typeofValue@Runtime@QV4@@SA_KPAUExecutionContext@2@UValueRef@2@@Z @4145
?uMinus@Runtime@QV4@@SA_KUValueRef@2@@Z @4146
?uNot@Runtime@QV4@@SA_KUValueRef@2@@Z @4147
?uPlus@Runtime@QV4@@SA_KUValueRef@2@@Z @4148
?uiObjectMember@Codegen@QQmlJS@@IAE?AUUiMember@12@PAVUiObjectMember@AST@2@@Z @4149
?uiObjectMember@Parser@QQmlJS@@QBEPAVUiObjectMember@AST@2@XZ @4150
?uiObjectMemberCast@Node@AST@QQmlJS@@UAEPAVUiObjectMember@23@XZ @4151
?uiObjectMemberCast@UiObjectMember@AST@QQmlJS@@UAEPAV123@XZ @4152
?uncontrolledAnimationFinishTime@QAnimationGroupJob@@IBEHPAVQAbstractAnimationJob@@@Z @4153
?uncontrolledAnimationFinished@QAnimationGroupJob@@UAEXPAVQAbstractAnimationJob@@@Z @4154
?uncontrolledAnimationFinished@QContinuingAnimationGroupJob@@MAEXPAVQAbstractAnimationJob@@@Z @4155
?uncontrolledAnimationFinished@QParallelAnimationGroupJob@@MAEXPAVQAbstractAnimationJob@@@Z @4156
?uncontrolledAnimationFinished@QSequentialAnimationGroupJob@@MAEXPAVQAbstractAnimationJob@@@Z @4157
?undefinedValue@Primitive@QV4@@SA?AU12@XZ @4158
?unlink@CompilationUnit@CompiledData@QV4@@QAEXXZ @4159
?unlinkBinding@Object@QmlIR@@QAEPAUBinding@2@PAU32@0@Z @4160
?unop@Codegen@QQmlJS@@IAEPAUExpr@IR@QV4@@W4AluOp@45@PAU345@ABVSourceLocation@AST@2@@Z @4161
?unop@InstructionSelection@JIT@QV4@@MAEXW4AluOp@IR@3@PAUExpr@53@1@Z @4162
?unop@InstructionSelection@Moth@QV4@@MAEXW4AluOp@IR@3@PAUExpr@53@1@Z @4163
?unregisterAnimation@QQmlAnimationTimer@@SAXPAVQAbstractAnimationJob@@@Z @4164
?unregisterInternalCompositeType@QQmlEnginePrivate@@QAEXPAVQQmlCompiledData@@@Z @4165
?unregisterRunningAnimation@QQmlAnimationTimer@@AAEXPAVQAbstractAnimationJob@@@Z @4166
?unwindException@Codegen@QQmlJS@@IAEXPAUScopeAndFinally@12@@Z @4167
?unwindException@Runtime@QV4@@SA_KPAUExecutionContext@2@@Z @4168
?update@QQmlAbstractBinding@@QAEXV?$QFlags@W4WriteFlag@QQmlPropertyPrivate@@@@@Z @4169
?update@QQmlAbstractBinding@@QAEXXZ @4170
?update@QQmlBinding@@QAEXV?$QFlags@W4WriteFlag@QQmlPropertyPrivate@@@@@Z @4171
?update@QQmlBinding@@QAEXXZ @4172
?update@QQmlBinding@@SAXPAVQQmlAbstractBinding@@V?$QFlags@W4WriteFlag@QQmlPropertyPrivate@@@@@Z @4173
?update@QQmlPropertyCache@@QAEXPAVQQmlEngine@@PBUQMetaObject@@@Z @4174
?update@QQmlTimer@@AAEXXZ @4175
?updateAnimationTimer@QQmlAnimationTimer@@SAXXZ @4176
?updateAnimationsTime@QQmlAnimationTimer@@UAEX_J@Z @4177
?updateCurrentTime@QAbstractAnimationJob@@MAEXH@Z @4178
?updateCurrentTime@QContinuingAnimationGroupJob@@MAEXH@Z @4179
?updateCurrentTime@QParallelAnimationGroupJob@@MAEXH@Z @4180
?updateCurrentTime@QPauseAnimationJob@@MAEXH@Z @4181
?updateCurrentTime@QSequentialAnimationGroupJob@@MAEXH@Z @4182
?updateDirection@QAbstractAnimationJob@@MAEXW4Direction@1@@Z @4183
?updateDirection@QContinuingAnimationGroupJob@@MAEXW4Direction@QAbstractAnimationJob@@@Z @4184
?updateDirection@QParallelAnimationGroupJob@@MAEXW4Direction@QAbstractAnimationJob@@@Z @4185
?updateDirection@QSequentialAnimationGroupJob@@MAEXW4Direction@QAbstractAnimationJob@@@Z @4186
?updateQmldir@Blob@QQmlTypeLoader@@IAE_NPAVQQmlQmldirData@@PBUImport@CompiledData@QV4@@PAV?$QList@VQQmlError@@@@@Z @4187
?updateQmldirContent@QQmlImports@@QAE_NPAVQQmlImportDatabase@@ABVQString@@111PAV?$QList@VQQmlError@@@@@Z @4188
?updateRecur@QQmlPropertyCache@@AAEXPAVQQmlEngine@@PBUQMetaObject@@@Z @4189
?updateState@QAbstractAnimationJob@@MAEXW4State@1@0@Z @4190
?updateState@QContinuingAnimationGroupJob@@MAEXW4State@QAbstractAnimationJob@@0@Z @4191
?updateState@QParallelAnimationGroupJob@@MAEXW4State@QAbstractAnimationJob@@0@Z @4192
?updateState@QQmlInspectorService@@AAEXXZ @4193
?updateState@QSequentialAnimationGroupJob@@MAEXW4State@QAbstractAnimationJob@@0@Z @4194
?updateValue@QQmlPropertyMap@@MAE?AVQVariant@@ABVQString@@ABV2@@Z @4195
?updatingFlag@QQmlBinding@@ABE_NXZ @4196
?upperBound@SparseArray@QV4@@QAEPAUSparseArrayNode@2@I@Z @4197
?upperBound@SparseArray@QV4@@QBEPBUSparseArrayNode@2@I@Z @4198
?url@QQmlComponent@@QBE?AVQUrl@@XZ @4199
?url@QQmlDataBlob@@QBE?AVQUrl@@XZ @4200
?url@QQmlError@@QBE?AVQUrl@@XZ @4201
?url@QQmlFile@@QBE?AVQUrl@@XZ @4202
?urlInterceptor@QQmlEngine@@QBEPAVQQmlAbstractUrlInterceptor@@XZ @4203
?urlScope@QmlContextWrapper@QV4@@SA_KPAVQV8Engine@@ABVQUrl@@@Z @4204
?urlToLocalFileOrQrc@QQmlFile@@SA?AVQString@@ABV2@@Z @4205
?urlToLocalFileOrQrc@QQmlFile@@SA?AVQString@@ABVQUrl@@@Z @4206
?userControlDisabled@QAbstractAnimationJob@@QBE_NXZ @4207
?userType@QQmlValueType@@QBEHXZ @4208
?usesArgumentsObject@Function@QV4@@QBE_NXZ @4209
?ushr@Runtime@QV4@@SA_KUValueRef@2@0@Z @4210
?v4engine@QQmlEnginePrivate@@QBEPAUExecutionEngine@QV4@@XZ @4211
?v8engine@QQmlEnginePrivate@@QBEPAVQV8Engine@@XZ @4212
?vTables@QQmlAbstractBinding@@0PAPAUVTable@1@A @4213
?value@?$QQmlValueTypeBase@VQEasingCurve@@@@UAE?AVQVariant@@XZ @4214
?value@?$QQmlValueTypeBase@VQPoint@@@@UAE?AVQVariant@@XZ @4215
?value@?$QQmlValueTypeBase@VQPointF@@@@UAE?AVQVariant@@XZ @4216
?value@?$QQmlValueTypeBase@VQRect@@@@UAE?AVQVariant@@XZ @4217
?value@?$QQmlValueTypeBase@VQRectF@@@@UAE?AVQVariant@@XZ @4218
?value@?$QQmlValueTypeBase@VQSize@@@@UAE?AVQVariant@@XZ @4219
?value@?$QQmlValueTypeBase@VQSizeF@@@@UAE?AVQVariant@@XZ @4220
?value@PersistentValue@QV4@@QBE_KXZ @4221
?value@QJSValueIterator@@QBE?AVQJSValue@@XZ @4222
?value@QQmlOpenMetaObject@@QBE?AVQVariant@@ABVQByteArray@@@Z @4223
?value@QQmlOpenMetaObject@@QBE?AVQVariant@@H@Z @4224
?value@QQmlPropertyMap@@QBE?AVQVariant@@ABVQString@@@Z @4225
?value@WeakValue@QV4@@QBE_KXZ @4226
?valueAsBoolean@Binding@CompiledData@QV4@@QBE_NXZ @4227
?valueAsNumber@Binding@CompiledData@QV4@@QBENXZ @4228
?valueAsScriptString@Binding@CompiledData@QV4@@QBE?AVQString@@PBUUnit@23@@Z @4229
?valueAsString@Binding@CompiledData@QV4@@QBE?AVQString@@PBUUnit@23@@Z @4230
?valueChanged@QQmlExpression@@QAEXXZ @4231
?valueChanged@QQmlPropertyMap@@QAEXABVQString@@ABVQVariant@@@Z @4232
?valueContents@QQmlEngineDebugService@@ABE?AVQVariant@@V2@@Z @4233
?valueType@QQmlValueTypeFactory@@SAPAVQQmlValueType@@H@Z @4234
?valueTypeCoreIndex@QQmlPropertyPrivate@@SAHABVQQmlProperty@@@Z @4235
?varCount@FunctionObject@QV4@@QAEIXZ @4236
?variableDeclaration@Codegen@QQmlJS@@IAEXPAVVariableDeclaration@AST@2@@Z @4237
?variableDeclarationList@Codegen@QQmlJS@@IAEXPAVVariableDeclarationList@AST@2@@Z @4238
?variantFromJsObject@QQmlValueTypeProvider@@EAE_NHVQQmlV4Handle@@PAVQV8Engine@@PAVQVariant@@@Z @4239
?variantFromString@QQmlStringConverters@@YA?AVQVariant@@ABVQString@@@Z @4240
?variantFromString@QQmlStringConverters@@YA?AVQVariant@@ABVQString@@HPA_N@Z @4241
?variantFromString@QQmlValueTypeProvider@@EAE_NABVQString@@PAVQVariant@@@Z @4242
?variantFromString@QQmlValueTypeProvider@@EAE_NHABVQString@@PAVQVariant@@@Z @4243
?variantListToJS@QV8Engine@@QAE_KABV?$QList@VQVariant@@@@@Z @4244
?variantMapFromJS@QV8Engine@@QAE?AV?$QMap@VQString@@VQVariant@@@@PAUObject@QV4@@@Z @4245
?variantMapToJS@QV8Engine@@QAE_KABV?$QMap@VQString@@VQVariant@@@@@Z @4246
?variantToJS@QV8Engine@@QAE_KABVQVariant@@@Z @4247
?version@QQmlApplication@@QBE?AVQString@@XZ @4248
?version@QQmlDebugService@@QBEMXZ @4249
?versionChanged@QQmlApplication@@QAEXXZ @4250
?versionString@QQmlImports@@SA?AVQString@@HHW4ImportVersion@1@@Z @4251
?visit@Codegen@QQmlJS@@MAE_NPAVArgumentList@AST@2@@Z @4252
?visit@Codegen@QQmlJS@@MAE_NPAVArrayLiteral@AST@2@@Z @4253
?visit@Codegen@QQmlJS@@MAE_NPAVArrayMemberExpression@AST@2@@Z @4254
?visit@Codegen@QQmlJS@@MAE_NPAVBinaryExpression@AST@2@@Z @4255
?visit@Codegen@QQmlJS@@MAE_NPAVBlock@AST@2@@Z @4256
?visit@Codegen@QQmlJS@@MAE_NPAVBreakStatement@AST@2@@Z @4257
?visit@Codegen@QQmlJS@@MAE_NPAVCallExpression@AST@2@@Z @4258
?visit@Codegen@QQmlJS@@MAE_NPAVCaseBlock@AST@2@@Z @4259
?visit@Codegen@QQmlJS@@MAE_NPAVCaseClause@AST@2@@Z @4260
?visit@Codegen@QQmlJS@@MAE_NPAVCaseClauses@AST@2@@Z @4261
?visit@Codegen@QQmlJS@@MAE_NPAVCatch@AST@2@@Z @4262
?visit@Codegen@QQmlJS@@MAE_NPAVConditionalExpression@AST@2@@Z @4263
?visit@Codegen@QQmlJS@@MAE_NPAVContinueStatement@AST@2@@Z @4264
?visit@Codegen@QQmlJS@@MAE_NPAVDebuggerStatement@AST@2@@Z @4265
?visit@Codegen@QQmlJS@@MAE_NPAVDefaultClause@AST@2@@Z @4266
?visit@Codegen@QQmlJS@@MAE_NPAVDeleteExpression@AST@2@@Z @4267
?visit@Codegen@QQmlJS@@MAE_NPAVDoWhileStatement@AST@2@@Z @4268
?visit@Codegen@QQmlJS@@MAE_NPAVElementList@AST@2@@Z @4269
?visit@Codegen@QQmlJS@@MAE_NPAVElision@AST@2@@Z @4270
?visit@Codegen@QQmlJS@@MAE_NPAVEmptyStatement@AST@2@@Z @4271
?visit@Codegen@QQmlJS@@MAE_NPAVExpression@AST@2@@Z @4272
?visit@Codegen@QQmlJS@@MAE_NPAVExpressionStatement@AST@2@@Z @4273
?visit@Codegen@QQmlJS@@MAE_NPAVFalseLiteral@AST@2@@Z @4274
?visit@Codegen@QQmlJS@@MAE_NPAVFieldMemberExpression@AST@2@@Z @4275
?visit@Codegen@QQmlJS@@MAE_NPAVFinally@AST@2@@Z @4276
?visit@Codegen@QQmlJS@@MAE_NPAVForEachStatement@AST@2@@Z @4277
?visit@Codegen@QQmlJS@@MAE_NPAVForStatement@AST@2@@Z @4278
?visit@Codegen@QQmlJS@@MAE_NPAVFormalParameterList@AST@2@@Z @4279
?visit@Codegen@QQmlJS@@MAE_NPAVFunctionBody@AST@2@@Z @4280
?visit@Codegen@QQmlJS@@MAE_NPAVFunctionDeclaration@AST@2@@Z @4281
?visit@Codegen@QQmlJS@@MAE_NPAVFunctionExpression@AST@2@@Z @4282
?visit@Codegen@QQmlJS@@MAE_NPAVFunctionSourceElement@AST@2@@Z @4283
?visit@Codegen@QQmlJS@@MAE_NPAVIdentifierExpression@AST@2@@Z @4284
?visit@Codegen@QQmlJS@@MAE_NPAVIfStatement@AST@2@@Z @4285
?visit@Codegen@QQmlJS@@MAE_NPAVLabelledStatement@AST@2@@Z @4286
?visit@Codegen@QQmlJS@@MAE_NPAVLocalForEachStatement@AST@2@@Z @4287
?visit@Codegen@QQmlJS@@MAE_NPAVLocalForStatement@AST@2@@Z @4288
?visit@Codegen@QQmlJS@@MAE_NPAVNestedExpression@AST@2@@Z @4289
?visit@Codegen@QQmlJS@@MAE_NPAVNewExpression@AST@2@@Z @4290
?visit@Codegen@QQmlJS@@MAE_NPAVNewMemberExpression@AST@2@@Z @4291
?visit@Codegen@QQmlJS@@MAE_NPAVNotExpression@AST@2@@Z @4292
?visit@Codegen@QQmlJS@@MAE_NPAVNullExpression@AST@2@@Z @4293
?visit@Codegen@QQmlJS@@MAE_NPAVNumericLiteral@AST@2@@Z @4294
?visit@Codegen@QQmlJS@@MAE_NPAVObjectLiteral@AST@2@@Z @4295
?visit@Codegen@QQmlJS@@MAE_NPAVPostDecrementExpression@AST@2@@Z @4296
?visit@Codegen@QQmlJS@@MAE_NPAVPostIncrementExpression@AST@2@@Z @4297
?visit@Codegen@QQmlJS@@MAE_NPAVPreDecrementExpression@AST@2@@Z @4298
?visit@Codegen@QQmlJS@@MAE_NPAVPreIncrementExpression@AST@2@@Z @4299
?visit@Codegen@QQmlJS@@MAE_NPAVProgram@AST@2@@Z @4300
?visit@Codegen@QQmlJS@@MAE_NPAVPropertyAssignmentList@AST@2@@Z @4301
?visit@Codegen@QQmlJS@@MAE_NPAVPropertyGetterSetter@AST@2@@Z @4302
?visit@Codegen@QQmlJS@@MAE_NPAVPropertyNameAndValue@AST@2@@Z @4303
?visit@Codegen@QQmlJS@@MAE_NPAVRegExpLiteral@AST@2@@Z @4304
?visit@Codegen@QQmlJS@@MAE_NPAVReturnStatement@AST@2@@Z @4305
?visit@Codegen@QQmlJS@@MAE_NPAVSourceElements@AST@2@@Z @4306
?visit@Codegen@QQmlJS@@MAE_NPAVStatementList@AST@2@@Z @4307
?visit@Codegen@QQmlJS@@MAE_NPAVStatementSourceElement@AST@2@@Z @4308
?visit@Codegen@QQmlJS@@MAE_NPAVStringLiteral@AST@2@@Z @4309
?visit@Codegen@QQmlJS@@MAE_NPAVSwitchStatement@AST@2@@Z @4310
?visit@Codegen@QQmlJS@@MAE_NPAVThisExpression@AST@2@@Z @4311
?visit@Codegen@QQmlJS@@MAE_NPAVThrowStatement@AST@2@@Z @4312
?visit@Codegen@QQmlJS@@MAE_NPAVTildeExpression@AST@2@@Z @4313
?visit@Codegen@QQmlJS@@MAE_NPAVTrueLiteral@AST@2@@Z @4314
?visit@Codegen@QQmlJS@@MAE_NPAVTryStatement@AST@2@@Z @4315
?visit@Codegen@QQmlJS@@MAE_NPAVTypeOfExpression@AST@2@@Z @4316
?visit@Codegen@QQmlJS@@MAE_NPAVUiArrayBinding@AST@2@@Z @4317
?visit@Codegen@QQmlJS@@MAE_NPAVUiArrayMemberList@AST@2@@Z @4318
?visit@Codegen@QQmlJS@@MAE_NPAVUiHeaderItemList@AST@2@@Z @4319
?visit@Codegen@QQmlJS@@MAE_NPAVUiImport@AST@2@@Z @4320
?visit@Codegen@QQmlJS@@MAE_NPAVUiObjectBinding@AST@2@@Z @4321
?visit@Codegen@QQmlJS@@MAE_NPAVUiObjectDefinition@AST@2@@Z @4322
?visit@Codegen@QQmlJS@@MAE_NPAVUiObjectInitializer@AST@2@@Z @4323
?visit@Codegen@QQmlJS@@MAE_NPAVUiObjectMemberList@AST@2@@Z @4324
?visit@Codegen@QQmlJS@@MAE_NPAVUiParameterList@AST@2@@Z @4325
?visit@Codegen@QQmlJS@@MAE_NPAVUiPragma@AST@2@@Z @4326
?visit@Codegen@QQmlJS@@MAE_NPAVUiProgram@AST@2@@Z @4327
?visit@Codegen@QQmlJS@@MAE_NPAVUiPublicMember@AST@2@@Z @4328
?visit@Codegen@QQmlJS@@MAE_NPAVUiQualifiedId@AST@2@@Z @4329
?visit@Codegen@QQmlJS@@MAE_NPAVUiQualifiedPragmaId@AST@2@@Z @4330
?visit@Codegen@QQmlJS@@MAE_NPAVUiScriptBinding@AST@2@@Z @4331
?visit@Codegen@QQmlJS@@MAE_NPAVUiSourceElement@AST@2@@Z @4332
?visit@Codegen@QQmlJS@@MAE_NPAVUnaryMinusExpression@AST@2@@Z @4333
?visit@Codegen@QQmlJS@@MAE_NPAVUnaryPlusExpression@AST@2@@Z @4334
?visit@Codegen@QQmlJS@@MAE_NPAVVariableDeclaration@AST@2@@Z @4335
?visit@Codegen@QQmlJS@@MAE_NPAVVariableDeclarationList@AST@2@@Z @4336
?visit@Codegen@QQmlJS@@MAE_NPAVVariableStatement@AST@2@@Z @4337
?visit@Codegen@QQmlJS@@MAE_NPAVVoidExpression@AST@2@@Z @4338
?visit@Codegen@QQmlJS@@MAE_NPAVWhileStatement@AST@2@@Z @4339
?visit@Codegen@QQmlJS@@MAE_NPAVWithStatement@AST@2@@Z @4340
?visit@IRBuilder@QmlIR@@UAE_NPAVUiArrayBinding@AST@QQmlJS@@@Z @4341
?visit@IRBuilder@QmlIR@@UAE_NPAVUiArrayMemberList@AST@QQmlJS@@@Z @4342
?visit@IRBuilder@QmlIR@@UAE_NPAVUiHeaderItemList@AST@QQmlJS@@@Z @4343
?visit@IRBuilder@QmlIR@@UAE_NPAVUiImport@AST@QQmlJS@@@Z @4344
?visit@IRBuilder@QmlIR@@UAE_NPAVUiObjectBinding@AST@QQmlJS@@@Z @4345
?visit@IRBuilder@QmlIR@@UAE_NPAVUiObjectDefinition@AST@QQmlJS@@@Z @4346
?visit@IRBuilder@QmlIR@@UAE_NPAVUiObjectInitializer@AST@QQmlJS@@@Z @4347
?visit@IRBuilder@QmlIR@@UAE_NPAVUiObjectMemberList@AST@QQmlJS@@@Z @4348
?visit@IRBuilder@QmlIR@@UAE_NPAVUiParameterList@AST@QQmlJS@@@Z @4349
?visit@IRBuilder@QmlIR@@UAE_NPAVUiPragma@AST@QQmlJS@@@Z @4350
?visit@IRBuilder@QmlIR@@UAE_NPAVUiProgram@AST@QQmlJS@@@Z @4351
?visit@IRBuilder@QmlIR@@UAE_NPAVUiPublicMember@AST@QQmlJS@@@Z @4352
?visit@IRBuilder@QmlIR@@UAE_NPAVUiQualifiedId@AST@QQmlJS@@@Z @4353
?visit@IRBuilder@QmlIR@@UAE_NPAVUiScriptBinding@AST@QQmlJS@@@Z @4354
?visit@IRBuilder@QmlIR@@UAE_NPAVUiSourceElement@AST@QQmlJS@@@Z @4355
?visit@Visitor@AST@QQmlJS@@UAE_NPAVArgumentList@23@@Z @4356
?visit@Visitor@AST@QQmlJS@@UAE_NPAVArrayLiteral@23@@Z @4357
?visit@Visitor@AST@QQmlJS@@UAE_NPAVArrayMemberExpression@23@@Z @4358
?visit@Visitor@AST@QQmlJS@@UAE_NPAVBinaryExpression@23@@Z @4359
?visit@Visitor@AST@QQmlJS@@UAE_NPAVBlock@23@@Z @4360
?visit@Visitor@AST@QQmlJS@@UAE_NPAVBreakStatement@23@@Z @4361
?visit@Visitor@AST@QQmlJS@@UAE_NPAVCallExpression@23@@Z @4362
?visit@Visitor@AST@QQmlJS@@UAE_NPAVCaseBlock@23@@Z @4363
?visit@Visitor@AST@QQmlJS@@UAE_NPAVCaseClause@23@@Z @4364
?visit@Visitor@AST@QQmlJS@@UAE_NPAVCaseClauses@23@@Z @4365
?visit@Visitor@AST@QQmlJS@@UAE_NPAVCatch@23@@Z @4366
?visit@Visitor@AST@QQmlJS@@UAE_NPAVConditionalExpression@23@@Z @4367
?visit@Visitor@AST@QQmlJS@@UAE_NPAVContinueStatement@23@@Z @4368
?visit@Visitor@AST@QQmlJS@@UAE_NPAVDebuggerStatement@23@@Z @4369
?visit@Visitor@AST@QQmlJS@@UAE_NPAVDefaultClause@23@@Z @4370
?visit@Visitor@AST@QQmlJS@@UAE_NPAVDeleteExpression@23@@Z @4371
?visit@Visitor@AST@QQmlJS@@UAE_NPAVDoWhileStatement@23@@Z @4372
?visit@Visitor@AST@QQmlJS@@UAE_NPAVElementList@23@@Z @4373
?visit@Visitor@AST@QQmlJS@@UAE_NPAVElision@23@@Z @4374
?visit@Visitor@AST@QQmlJS@@UAE_NPAVEmptyStatement@23@@Z @4375
?visit@Visitor@AST@QQmlJS@@UAE_NPAVExpression@23@@Z @4376
?visit@Visitor@AST@QQmlJS@@UAE_NPAVExpressionStatement@23@@Z @4377
?visit@Visitor@AST@QQmlJS@@UAE_NPAVFalseLiteral@23@@Z @4378
?visit@Visitor@AST@QQmlJS@@UAE_NPAVFieldMemberExpression@23@@Z @4379
?visit@Visitor@AST@QQmlJS@@UAE_NPAVFinally@23@@Z @4380
?visit@Visitor@AST@QQmlJS@@UAE_NPAVForEachStatement@23@@Z @4381
?visit@Visitor@AST@QQmlJS@@UAE_NPAVForStatement@23@@Z @4382
?visit@Visitor@AST@QQmlJS@@UAE_NPAVFormalParameterList@23@@Z @4383
?visit@Visitor@AST@QQmlJS@@UAE_NPAVFunctionBody@23@@Z @4384
?visit@Visitor@AST@QQmlJS@@UAE_NPAVFunctionDeclaration@23@@Z @4385
?visit@Visitor@AST@QQmlJS@@UAE_NPAVFunctionExpression@23@@Z @4386
?visit@Visitor@AST@QQmlJS@@UAE_NPAVFunctionSourceElement@23@@Z @4387
?visit@Visitor@AST@QQmlJS@@UAE_NPAVIdentifierExpression@23@@Z @4388
?visit@Visitor@AST@QQmlJS@@UAE_NPAVIdentifierPropertyName@23@@Z @4389
?visit@Visitor@AST@QQmlJS@@UAE_NPAVIfStatement@23@@Z @4390
?visit@Visitor@AST@QQmlJS@@UAE_NPAVLabelledStatement@23@@Z @4391
?visit@Visitor@AST@QQmlJS@@UAE_NPAVLocalForEachStatement@23@@Z @4392
?visit@Visitor@AST@QQmlJS@@UAE_NPAVLocalForStatement@23@@Z @4393
?visit@Visitor@AST@QQmlJS@@UAE_NPAVNestedExpression@23@@Z @4394
?visit@Visitor@AST@QQmlJS@@UAE_NPAVNewExpression@23@@Z @4395
?visit@Visitor@AST@QQmlJS@@UAE_NPAVNewMemberExpression@23@@Z @4396
?visit@Visitor@AST@QQmlJS@@UAE_NPAVNotExpression@23@@Z @4397
?visit@Visitor@AST@QQmlJS@@UAE_NPAVNullExpression@23@@Z @4398
?visit@Visitor@AST@QQmlJS@@UAE_NPAVNumericLiteral@23@@Z @4399
?visit@Visitor@AST@QQmlJS@@UAE_NPAVNumericLiteralPropertyName@23@@Z @4400
?visit@Visitor@AST@QQmlJS@@UAE_NPAVObjectLiteral@23@@Z @4401
?visit@Visitor@AST@QQmlJS@@UAE_NPAVPostDecrementExpression@23@@Z @4402
?visit@Visitor@AST@QQmlJS@@UAE_NPAVPostIncrementExpression@23@@Z @4403
?visit@Visitor@AST@QQmlJS@@UAE_NPAVPreDecrementExpression@23@@Z @4404
?visit@Visitor@AST@QQmlJS@@UAE_NPAVPreIncrementExpression@23@@Z @4405
?visit@Visitor@AST@QQmlJS@@UAE_NPAVProgram@23@@Z @4406
?visit@Visitor@AST@QQmlJS@@UAE_NPAVPropertyAssignmentList@23@@Z @4407
?visit@Visitor@AST@QQmlJS@@UAE_NPAVPropertyGetterSetter@23@@Z @4408
?visit@Visitor@AST@QQmlJS@@UAE_NPAVPropertyNameAndValue@23@@Z @4409
?visit@Visitor@AST@QQmlJS@@UAE_NPAVRegExpLiteral@23@@Z @4410
?visit@Visitor@AST@QQmlJS@@UAE_NPAVReturnStatement@23@@Z @4411
?visit@Visitor@AST@QQmlJS@@UAE_NPAVSourceElements@23@@Z @4412
?visit@Visitor@AST@QQmlJS@@UAE_NPAVStatementList@23@@Z @4413
?visit@Visitor@AST@QQmlJS@@UAE_NPAVStatementSourceElement@23@@Z @4414
?visit@Visitor@AST@QQmlJS@@UAE_NPAVStringLiteral@23@@Z @4415
?visit@Visitor@AST@QQmlJS@@UAE_NPAVStringLiteralPropertyName@23@@Z @4416
?visit@Visitor@AST@QQmlJS@@UAE_NPAVSwitchStatement@23@@Z @4417
?visit@Visitor@AST@QQmlJS@@UAE_NPAVThisExpression@23@@Z @4418
?visit@Visitor@AST@QQmlJS@@UAE_NPAVThrowStatement@23@@Z @4419
?visit@Visitor@AST@QQmlJS@@UAE_NPAVTildeExpression@23@@Z @4420
?visit@Visitor@AST@QQmlJS@@UAE_NPAVTrueLiteral@23@@Z @4421
?visit@Visitor@AST@QQmlJS@@UAE_NPAVTryStatement@23@@Z @4422
?visit@Visitor@AST@QQmlJS@@UAE_NPAVTypeOfExpression@23@@Z @4423
?visit@Visitor@AST@QQmlJS@@UAE_NPAVUiArrayBinding@23@@Z @4424
?visit@Visitor@AST@QQmlJS@@UAE_NPAVUiArrayMemberList@23@@Z @4425
?visit@Visitor@AST@QQmlJS@@UAE_NPAVUiHeaderItemList@23@@Z @4426
?visit@Visitor@AST@QQmlJS@@UAE_NPAVUiImport@23@@Z @4427
?visit@Visitor@AST@QQmlJS@@UAE_NPAVUiObjectBinding@23@@Z @4428
?visit@Visitor@AST@QQmlJS@@UAE_NPAVUiObjectDefinition@23@@Z @4429
?visit@Visitor@AST@QQmlJS@@UAE_NPAVUiObjectInitializer@23@@Z @4430
?visit@Visitor@AST@QQmlJS@@UAE_NPAVUiObjectMemberList@23@@Z @4431
?visit@Visitor@AST@QQmlJS@@UAE_NPAVUiParameterList@23@@Z @4432
?visit@Visitor@AST@QQmlJS@@UAE_NPAVUiPragma@23@@Z @4433
?visit@Visitor@AST@QQmlJS@@UAE_NPAVUiProgram@23@@Z @4434
?visit@Visitor@AST@QQmlJS@@UAE_NPAVUiPublicMember@23@@Z @4435
?visit@Visitor@AST@QQmlJS@@UAE_NPAVUiQualifiedId@23@@Z @4436
?visit@Visitor@AST@QQmlJS@@UAE_NPAVUiQualifiedPragmaId@23@@Z @4437
?visit@Visitor@AST@QQmlJS@@UAE_NPAVUiScriptBinding@23@@Z @4438
?visit@Visitor@AST@QQmlJS@@UAE_NPAVUiSourceElement@23@@Z @4439
?visit@Visitor@AST@QQmlJS@@UAE_NPAVUnaryMinusExpression@23@@Z @4440
?visit@Visitor@AST@QQmlJS@@UAE_NPAVUnaryPlusExpression@23@@Z @4441
?visit@Visitor@AST@QQmlJS@@UAE_NPAVVariableDeclaration@23@@Z @4442
?visit@Visitor@AST@QQmlJS@@UAE_NPAVVariableDeclarationList@23@@Z @4443
?visit@Visitor@AST@QQmlJS@@UAE_NPAVVariableStatement@23@@Z @4444
?visit@Visitor@AST@QQmlJS@@UAE_NPAVVoidExpression@23@@Z @4445
?visit@Visitor@AST@QQmlJS@@UAE_NPAVWhileStatement@23@@Z @4446
?visit@Visitor@AST@QQmlJS@@UAE_NPAVWithStatement@23@@Z @4447
?visitCJump@InstructionSelection@JIT@QV4@@MAEXPAUCJump@IR@3@@Z @4448
?visitCJump@InstructionSelection@Moth@QV4@@MAEXPAUCJump@IR@3@@Z @4449
?visitCJumpDouble@InstructionSelection@JIT@QV4@@IAE_NW4AluOp@IR@3@PAUExpr@53@1PAUBasicBlock@53@2@Z @4450
?visitCJumpEqual@InstructionSelection@JIT@QV4@@IAEXPAUBinop@IR@3@PAUBasicBlock@53@1@Z @4451
?visitCJumpNullUndefined@InstructionSelection@JIT@QV4@@IAE_NW4Type@IR@3@PAUBinop@53@PAUBasicBlock@53@2@Z @4452
?visitCJumpSInt32@InstructionSelection@JIT@QV4@@IAE_NW4AluOp@IR@3@PAUExpr@53@1PAUBasicBlock@53@2@Z @4453
?visitCJumpStrict@InstructionSelection@JIT@QV4@@IAEXPAUBinop@IR@3@PAUBasicBlock@53@1@Z @4454
?visitCJumpStrictBool@InstructionSelection@JIT@QV4@@IAE_NPAUBinop@IR@3@PAUBasicBlock@53@1@Z @4455
?visitCJumpStrictNullUndefined@InstructionSelection@JIT@QV4@@IAE_NW4Type@IR@3@PAUBinop@53@PAUBasicBlock@53@2@Z @4456
?visitExp@IRDecoder@IR@QV4@@UAEXPAUExp@23@@Z @4457
?visitJump@InstructionSelection@JIT@QV4@@MAEXPAUJump@IR@3@@Z @4458
?visitJump@InstructionSelection@Moth@QV4@@MAEXPAUJump@IR@3@@Z @4459
?visitMove@IRDecoder@IR@QV4@@UAEXPAUMove@23@@Z @4460
?visitPhi@IRDecoder@IR@QV4@@UAEXPAUPhi@23@@Z @4461
?visitRet@InstructionSelection@JIT@QV4@@MAEXPAURet@IR@3@@Z @4462
?visitRet@InstructionSelection@Moth@QV4@@MAEXPAURet@IR@3@@Z @4463
?vmeMethod@QQmlVMEMetaObject@@QAE_KH@Z @4464
?vmeMethodLineNumber@QQmlVMEMetaObject@@QAEGH@Z @4465
?vmeProperty@QQmlVMEMetaObject@@QAE_KH@Z @4466
?vtable@ArrayData@QV4@@QBEPBUArrayVTable@2@XZ @4467
?vtable@Object@QV4@@QBEPBUObjectVTable@2@XZ @4468
?vtable@QQmlAbstractBinding@@ABEPBUVTable@1@XZ @4469
?wakeEngine@QQmlDebugServer@@AAEXPAVQQmlEngine@@@Z @4470
?warning@QQmlEnginePrivate@@QAEXABV?$QList@VQQmlError@@@@@Z @4471
?warning@QQmlEnginePrivate@@QAEXABVQQmlError@@@Z @4472
?warning@QQmlEnginePrivate@@QAEXPAVQQmlDelayedError@@@Z @4473
?warning@QQmlEnginePrivate@@SAXPAV1@ABV?$QList@VQQmlError@@@@@Z @4474
?warning@QQmlEnginePrivate@@SAXPAV1@ABVQQmlError@@@Z @4475
?warning@QQmlEnginePrivate@@SAXPAVQQmlEngine@@ABV?$QList@VQQmlError@@@@@Z @4476
?warning@QQmlEnginePrivate@@SAXPAVQQmlEngine@@ABVQQmlError@@@Z @4477
?warning@QQmlEnginePrivate@@SAXPAVQQmlEngine@@PAVQQmlDelayedError@@@Z @4478
?warnings@QQmlEngine@@QAEXABV?$QList@VQQmlError@@@@@Z @4479
?wasDeleted@QQmlData@@SA_NPAVQObject@@@Z @4480
?weakPointer@QQmlAbstractBinding@@AAE?AV?$QWeakPointer@VQQmlAbstractBinding@@@@XZ @4481
?width@QQmlRectFValueType@@QBENXZ @4482
?width@QQmlRectValueType@@QBEHXZ @4483
?width@QQmlSizeFValueType@@QBENXZ @4484
?width@QQmlSizeValueType@@QBEHXZ @4485
?wrap@QObjectWrapper@QV4@@SA_KPAUExecutionEngine@2@PAVQObject@@@Z @4486
?write@?$QQmlValueTypeBase@VQEasingCurve@@@@UAEXPAVQObject@@HV?$QFlags@W4WriteFlag@QQmlPropertyPrivate@@@@@Z @4487
?write@?$QQmlValueTypeBase@VQPoint@@@@UAEXPAVQObject@@HV?$QFlags@W4WriteFlag@QQmlPropertyPrivate@@@@@Z @4488
?write@?$QQmlValueTypeBase@VQPointF@@@@UAEXPAVQObject@@HV?$QFlags@W4WriteFlag@QQmlPropertyPrivate@@@@@Z @4489
?write@?$QQmlValueTypeBase@VQRect@@@@UAEXPAVQObject@@HV?$QFlags@W4WriteFlag@QQmlPropertyPrivate@@@@@Z @4490
?write@?$QQmlValueTypeBase@VQRectF@@@@UAEXPAVQObject@@HV?$QFlags@W4WriteFlag@QQmlPropertyPrivate@@@@@Z @4491
?write@?$QQmlValueTypeBase@VQSize@@@@UAEXPAVQObject@@HV?$QFlags@W4WriteFlag@QQmlPropertyPrivate@@@@@Z @4492
?write@?$QQmlValueTypeBase@VQSizeF@@@@UAEXPAVQObject@@HV?$QFlags@W4WriteFlag@QQmlPropertyPrivate@@@@@Z @4493
?write@QQmlProperty@@QBE_NABVQVariant@@@Z @4494
?write@QQmlProperty@@SA_NPAVQObject@@ABVQString@@ABVQVariant@@@Z @4495
?write@QQmlProperty@@SA_NPAVQObject@@ABVQString@@ABVQVariant@@PAVQQmlContext@@@Z @4496
?write@QQmlProperty@@SA_NPAVQObject@@ABVQString@@ABVQVariant@@PAVQQmlEngine@@@Z @4497
?write@QQmlPropertyPrivate@@SA_NABVQQmlProperty@@ABVQVariant@@V?$QFlags@W4WriteFlag@QQmlPropertyPrivate@@@@@Z @4498
?write@QQmlPropertyPrivate@@SA_NPAVQObject@@ABVQQmlPropertyData@@ABVQVariant@@PAVQQmlContextData@@V?$QFlags@W4WriteFlag@QQmlPropertyPrivate@@@@@Z @4499
?write@QQmlValueTypeProvider@@EAE_NHPBXPAXI@Z @4500
?writeBinding@QQmlPropertyPrivate@@SA_NPAVQObject@@ABVQQmlPropertyData@@PAVQQmlContextData@@PAVQQmlJavaScriptExpression@@UValueRef@QV4@@_NV?$QFlags@W4WriteFlag@QQmlPropertyPrivate@@@@@Z @4501
?writeBindings@QmlUnitGenerator@QmlIR@@ABEPADPADPAUObject@2@P8Binding@2@BE_NXZ@Z @4502
?writeEnumProperty@QQmlPropertyPrivate@@SA_NABVQMetaProperty@@HPAVQObject@@ABVQVariant@@H@Z @4503
?writeFunction@JSUnitGenerator@Compiler@QV4@@QAEHPADHPAUFunction@IR@3@@Z @4504
?writeProperty@QQmlVMEMetaObject@@QAEXHABVQVariant@@@Z @4505
?writeProperty@QQmlValueType@@IAEXPAVQObject@@HV?$QFlags@W4WriteFlag@QQmlPropertyPrivate@@@@PAX@Z @4506
?writeValueProperty@QQmlPropertyPrivate@@QAE_NABVQVariant@@V?$QFlags@W4WriteFlag@QQmlPropertyPrivate@@@@@Z @4507
?writeValueProperty@QQmlPropertyPrivate@@SA_NPAVQObject@@ABVQQmlPropertyData@@ABVQVariant@@PAVQQmlContextData@@V?$QFlags@W4WriteFlag@QQmlPropertyPrivate@@@@@Z @4508
?writeValueType@QQmlValueTypeProvider@@QAE_NHPBXPAXI@Z @4509
?writeVarProperty@QQmlVMEMetaObject@@QAEXHUValueRef@QV4@@@Z @4510
?writeVariantValue@?$QQmlValueTypeBase@VQEasingCurve@@@@UAEXPAVQObject@@HV?$QFlags@W4WriteFlag@QQmlPropertyPrivate@@@@PAVQVariant@@@Z @4511
?writeVariantValue@?$QQmlValueTypeBase@VQPoint@@@@UAEXPAVQObject@@HV?$QFlags@W4WriteFlag@QQmlPropertyPrivate@@@@PAVQVariant@@@Z @4512
?writeVariantValue@?$QQmlValueTypeBase@VQPointF@@@@UAEXPAVQObject@@HV?$QFlags@W4WriteFlag@QQmlPropertyPrivate@@@@PAVQVariant@@@Z @4513
?writeVariantValue@?$QQmlValueTypeBase@VQRect@@@@UAEXPAVQObject@@HV?$QFlags@W4WriteFlag@QQmlPropertyPrivate@@@@PAVQVariant@@@Z @4514
?writeVariantValue@?$QQmlValueTypeBase@VQRectF@@@@UAEXPAVQObject@@HV?$QFlags@W4WriteFlag@QQmlPropertyPrivate@@@@PAVQVariant@@@Z @4515
?writeVariantValue@?$QQmlValueTypeBase@VQSize@@@@UAEXPAVQObject@@HV?$QFlags@W4WriteFlag@QQmlPropertyPrivate@@@@PAVQVariant@@@Z @4516
?writeVariantValue@?$QQmlValueTypeBase@VQSizeF@@@@UAEXPAVQObject@@HV?$QFlags@W4WriteFlag@QQmlPropertyPrivate@@@@PAVQVariant@@@Z @4517
?x@QQmlPointFValueType@@QBENXZ @4518
?x@QQmlPointValueType@@QBEHXZ @4519
?x@QQmlRectFValueType@@QBENXZ @4520
?x@QQmlRectValueType@@QBEHXZ @4521
?xmlHttpRequestData@QV8Engine@@QAEPAXXZ @4522
?y@QQmlPointFValueType@@QBENXZ @4523
?y@QQmlPointValueType@@QBEHXZ @4524
?y@QQmlRectFValueType@@QBENXZ @4525
?y@QQmlRectValueType@@QBEHXZ @4526
qt_v4StackTrace @4527
